
sizeof_testing.elf:     file format elf32-littlearm


Disassembly of section .isr_vector:

08000000 <g_pfnVectors>:
 8000000:	20020000 	andcs	r0, r2, r0
 8000004:	0800043d 	stmdaeq	r0, {r0, r2, r3, r4, r5, sl}
 8000008:	0800048d 	stmdaeq	r0, {r0, r2, r3, r7, sl}
 800000c:	0800048d 	stmdaeq	r0, {r0, r2, r3, r7, sl}
 8000010:	0800048d 	stmdaeq	r0, {r0, r2, r3, r7, sl}
 8000014:	0800048d 	stmdaeq	r0, {r0, r2, r3, r7, sl}
 8000018:	0800048d 	stmdaeq	r0, {r0, r2, r3, r7, sl}
	...
 800002c:	0800048d 	stmdaeq	r0, {r0, r2, r3, r7, sl}
 8000030:	0800048d 	stmdaeq	r0, {r0, r2, r3, r7, sl}
 8000034:	00000000 	andeq	r0, r0, r0
 8000038:	0800048d 	stmdaeq	r0, {r0, r2, r3, r7, sl}
 800003c:	0800048d 	stmdaeq	r0, {r0, r2, r3, r7, sl}
 8000040:	0800048d 	stmdaeq	r0, {r0, r2, r3, r7, sl}
 8000044:	0800048d 	stmdaeq	r0, {r0, r2, r3, r7, sl}
 8000048:	0800048d 	stmdaeq	r0, {r0, r2, r3, r7, sl}
 800004c:	0800048d 	stmdaeq	r0, {r0, r2, r3, r7, sl}
 8000050:	00000000 	andeq	r0, r0, r0
 8000054:	0800048d 	stmdaeq	r0, {r0, r2, r3, r7, sl}
 8000058:	0800048d 	stmdaeq	r0, {r0, r2, r3, r7, sl}
 800005c:	0800048d 	stmdaeq	r0, {r0, r2, r3, r7, sl}
 8000060:	0800048d 	stmdaeq	r0, {r0, r2, r3, r7, sl}
 8000064:	0800048d 	stmdaeq	r0, {r0, r2, r3, r7, sl}
 8000068:	0800048d 	stmdaeq	r0, {r0, r2, r3, r7, sl}
 800006c:	0800048d 	stmdaeq	r0, {r0, r2, r3, r7, sl}
 8000070:	0800048d 	stmdaeq	r0, {r0, r2, r3, r7, sl}
 8000074:	0800048d 	stmdaeq	r0, {r0, r2, r3, r7, sl}
 8000078:	0800048d 	stmdaeq	r0, {r0, r2, r3, r7, sl}
 800007c:	0800048d 	stmdaeq	r0, {r0, r2, r3, r7, sl}
 8000080:	0800048d 	stmdaeq	r0, {r0, r2, r3, r7, sl}
 8000084:	0800048d 	stmdaeq	r0, {r0, r2, r3, r7, sl}
 8000088:	0800048d 	stmdaeq	r0, {r0, r2, r3, r7, sl}
 800008c:	0800048d 	stmdaeq	r0, {r0, r2, r3, r7, sl}
 8000090:	0800048d 	stmdaeq	r0, {r0, r2, r3, r7, sl}
 8000094:	0800048d 	stmdaeq	r0, {r0, r2, r3, r7, sl}
 8000098:	0800048d 	stmdaeq	r0, {r0, r2, r3, r7, sl}
 800009c:	0800048d 	stmdaeq	r0, {r0, r2, r3, r7, sl}
 80000a0:	0800048d 	stmdaeq	r0, {r0, r2, r3, r7, sl}
 80000a4:	0800048d 	stmdaeq	r0, {r0, r2, r3, r7, sl}
 80000a8:	0800048d 	stmdaeq	r0, {r0, r2, r3, r7, sl}
 80000ac:	0800048d 	stmdaeq	r0, {r0, r2, r3, r7, sl}
 80000b0:	0800048d 	stmdaeq	r0, {r0, r2, r3, r7, sl}
 80000b4:	0800048d 	stmdaeq	r0, {r0, r2, r3, r7, sl}
 80000b8:	0800048d 	stmdaeq	r0, {r0, r2, r3, r7, sl}
 80000bc:	0800048d 	stmdaeq	r0, {r0, r2, r3, r7, sl}
 80000c0:	0800048d 	stmdaeq	r0, {r0, r2, r3, r7, sl}
 80000c4:	0800048d 	stmdaeq	r0, {r0, r2, r3, r7, sl}
 80000c8:	0800048d 	stmdaeq	r0, {r0, r2, r3, r7, sl}
 80000cc:	0800048d 	stmdaeq	r0, {r0, r2, r3, r7, sl}
 80000d0:	0800048d 	stmdaeq	r0, {r0, r2, r3, r7, sl}
 80000d4:	0800048d 	stmdaeq	r0, {r0, r2, r3, r7, sl}
 80000d8:	0800048d 	stmdaeq	r0, {r0, r2, r3, r7, sl}
 80000dc:	0800048d 	stmdaeq	r0, {r0, r2, r3, r7, sl}
 80000e0:	0800048d 	stmdaeq	r0, {r0, r2, r3, r7, sl}
 80000e4:	0800048d 	stmdaeq	r0, {r0, r2, r3, r7, sl}
 80000e8:	0800048d 	stmdaeq	r0, {r0, r2, r3, r7, sl}
 80000ec:	0800048d 	stmdaeq	r0, {r0, r2, r3, r7, sl}
 80000f0:	0800048d 	stmdaeq	r0, {r0, r2, r3, r7, sl}
 80000f4:	0800048d 	stmdaeq	r0, {r0, r2, r3, r7, sl}
 80000f8:	0800048d 	stmdaeq	r0, {r0, r2, r3, r7, sl}
 80000fc:	0800048d 	stmdaeq	r0, {r0, r2, r3, r7, sl}
 8000100:	0800048d 	stmdaeq	r0, {r0, r2, r3, r7, sl}
 8000104:	0800048d 	stmdaeq	r0, {r0, r2, r3, r7, sl}
 8000108:	0800048d 	stmdaeq	r0, {r0, r2, r3, r7, sl}
 800010c:	0800048d 	stmdaeq	r0, {r0, r2, r3, r7, sl}
 8000110:	0800048d 	stmdaeq	r0, {r0, r2, r3, r7, sl}
 8000114:	0800048d 	stmdaeq	r0, {r0, r2, r3, r7, sl}
 8000118:	0800048d 	stmdaeq	r0, {r0, r2, r3, r7, sl}
 800011c:	0800048d 	stmdaeq	r0, {r0, r2, r3, r7, sl}
 8000120:	0800048d 	stmdaeq	r0, {r0, r2, r3, r7, sl}
 8000124:	0800048d 	stmdaeq	r0, {r0, r2, r3, r7, sl}
 8000128:	0800048d 	stmdaeq	r0, {r0, r2, r3, r7, sl}
 800012c:	0800048d 	stmdaeq	r0, {r0, r2, r3, r7, sl}
 8000130:	0800048d 	stmdaeq	r0, {r0, r2, r3, r7, sl}
 8000134:	0800048d 	stmdaeq	r0, {r0, r2, r3, r7, sl}
 8000138:	0800048d 	stmdaeq	r0, {r0, r2, r3, r7, sl}
 800013c:	0800048d 	stmdaeq	r0, {r0, r2, r3, r7, sl}
 8000140:	0800048d 	stmdaeq	r0, {r0, r2, r3, r7, sl}
 8000144:	0800048d 	stmdaeq	r0, {r0, r2, r3, r7, sl}
 8000148:	0800048d 	stmdaeq	r0, {r0, r2, r3, r7, sl}
 800014c:	0800048d 	stmdaeq	r0, {r0, r2, r3, r7, sl}
 8000150:	0800048d 	stmdaeq	r0, {r0, r2, r3, r7, sl}
 8000154:	0800048d 	stmdaeq	r0, {r0, r2, r3, r7, sl}
 8000158:	0800048d 	stmdaeq	r0, {r0, r2, r3, r7, sl}
 800015c:	0800048d 	stmdaeq	r0, {r0, r2, r3, r7, sl}
 8000160:	0800048d 	stmdaeq	r0, {r0, r2, r3, r7, sl}
 8000164:	0800048d 	stmdaeq	r0, {r0, r2, r3, r7, sl}
 8000168:	0800048d 	stmdaeq	r0, {r0, r2, r3, r7, sl}
 800016c:	0800048d 	stmdaeq	r0, {r0, r2, r3, r7, sl}
 8000170:	0800048d 	stmdaeq	r0, {r0, r2, r3, r7, sl}
 8000174:	0800048d 	stmdaeq	r0, {r0, r2, r3, r7, sl}
 8000178:	0800048d 	stmdaeq	r0, {r0, r2, r3, r7, sl}
 800017c:	0800048d 	stmdaeq	r0, {r0, r2, r3, r7, sl}
 8000180:	0800048d 	stmdaeq	r0, {r0, r2, r3, r7, sl}
 8000184:	0800048d 	stmdaeq	r0, {r0, r2, r3, r7, sl}

Disassembly of section .text:

08000190 <__do_global_dtors_aux>:
 8000190:	b510      	push	{r4, lr}
 8000192:	4c05      	ldr	r4, [pc, #20]	; (80001a8 <__do_global_dtors_aux+0x18>)
 8000194:	7823      	ldrb	r3, [r4, #0]
 8000196:	b933      	cbnz	r3, 80001a6 <__do_global_dtors_aux+0x16>
 8000198:	4b04      	ldr	r3, [pc, #16]	; (80001ac <__do_global_dtors_aux+0x1c>)
 800019a:	b113      	cbz	r3, 80001a2 <__do_global_dtors_aux+0x12>
 800019c:	4804      	ldr	r0, [pc, #16]	; (80001b0 <__do_global_dtors_aux+0x20>)
 800019e:	f3af 8000 	nop.w
 80001a2:	2301      	movs	r3, #1
 80001a4:	7023      	strb	r3, [r4, #0]
 80001a6:	bd10      	pop	{r4, pc}
 80001a8:	20000064 	andcs	r0, r0, r4, rrx
 80001ac:	00000000 	andeq	r0, r0, r0
 80001b0:	080012ec 	stmdaeq	r0, {r2, r3, r5, r6, r7, r9, ip}

080001b4 <frame_dummy>:
 80001b4:	b508      	push	{r3, lr}
 80001b6:	4b03      	ldr	r3, [pc, #12]	; (80001c4 <frame_dummy+0x10>)
 80001b8:	b11b      	cbz	r3, 80001c2 <frame_dummy+0xe>
 80001ba:	4903      	ldr	r1, [pc, #12]	; (80001c8 <frame_dummy+0x14>)
 80001bc:	4803      	ldr	r0, [pc, #12]	; (80001cc <frame_dummy+0x18>)
 80001be:	f3af 8000 	nop.w
 80001c2:	bd08      	pop	{r3, pc}
 80001c4:	00000000 	andeq	r0, r0, r0
 80001c8:	20000068 	andcs	r0, r0, r8, rrx
 80001cc:	080012ec 	stmdaeq	r0, {r2, r3, r5, r6, r7, r9, ip}

080001d0 <memchr>:
 80001d0:	f001 01ff 	and.w	r1, r1, #255	; 0xff
 80001d4:	2a10      	cmp	r2, #16
 80001d6:	db2b      	blt.n	8000230 <memchr+0x60>
 80001d8:	f010 0f07 	tst.w	r0, #7
 80001dc:	d008      	beq.n	80001f0 <memchr+0x20>
 80001de:	f810 3b01 	ldrb.w	r3, [r0], #1
 80001e2:	3a01      	subs	r2, #1
 80001e4:	428b      	cmp	r3, r1
 80001e6:	d02d      	beq.n	8000244 <memchr+0x74>
 80001e8:	f010 0f07 	tst.w	r0, #7
 80001ec:	b342      	cbz	r2, 8000240 <memchr+0x70>
 80001ee:	d1f6      	bne.n	80001de <memchr+0xe>
 80001f0:	b4f0      	push	{r4, r5, r6, r7}
 80001f2:	ea41 2101 	orr.w	r1, r1, r1, lsl #8
 80001f6:	ea41 4101 	orr.w	r1, r1, r1, lsl #16
 80001fa:	f022 0407 	bic.w	r4, r2, #7
 80001fe:	f07f 0700 	mvns.w	r7, #0
 8000202:	2300      	movs	r3, #0
 8000204:	e8f0 5602 	ldrd	r5, r6, [r0], #8
 8000208:	3c08      	subs	r4, #8
 800020a:	ea85 0501 	eor.w	r5, r5, r1
 800020e:	ea86 0601 	eor.w	r6, r6, r1
 8000212:	fa85 f547 	uadd8	r5, r5, r7
 8000216:	faa3 f587 	sel	r5, r3, r7
 800021a:	fa86 f647 	uadd8	r6, r6, r7
 800021e:	faa5 f687 	sel	r6, r5, r7
 8000222:	b98e      	cbnz	r6, 8000248 <memchr+0x78>
 8000224:	d1ee      	bne.n	8000204 <memchr+0x34>
 8000226:	bcf0      	pop	{r4, r5, r6, r7}
 8000228:	f001 01ff 	and.w	r1, r1, #255	; 0xff
 800022c:	f002 0207 	and.w	r2, r2, #7
 8000230:	b132      	cbz	r2, 8000240 <memchr+0x70>
 8000232:	f810 3b01 	ldrb.w	r3, [r0], #1
 8000236:	3a01      	subs	r2, #1
 8000238:	ea83 0301 	eor.w	r3, r3, r1
 800023c:	b113      	cbz	r3, 8000244 <memchr+0x74>
 800023e:	d1f8      	bne.n	8000232 <memchr+0x62>
 8000240:	2000      	movs	r0, #0
 8000242:	4770      	bx	lr
 8000244:	3801      	subs	r0, #1
 8000246:	4770      	bx	lr
 8000248:	2d00      	cmp	r5, #0
 800024a:	bf06      	itte	eq
 800024c:	4635      	moveq	r5, r6
 800024e:	3803      	subeq	r0, #3
 8000250:	3807      	subne	r0, #7
 8000252:	f015 0f01 	tst.w	r5, #1
 8000256:	d107      	bne.n	8000268 <memchr+0x98>
 8000258:	3001      	adds	r0, #1
 800025a:	f415 7f80 	tst.w	r5, #256	; 0x100
 800025e:	bf02      	ittt	eq
 8000260:	3001      	addeq	r0, #1
 8000262:	f415 3fc0 	tsteq.w	r5, #98304	; 0x18000
 8000266:	3001      	addeq	r0, #1
 8000268:	bcf0      	pop	{r4, r5, r6, r7}
 800026a:	3801      	subs	r0, #1
 800026c:	4770      	bx	lr
 800026e:	bf00      	nop

08000270 <main>:
 8000270:	b580      	push	{r7, lr}
 8000272:	af00      	add	r7, sp, #0
 8000274:	4b07      	ldr	r3, [pc, #28]	; (8000294 <main+0x24>)
 8000276:	681a      	ldr	r2, [r3, #0]
 8000278:	4b07      	ldr	r3, [pc, #28]	; (8000298 <main+0x28>)
 800027a:	681b      	ldr	r3, [r3, #0]
 800027c:	4413      	add	r3, r2
 800027e:	4a07      	ldr	r2, [pc, #28]	; (800029c <main+0x2c>)
 8000280:	6013      	str	r3, [r2, #0]
 8000282:	4b06      	ldr	r3, [pc, #24]	; (800029c <main+0x2c>)
 8000284:	681b      	ldr	r3, [r3, #0]
 8000286:	4619      	mov	r1, r3
 8000288:	4805      	ldr	r0, [pc, #20]	; (80002a0 <main+0x30>)
 800028a:	f000 f9c3 	bl	8000614 <iprintf>
 800028e:	bf00      	nop
 8000290:	e7fd      	b.n	800028e <main+0x1e>
 8000292:	bf00      	nop
 8000294:	20000000 	andcs	r0, r0, r0
 8000298:	20000004 	andcs	r0, r0, r4
 800029c:	20000080 	andcs	r0, r0, r0, lsl #1
 80002a0:	08001304 	stmdaeq	r0, {r2, r8, r9, ip}

080002a4 <ITM_SendChar>:
 80002a4:	b480      	push	{r7}
 80002a6:	b083      	sub	sp, #12
 80002a8:	af00      	add	r7, sp, #0
 80002aa:	4603      	mov	r3, r0
 80002ac:	71fb      	strb	r3, [r7, #7]
 80002ae:	4b0f      	ldr	r3, [pc, #60]	; (80002ec <ITM_SendChar+0x48>)
 80002b0:	681b      	ldr	r3, [r3, #0]
 80002b2:	4a0e      	ldr	r2, [pc, #56]	; (80002ec <ITM_SendChar+0x48>)
 80002b4:	f043 7380 	orr.w	r3, r3, #16777216	; 0x1000000
 80002b8:	6013      	str	r3, [r2, #0]
 80002ba:	4b0d      	ldr	r3, [pc, #52]	; (80002f0 <ITM_SendChar+0x4c>)
 80002bc:	681b      	ldr	r3, [r3, #0]
 80002be:	4a0c      	ldr	r2, [pc, #48]	; (80002f0 <ITM_SendChar+0x4c>)
 80002c0:	f043 0301 	orr.w	r3, r3, #1
 80002c4:	6013      	str	r3, [r2, #0]
 80002c6:	bf00      	nop
 80002c8:	f04f 4360 	mov.w	r3, #3758096384	; 0xe0000000
 80002cc:	681b      	ldr	r3, [r3, #0]
 80002ce:	f003 0301 	and.w	r3, r3, #1
 80002d2:	2b00      	cmp	r3, #0
 80002d4:	d0f8      	beq.n	80002c8 <ITM_SendChar+0x24>
 80002d6:	f04f 4260 	mov.w	r2, #3758096384	; 0xe0000000
 80002da:	79fb      	ldrb	r3, [r7, #7]
 80002dc:	6013      	str	r3, [r2, #0]
 80002de:	bf00      	nop
 80002e0:	370c      	adds	r7, #12
 80002e2:	46bd      	mov	sp, r7
 80002e4:	f85d 7b04 	ldr.w	r7, [sp], #4
 80002e8:	4770      	bx	lr
 80002ea:	bf00      	nop
 80002ec:	e000edfc 	strd	lr, [r0], -ip
 80002f0:	e0000e00 	and	r0, r0, r0, lsl #28

080002f4 <_read>:
 80002f4:	b580      	push	{r7, lr}
 80002f6:	b086      	sub	sp, #24
 80002f8:	af00      	add	r7, sp, #0
 80002fa:	60f8      	str	r0, [r7, #12]
 80002fc:	60b9      	str	r1, [r7, #8]
 80002fe:	607a      	str	r2, [r7, #4]
 8000300:	2300      	movs	r3, #0
 8000302:	617b      	str	r3, [r7, #20]
 8000304:	e00a      	b.n	800031c <_read+0x28>
 8000306:	f3af 8000 	nop.w
 800030a:	4601      	mov	r1, r0
 800030c:	68bb      	ldr	r3, [r7, #8]
 800030e:	1c5a      	adds	r2, r3, #1
 8000310:	60ba      	str	r2, [r7, #8]
 8000312:	b2ca      	uxtb	r2, r1
 8000314:	701a      	strb	r2, [r3, #0]
 8000316:	697b      	ldr	r3, [r7, #20]
 8000318:	3301      	adds	r3, #1
 800031a:	617b      	str	r3, [r7, #20]
 800031c:	697a      	ldr	r2, [r7, #20]
 800031e:	687b      	ldr	r3, [r7, #4]
 8000320:	429a      	cmp	r2, r3
 8000322:	dbf0      	blt.n	8000306 <_read+0x12>
 8000324:	687b      	ldr	r3, [r7, #4]
 8000326:	4618      	mov	r0, r3
 8000328:	3718      	adds	r7, #24
 800032a:	46bd      	mov	sp, r7
 800032c:	bd80      	pop	{r7, pc}

0800032e <_write>:
 800032e:	b580      	push	{r7, lr}
 8000330:	b086      	sub	sp, #24
 8000332:	af00      	add	r7, sp, #0
 8000334:	60f8      	str	r0, [r7, #12]
 8000336:	60b9      	str	r1, [r7, #8]
 8000338:	607a      	str	r2, [r7, #4]
 800033a:	2300      	movs	r3, #0
 800033c:	617b      	str	r3, [r7, #20]
 800033e:	e009      	b.n	8000354 <_write+0x26>
 8000340:	68bb      	ldr	r3, [r7, #8]
 8000342:	1c5a      	adds	r2, r3, #1
 8000344:	60ba      	str	r2, [r7, #8]
 8000346:	781b      	ldrb	r3, [r3, #0]
 8000348:	4618      	mov	r0, r3
 800034a:	f7ff ffab 	bl	80002a4 <ITM_SendChar>
 800034e:	697b      	ldr	r3, [r7, #20]
 8000350:	3301      	adds	r3, #1
 8000352:	617b      	str	r3, [r7, #20]
 8000354:	697a      	ldr	r2, [r7, #20]
 8000356:	687b      	ldr	r3, [r7, #4]
 8000358:	429a      	cmp	r2, r3
 800035a:	dbf1      	blt.n	8000340 <_write+0x12>
 800035c:	687b      	ldr	r3, [r7, #4]
 800035e:	4618      	mov	r0, r3
 8000360:	3718      	adds	r7, #24
 8000362:	46bd      	mov	sp, r7
 8000364:	bd80      	pop	{r7, pc}

08000366 <_close>:
 8000366:	b480      	push	{r7}
 8000368:	b083      	sub	sp, #12
 800036a:	af00      	add	r7, sp, #0
 800036c:	6078      	str	r0, [r7, #4]
 800036e:	f04f 33ff 	mov.w	r3, #4294967295	; 0xffffffff
 8000372:	4618      	mov	r0, r3
 8000374:	370c      	adds	r7, #12
 8000376:	46bd      	mov	sp, r7
 8000378:	f85d 7b04 	ldr.w	r7, [sp], #4
 800037c:	4770      	bx	lr

0800037e <_fstat>:
 800037e:	b480      	push	{r7}
 8000380:	b083      	sub	sp, #12
 8000382:	af00      	add	r7, sp, #0
 8000384:	6078      	str	r0, [r7, #4]
 8000386:	6039      	str	r1, [r7, #0]
 8000388:	683b      	ldr	r3, [r7, #0]
 800038a:	f44f 5200 	mov.w	r2, #8192	; 0x2000
 800038e:	605a      	str	r2, [r3, #4]
 8000390:	2300      	movs	r3, #0
 8000392:	4618      	mov	r0, r3
 8000394:	370c      	adds	r7, #12
 8000396:	46bd      	mov	sp, r7
 8000398:	f85d 7b04 	ldr.w	r7, [sp], #4
 800039c:	4770      	bx	lr

0800039e <_isatty>:
 800039e:	b480      	push	{r7}
 80003a0:	b083      	sub	sp, #12
 80003a2:	af00      	add	r7, sp, #0
 80003a4:	6078      	str	r0, [r7, #4]
 80003a6:	2301      	movs	r3, #1
 80003a8:	4618      	mov	r0, r3
 80003aa:	370c      	adds	r7, #12
 80003ac:	46bd      	mov	sp, r7
 80003ae:	f85d 7b04 	ldr.w	r7, [sp], #4
 80003b2:	4770      	bx	lr

080003b4 <_lseek>:
 80003b4:	b480      	push	{r7}
 80003b6:	b085      	sub	sp, #20
 80003b8:	af00      	add	r7, sp, #0
 80003ba:	60f8      	str	r0, [r7, #12]
 80003bc:	60b9      	str	r1, [r7, #8]
 80003be:	607a      	str	r2, [r7, #4]
 80003c0:	2300      	movs	r3, #0
 80003c2:	4618      	mov	r0, r3
 80003c4:	3714      	adds	r7, #20
 80003c6:	46bd      	mov	sp, r7
 80003c8:	f85d 7b04 	ldr.w	r7, [sp], #4
 80003cc:	4770      	bx	lr
	...

080003d0 <_sbrk>:
 80003d0:	b580      	push	{r7, lr}
 80003d2:	b086      	sub	sp, #24
 80003d4:	af00      	add	r7, sp, #0
 80003d6:	6078      	str	r0, [r7, #4]
 80003d8:	4a14      	ldr	r2, [pc, #80]	; (800042c <_sbrk+0x5c>)
 80003da:	4b15      	ldr	r3, [pc, #84]	; (8000430 <_sbrk+0x60>)
 80003dc:	1ad3      	subs	r3, r2, r3
 80003de:	617b      	str	r3, [r7, #20]
 80003e0:	697b      	ldr	r3, [r7, #20]
 80003e2:	613b      	str	r3, [r7, #16]
 80003e4:	4b13      	ldr	r3, [pc, #76]	; (8000434 <_sbrk+0x64>)
 80003e6:	681b      	ldr	r3, [r3, #0]
 80003e8:	2b00      	cmp	r3, #0
 80003ea:	d102      	bne.n	80003f2 <_sbrk+0x22>
 80003ec:	4b11      	ldr	r3, [pc, #68]	; (8000434 <_sbrk+0x64>)
 80003ee:	4a12      	ldr	r2, [pc, #72]	; (8000438 <_sbrk+0x68>)
 80003f0:	601a      	str	r2, [r3, #0]
 80003f2:	4b10      	ldr	r3, [pc, #64]	; (8000434 <_sbrk+0x64>)
 80003f4:	681a      	ldr	r2, [r3, #0]
 80003f6:	687b      	ldr	r3, [r7, #4]
 80003f8:	4413      	add	r3, r2
 80003fa:	693a      	ldr	r2, [r7, #16]
 80003fc:	429a      	cmp	r2, r3
 80003fe:	d207      	bcs.n	8000410 <_sbrk+0x40>
 8000400:	f000 f9ac 	bl	800075c <__errno>
 8000404:	4603      	mov	r3, r0
 8000406:	220c      	movs	r2, #12
 8000408:	601a      	str	r2, [r3, #0]
 800040a:	f04f 33ff 	mov.w	r3, #4294967295	; 0xffffffff
 800040e:	e009      	b.n	8000424 <_sbrk+0x54>
 8000410:	4b08      	ldr	r3, [pc, #32]	; (8000434 <_sbrk+0x64>)
 8000412:	681b      	ldr	r3, [r3, #0]
 8000414:	60fb      	str	r3, [r7, #12]
 8000416:	4b07      	ldr	r3, [pc, #28]	; (8000434 <_sbrk+0x64>)
 8000418:	681a      	ldr	r2, [r3, #0]
 800041a:	687b      	ldr	r3, [r7, #4]
 800041c:	4413      	add	r3, r2
 800041e:	4a05      	ldr	r2, [pc, #20]	; (8000434 <_sbrk+0x64>)
 8000420:	6013      	str	r3, [r2, #0]
 8000422:	68fb      	ldr	r3, [r7, #12]
 8000424:	4618      	mov	r0, r3
 8000426:	3718      	adds	r7, #24
 8000428:	46bd      	mov	sp, r7
 800042a:	bd80      	pop	{r7, pc}
 800042c:	20020000 	andcs	r0, r2, r0
 8000430:	00000400 	andeq	r0, r0, r0, lsl #8
 8000434:	20000084 	andcs	r0, r0, r4, lsl #1
 8000438:	200001d8 	ldrdcs	r0, [r0], -r8

0800043c <Reset_Handler>:
 800043c:	480d      	ldr	r0, [pc, #52]	; (8000474 <LoopForever+0x2>)
 800043e:	4685      	mov	sp, r0
 8000440:	f3af 8000 	nop.w
 8000444:	480c      	ldr	r0, [pc, #48]	; (8000478 <LoopForever+0x6>)
 8000446:	490d      	ldr	r1, [pc, #52]	; (800047c <LoopForever+0xa>)
 8000448:	4a0d      	ldr	r2, [pc, #52]	; (8000480 <LoopForever+0xe>)
 800044a:	2300      	movs	r3, #0
 800044c:	e002      	b.n	8000454 <LoopCopyDataInit>

0800044e <CopyDataInit>:
 800044e:	58d4      	ldr	r4, [r2, r3]
 8000450:	50c4      	str	r4, [r0, r3]
 8000452:	3304      	adds	r3, #4

08000454 <LoopCopyDataInit>:
 8000454:	18c4      	adds	r4, r0, r3
 8000456:	428c      	cmp	r4, r1
 8000458:	d3f9      	bcc.n	800044e <CopyDataInit>
 800045a:	4a0a      	ldr	r2, [pc, #40]	; (8000484 <LoopForever+0x12>)
 800045c:	4c0a      	ldr	r4, [pc, #40]	; (8000488 <LoopForever+0x16>)
 800045e:	2300      	movs	r3, #0
 8000460:	e001      	b.n	8000466 <LoopFillZerobss>

08000462 <FillZerobss>:
 8000462:	6013      	str	r3, [r2, #0]
 8000464:	3204      	adds	r2, #4

08000466 <LoopFillZerobss>:
 8000466:	42a2      	cmp	r2, r4
 8000468:	d3fb      	bcc.n	8000462 <FillZerobss>
 800046a:	f000 f97d 	bl	8000768 <__libc_init_array>
 800046e:	f7ff feff 	bl	8000270 <main>

08000472 <LoopForever>:
 8000472:	e7fe      	b.n	8000472 <LoopForever>
 8000474:	20020000 	andcs	r0, r2, r0
 8000478:	20000000 	andcs	r0, r0, r0
 800047c:	20000064 	andcs	r0, r0, r4, rrx
 8000480:	08001354 	stmdaeq	r0, {r2, r4, r6, r8, r9, ip}
 8000484:	20000064 	andcs	r0, r0, r4, rrx
 8000488:	200001d4 	ldrdcs	r0, [r0], -r4

0800048c <ADC_IRQHandler>:
 800048c:	e7fe      	b.n	800048c <ADC_IRQHandler>
	...

08000490 <std>:
 8000490:	2300      	movs	r3, #0
 8000492:	b510      	push	{r4, lr}
 8000494:	4604      	mov	r4, r0
 8000496:	e9c0 3300 	strd	r3, r3, [r0]
 800049a:	e9c0 3304 	strd	r3, r3, [r0, #16]
 800049e:	6083      	str	r3, [r0, #8]
 80004a0:	8181      	strh	r1, [r0, #12]
 80004a2:	6643      	str	r3, [r0, #100]	; 0x64
 80004a4:	81c2      	strh	r2, [r0, #14]
 80004a6:	6183      	str	r3, [r0, #24]
 80004a8:	4619      	mov	r1, r3
 80004aa:	2208      	movs	r2, #8
 80004ac:	305c      	adds	r0, #92	; 0x5c
 80004ae:	f000 f906 	bl	80006be <memset>
 80004b2:	4b0d      	ldr	r3, [pc, #52]	; (80004e8 <std+0x58>)
 80004b4:	6263      	str	r3, [r4, #36]	; 0x24
 80004b6:	4b0d      	ldr	r3, [pc, #52]	; (80004ec <std+0x5c>)
 80004b8:	62a3      	str	r3, [r4, #40]	; 0x28
 80004ba:	4b0d      	ldr	r3, [pc, #52]	; (80004f0 <std+0x60>)
 80004bc:	62e3      	str	r3, [r4, #44]	; 0x2c
 80004be:	4b0d      	ldr	r3, [pc, #52]	; (80004f4 <std+0x64>)
 80004c0:	6323      	str	r3, [r4, #48]	; 0x30
 80004c2:	4b0d      	ldr	r3, [pc, #52]	; (80004f8 <std+0x68>)
 80004c4:	6224      	str	r4, [r4, #32]
 80004c6:	429c      	cmp	r4, r3
 80004c8:	d006      	beq.n	80004d8 <std+0x48>
 80004ca:	f103 0268 	add.w	r2, r3, #104	; 0x68
 80004ce:	4294      	cmp	r4, r2
 80004d0:	d002      	beq.n	80004d8 <std+0x48>
 80004d2:	33d0      	adds	r3, #208	; 0xd0
 80004d4:	429c      	cmp	r4, r3
 80004d6:	d105      	bne.n	80004e4 <std+0x54>
 80004d8:	f104 0058 	add.w	r0, r4, #88	; 0x58
 80004dc:	e8bd 4010 	ldmia.w	sp!, {r4, lr}
 80004e0:	f000 b966 	b.w	80007b0 <__retarget_lock_init_recursive>
 80004e4:	bd10      	pop	{r4, pc}
 80004e6:	bf00      	nop
 80004e8:	08000639 	stmdaeq	r0, {r0, r3, r4, r5, r9, sl}
 80004ec:	0800065b 	stmdaeq	r0, {r0, r1, r3, r4, r6, r9, sl}
 80004f0:	08000693 	stmdaeq	r0, {r0, r1, r4, r7, r9, sl}
 80004f4:	080006b7 	stmdaeq	r0, {r0, r1, r2, r4, r5, r7, r9, sl}
 80004f8:	20000088 	andcs	r0, r0, r8, lsl #1

080004fc <stdio_exit_handler>:
 80004fc:	4a02      	ldr	r2, [pc, #8]	; (8000508 <stdio_exit_handler+0xc>)
 80004fe:	4903      	ldr	r1, [pc, #12]	; (800050c <stdio_exit_handler+0x10>)
 8000500:	4803      	ldr	r0, [pc, #12]	; (8000510 <stdio_exit_handler+0x14>)
 8000502:	f000 b869 	b.w	80005d8 <_fwalk_sglue>
 8000506:	bf00      	nop
 8000508:	20000008 	andcs	r0, r0, r8
 800050c:	0800104d 	stmdaeq	r0, {r0, r2, r3, r6, ip}
 8000510:	20000018 	andcs	r0, r0, r8, lsl r0

08000514 <cleanup_stdio>:
 8000514:	6841      	ldr	r1, [r0, #4]
 8000516:	4b0c      	ldr	r3, [pc, #48]	; (8000548 <cleanup_stdio+0x34>)
 8000518:	4299      	cmp	r1, r3
 800051a:	b510      	push	{r4, lr}
 800051c:	4604      	mov	r4, r0
 800051e:	d001      	beq.n	8000524 <cleanup_stdio+0x10>
 8000520:	f000 fd94 	bl	800104c <_fflush_r>
 8000524:	68a1      	ldr	r1, [r4, #8]
 8000526:	4b09      	ldr	r3, [pc, #36]	; (800054c <cleanup_stdio+0x38>)
 8000528:	4299      	cmp	r1, r3
 800052a:	d002      	beq.n	8000532 <cleanup_stdio+0x1e>
 800052c:	4620      	mov	r0, r4
 800052e:	f000 fd8d 	bl	800104c <_fflush_r>
 8000532:	68e1      	ldr	r1, [r4, #12]
 8000534:	4b06      	ldr	r3, [pc, #24]	; (8000550 <cleanup_stdio+0x3c>)
 8000536:	4299      	cmp	r1, r3
 8000538:	d004      	beq.n	8000544 <cleanup_stdio+0x30>
 800053a:	4620      	mov	r0, r4
 800053c:	e8bd 4010 	ldmia.w	sp!, {r4, lr}
 8000540:	f000 bd84 	b.w	800104c <_fflush_r>
 8000544:	bd10      	pop	{r4, pc}
 8000546:	bf00      	nop
 8000548:	20000088 	andcs	r0, r0, r8, lsl #1
 800054c:	200000f0 	strdcs	r0, [r0], -r0	; <UNPREDICTABLE>
 8000550:	20000158 	andcs	r0, r0, r8, asr r1

08000554 <global_stdio_init.part.0>:
 8000554:	b510      	push	{r4, lr}
 8000556:	4b0b      	ldr	r3, [pc, #44]	; (8000584 <global_stdio_init.part.0+0x30>)
 8000558:	4c0b      	ldr	r4, [pc, #44]	; (8000588 <global_stdio_init.part.0+0x34>)
 800055a:	4a0c      	ldr	r2, [pc, #48]	; (800058c <global_stdio_init.part.0+0x38>)
 800055c:	601a      	str	r2, [r3, #0]
 800055e:	4620      	mov	r0, r4
 8000560:	2200      	movs	r2, #0
 8000562:	2104      	movs	r1, #4
 8000564:	f7ff ff94 	bl	8000490 <std>
 8000568:	f104 0068 	add.w	r0, r4, #104	; 0x68
 800056c:	2201      	movs	r2, #1
 800056e:	2109      	movs	r1, #9
 8000570:	f7ff ff8e 	bl	8000490 <std>
 8000574:	f104 00d0 	add.w	r0, r4, #208	; 0xd0
 8000578:	2202      	movs	r2, #2
 800057a:	e8bd 4010 	ldmia.w	sp!, {r4, lr}
 800057e:	2112      	movs	r1, #18
 8000580:	f7ff bf86 	b.w	8000490 <std>
 8000584:	200001c0 	andcs	r0, r0, r0, asr #3
 8000588:	20000088 	andcs	r0, r0, r8, lsl #1
 800058c:	080004fd 	stmdaeq	r0, {r0, r2, r3, r4, r5, r6, r7, sl}

08000590 <__sfp_lock_acquire>:
 8000590:	4801      	ldr	r0, [pc, #4]	; (8000598 <__sfp_lock_acquire+0x8>)
 8000592:	f000 b90e 	b.w	80007b2 <__retarget_lock_acquire_recursive>
 8000596:	bf00      	nop
 8000598:	200001c9 	andcs	r0, r0, r9, asr #3

0800059c <__sfp_lock_release>:
 800059c:	4801      	ldr	r0, [pc, #4]	; (80005a4 <__sfp_lock_release+0x8>)
 800059e:	f000 b909 	b.w	80007b4 <__retarget_lock_release_recursive>
 80005a2:	bf00      	nop
 80005a4:	200001c9 	andcs	r0, r0, r9, asr #3

080005a8 <__sinit>:
 80005a8:	b510      	push	{r4, lr}
 80005aa:	4604      	mov	r4, r0
 80005ac:	f7ff fff0 	bl	8000590 <__sfp_lock_acquire>
 80005b0:	6a23      	ldr	r3, [r4, #32]
 80005b2:	b11b      	cbz	r3, 80005bc <__sinit+0x14>
 80005b4:	e8bd 4010 	ldmia.w	sp!, {r4, lr}
 80005b8:	f7ff bff0 	b.w	800059c <__sfp_lock_release>
 80005bc:	4b04      	ldr	r3, [pc, #16]	; (80005d0 <__sinit+0x28>)
 80005be:	6223      	str	r3, [r4, #32]
 80005c0:	4b04      	ldr	r3, [pc, #16]	; (80005d4 <__sinit+0x2c>)
 80005c2:	681b      	ldr	r3, [r3, #0]
 80005c4:	2b00      	cmp	r3, #0
 80005c6:	d1f5      	bne.n	80005b4 <__sinit+0xc>
 80005c8:	f7ff ffc4 	bl	8000554 <global_stdio_init.part.0>
 80005cc:	e7f2      	b.n	80005b4 <__sinit+0xc>
 80005ce:	bf00      	nop
 80005d0:	08000515 	stmdaeq	r0, {r0, r2, r4, r8, sl}
 80005d4:	200001c0 	andcs	r0, r0, r0, asr #3

080005d8 <_fwalk_sglue>:
 80005d8:	e92d 43f8 	stmdb	sp!, {r3, r4, r5, r6, r7, r8, r9, lr}
 80005dc:	4607      	mov	r7, r0
 80005de:	4688      	mov	r8, r1
 80005e0:	4614      	mov	r4, r2
 80005e2:	2600      	movs	r6, #0
 80005e4:	e9d4 9501 	ldrd	r9, r5, [r4, #4]
 80005e8:	f1b9 0901 	subs.w	r9, r9, #1
 80005ec:	d505      	bpl.n	80005fa <_fwalk_sglue+0x22>
 80005ee:	6824      	ldr	r4, [r4, #0]
 80005f0:	2c00      	cmp	r4, #0
 80005f2:	d1f7      	bne.n	80005e4 <_fwalk_sglue+0xc>
 80005f4:	4630      	mov	r0, r6
 80005f6:	e8bd 83f8 	ldmia.w	sp!, {r3, r4, r5, r6, r7, r8, r9, pc}
 80005fa:	89ab      	ldrh	r3, [r5, #12]
 80005fc:	2b01      	cmp	r3, #1
 80005fe:	d907      	bls.n	8000610 <_fwalk_sglue+0x38>
 8000600:	f9b5 300e 	ldrsh.w	r3, [r5, #14]
 8000604:	3301      	adds	r3, #1
 8000606:	d003      	beq.n	8000610 <_fwalk_sglue+0x38>
 8000608:	4629      	mov	r1, r5
 800060a:	4638      	mov	r0, r7
 800060c:	47c0      	blx	r8
 800060e:	4306      	orrs	r6, r0
 8000610:	3568      	adds	r5, #104	; 0x68
 8000612:	e7e9      	b.n	80005e8 <_fwalk_sglue+0x10>

08000614 <iprintf>:
 8000614:	b40f      	push	{r0, r1, r2, r3}
 8000616:	b507      	push	{r0, r1, r2, lr}
 8000618:	4906      	ldr	r1, [pc, #24]	; (8000634 <iprintf+0x20>)
 800061a:	ab04      	add	r3, sp, #16
 800061c:	6808      	ldr	r0, [r1, #0]
 800061e:	f853 2b04 	ldr.w	r2, [r3], #4
 8000622:	6881      	ldr	r1, [r0, #8]
 8000624:	9301      	str	r3, [sp, #4]
 8000626:	f000 f9e9 	bl	80009fc <_vfiprintf_r>
 800062a:	b003      	add	sp, #12
 800062c:	f85d eb04 	ldr.w	lr, [sp], #4
 8000630:	b004      	add	sp, #16
 8000632:	4770      	bx	lr
 8000634:	20000014 	andcs	r0, r0, r4, lsl r0

08000638 <__sread>:
 8000638:	b510      	push	{r4, lr}
 800063a:	460c      	mov	r4, r1
 800063c:	f9b1 100e 	ldrsh.w	r1, [r1, #14]
 8000640:	f000 f868 	bl	8000714 <_read_r>
 8000644:	2800      	cmp	r0, #0
 8000646:	bfab      	itete	ge
 8000648:	6d63      	ldrge	r3, [r4, #84]	; 0x54
 800064a:	89a3      	ldrhlt	r3, [r4, #12]
 800064c:	181b      	addge	r3, r3, r0
 800064e:	f423 5380 	biclt.w	r3, r3, #4096	; 0x1000
 8000652:	bfac      	ite	ge
 8000654:	6563      	strge	r3, [r4, #84]	; 0x54
 8000656:	81a3      	strhlt	r3, [r4, #12]
 8000658:	bd10      	pop	{r4, pc}

0800065a <__swrite>:
 800065a:	e92d 41f0 	stmdb	sp!, {r4, r5, r6, r7, r8, lr}
 800065e:	461f      	mov	r7, r3
 8000660:	898b      	ldrh	r3, [r1, #12]
 8000662:	05db      	lsls	r3, r3, #23
 8000664:	4605      	mov	r5, r0
 8000666:	460c      	mov	r4, r1
 8000668:	4616      	mov	r6, r2
 800066a:	d505      	bpl.n	8000678 <__swrite+0x1e>
 800066c:	f9b1 100e 	ldrsh.w	r1, [r1, #14]
 8000670:	2302      	movs	r3, #2
 8000672:	2200      	movs	r2, #0
 8000674:	f000 f83c 	bl	80006f0 <_lseek_r>
 8000678:	89a3      	ldrh	r3, [r4, #12]
 800067a:	f9b4 100e 	ldrsh.w	r1, [r4, #14]
 800067e:	f423 5380 	bic.w	r3, r3, #4096	; 0x1000
 8000682:	81a3      	strh	r3, [r4, #12]
 8000684:	4632      	mov	r2, r6
 8000686:	463b      	mov	r3, r7
 8000688:	4628      	mov	r0, r5
 800068a:	e8bd 41f0 	ldmia.w	sp!, {r4, r5, r6, r7, r8, lr}
 800068e:	f000 b853 	b.w	8000738 <_write_r>

08000692 <__sseek>:
 8000692:	b510      	push	{r4, lr}
 8000694:	460c      	mov	r4, r1
 8000696:	f9b1 100e 	ldrsh.w	r1, [r1, #14]
 800069a:	f000 f829 	bl	80006f0 <_lseek_r>
 800069e:	1c43      	adds	r3, r0, #1
 80006a0:	89a3      	ldrh	r3, [r4, #12]
 80006a2:	bf15      	itete	ne
 80006a4:	6560      	strne	r0, [r4, #84]	; 0x54
 80006a6:	f423 5380 	biceq.w	r3, r3, #4096	; 0x1000
 80006aa:	f443 5380 	orrne.w	r3, r3, #4096	; 0x1000
 80006ae:	81a3      	strheq	r3, [r4, #12]
 80006b0:	bf18      	it	ne
 80006b2:	81a3      	strhne	r3, [r4, #12]
 80006b4:	bd10      	pop	{r4, pc}

080006b6 <__sclose>:
 80006b6:	f9b1 100e 	ldrsh.w	r1, [r1, #14]
 80006ba:	f000 b809 	b.w	80006d0 <_close_r>

080006be <memset>:
 80006be:	4402      	add	r2, r0
 80006c0:	4603      	mov	r3, r0
 80006c2:	4293      	cmp	r3, r2
 80006c4:	d100      	bne.n	80006c8 <memset+0xa>
 80006c6:	4770      	bx	lr
 80006c8:	f803 1b01 	strb.w	r1, [r3], #1
 80006cc:	e7f9      	b.n	80006c2 <memset+0x4>
	...

080006d0 <_close_r>:
 80006d0:	b538      	push	{r3, r4, r5, lr}
 80006d2:	4d06      	ldr	r5, [pc, #24]	; (80006ec <_close_r+0x1c>)
 80006d4:	2300      	movs	r3, #0
 80006d6:	4604      	mov	r4, r0
 80006d8:	4608      	mov	r0, r1
 80006da:	602b      	str	r3, [r5, #0]
 80006dc:	f7ff fe43 	bl	8000366 <_close>
 80006e0:	1c43      	adds	r3, r0, #1
 80006e2:	d102      	bne.n	80006ea <_close_r+0x1a>
 80006e4:	682b      	ldr	r3, [r5, #0]
 80006e6:	b103      	cbz	r3, 80006ea <_close_r+0x1a>
 80006e8:	6023      	str	r3, [r4, #0]
 80006ea:	bd38      	pop	{r3, r4, r5, pc}
 80006ec:	200001c4 	andcs	r0, r0, r4, asr #3

080006f0 <_lseek_r>:
 80006f0:	b538      	push	{r3, r4, r5, lr}
 80006f2:	4d07      	ldr	r5, [pc, #28]	; (8000710 <_lseek_r+0x20>)
 80006f4:	4604      	mov	r4, r0
 80006f6:	4608      	mov	r0, r1
 80006f8:	4611      	mov	r1, r2
 80006fa:	2200      	movs	r2, #0
 80006fc:	602a      	str	r2, [r5, #0]
 80006fe:	461a      	mov	r2, r3
 8000700:	f7ff fe58 	bl	80003b4 <_lseek>
 8000704:	1c43      	adds	r3, r0, #1
 8000706:	d102      	bne.n	800070e <_lseek_r+0x1e>
 8000708:	682b      	ldr	r3, [r5, #0]
 800070a:	b103      	cbz	r3, 800070e <_lseek_r+0x1e>
 800070c:	6023      	str	r3, [r4, #0]
 800070e:	bd38      	pop	{r3, r4, r5, pc}
 8000710:	200001c4 	andcs	r0, r0, r4, asr #3

08000714 <_read_r>:
 8000714:	b538      	push	{r3, r4, r5, lr}
 8000716:	4d07      	ldr	r5, [pc, #28]	; (8000734 <_read_r+0x20>)
 8000718:	4604      	mov	r4, r0
 800071a:	4608      	mov	r0, r1
 800071c:	4611      	mov	r1, r2
 800071e:	2200      	movs	r2, #0
 8000720:	602a      	str	r2, [r5, #0]
 8000722:	461a      	mov	r2, r3
 8000724:	f7ff fde6 	bl	80002f4 <_read>
 8000728:	1c43      	adds	r3, r0, #1
 800072a:	d102      	bne.n	8000732 <_read_r+0x1e>
 800072c:	682b      	ldr	r3, [r5, #0]
 800072e:	b103      	cbz	r3, 8000732 <_read_r+0x1e>
 8000730:	6023      	str	r3, [r4, #0]
 8000732:	bd38      	pop	{r3, r4, r5, pc}
 8000734:	200001c4 	andcs	r0, r0, r4, asr #3

08000738 <_write_r>:
 8000738:	b538      	push	{r3, r4, r5, lr}
 800073a:	4d07      	ldr	r5, [pc, #28]	; (8000758 <_write_r+0x20>)
 800073c:	4604      	mov	r4, r0
 800073e:	4608      	mov	r0, r1
 8000740:	4611      	mov	r1, r2
 8000742:	2200      	movs	r2, #0
 8000744:	602a      	str	r2, [r5, #0]
 8000746:	461a      	mov	r2, r3
 8000748:	f7ff fdf1 	bl	800032e <_write>
 800074c:	1c43      	adds	r3, r0, #1
 800074e:	d102      	bne.n	8000756 <_write_r+0x1e>
 8000750:	682b      	ldr	r3, [r5, #0]
 8000752:	b103      	cbz	r3, 8000756 <_write_r+0x1e>
 8000754:	6023      	str	r3, [r4, #0]
 8000756:	bd38      	pop	{r3, r4, r5, pc}
 8000758:	200001c4 	andcs	r0, r0, r4, asr #3

0800075c <__errno>:
 800075c:	4b01      	ldr	r3, [pc, #4]	; (8000764 <__errno+0x8>)
 800075e:	6818      	ldr	r0, [r3, #0]
 8000760:	4770      	bx	lr
 8000762:	bf00      	nop
 8000764:	20000014 	andcs	r0, r0, r4, lsl r0

08000768 <__libc_init_array>:
 8000768:	b570      	push	{r4, r5, r6, lr}
 800076a:	4d0d      	ldr	r5, [pc, #52]	; (80007a0 <__libc_init_array+0x38>)
 800076c:	4c0d      	ldr	r4, [pc, #52]	; (80007a4 <__libc_init_array+0x3c>)
 800076e:	1b64      	subs	r4, r4, r5
 8000770:	10a4      	asrs	r4, r4, #2
 8000772:	2600      	movs	r6, #0
 8000774:	42a6      	cmp	r6, r4
 8000776:	d109      	bne.n	800078c <__libc_init_array+0x24>
 8000778:	4d0b      	ldr	r5, [pc, #44]	; (80007a8 <__libc_init_array+0x40>)
 800077a:	4c0c      	ldr	r4, [pc, #48]	; (80007ac <__libc_init_array+0x44>)
 800077c:	f000 fdb6 	bl	80012ec <_init>
 8000780:	1b64      	subs	r4, r4, r5
 8000782:	10a4      	asrs	r4, r4, #2
 8000784:	2600      	movs	r6, #0
 8000786:	42a6      	cmp	r6, r4
 8000788:	d105      	bne.n	8000796 <__libc_init_array+0x2e>
 800078a:	bd70      	pop	{r4, r5, r6, pc}
 800078c:	f855 3b04 	ldr.w	r3, [r5], #4
 8000790:	4798      	blx	r3
 8000792:	3601      	adds	r6, #1
 8000794:	e7ee      	b.n	8000774 <__libc_init_array+0xc>
 8000796:	f855 3b04 	ldr.w	r3, [r5], #4
 800079a:	4798      	blx	r3
 800079c:	3601      	adds	r6, #1
 800079e:	e7f2      	b.n	8000786 <__libc_init_array+0x1e>
 80007a0:	0800134c 	stmdaeq	r0, {r2, r3, r6, r8, r9, ip}
 80007a4:	0800134c 	stmdaeq	r0, {r2, r3, r6, r8, r9, ip}
 80007a8:	0800134c 	stmdaeq	r0, {r2, r3, r6, r8, r9, ip}
 80007ac:	08001350 	stmdaeq	r0, {r4, r6, r8, r9, ip}

080007b0 <__retarget_lock_init_recursive>:
 80007b0:	4770      	bx	lr

080007b2 <__retarget_lock_acquire_recursive>:
 80007b2:	4770      	bx	lr

080007b4 <__retarget_lock_release_recursive>:
 80007b4:	4770      	bx	lr
	...

080007b8 <_free_r>:
 80007b8:	b538      	push	{r3, r4, r5, lr}
 80007ba:	4605      	mov	r5, r0
 80007bc:	2900      	cmp	r1, #0
 80007be:	d041      	beq.n	8000844 <_free_r+0x8c>
 80007c0:	f851 3c04 	ldr.w	r3, [r1, #-4]
 80007c4:	1f0c      	subs	r4, r1, #4
 80007c6:	2b00      	cmp	r3, #0
 80007c8:	bfb8      	it	lt
 80007ca:	18e4      	addlt	r4, r4, r3
 80007cc:	f000 f8e0 	bl	8000990 <__malloc_lock>
 80007d0:	4a1d      	ldr	r2, [pc, #116]	; (8000848 <_free_r+0x90>)
 80007d2:	6813      	ldr	r3, [r2, #0]
 80007d4:	b933      	cbnz	r3, 80007e4 <_free_r+0x2c>
 80007d6:	6063      	str	r3, [r4, #4]
 80007d8:	6014      	str	r4, [r2, #0]
 80007da:	4628      	mov	r0, r5
 80007dc:	e8bd 4038 	ldmia.w	sp!, {r3, r4, r5, lr}
 80007e0:	f000 b8dc 	b.w	800099c <__malloc_unlock>
 80007e4:	42a3      	cmp	r3, r4
 80007e6:	d908      	bls.n	80007fa <_free_r+0x42>
 80007e8:	6820      	ldr	r0, [r4, #0]
 80007ea:	1821      	adds	r1, r4, r0
 80007ec:	428b      	cmp	r3, r1
 80007ee:	bf01      	itttt	eq
 80007f0:	6819      	ldreq	r1, [r3, #0]
 80007f2:	685b      	ldreq	r3, [r3, #4]
 80007f4:	1809      	addeq	r1, r1, r0
 80007f6:	6021      	streq	r1, [r4, #0]
 80007f8:	e7ed      	b.n	80007d6 <_free_r+0x1e>
 80007fa:	461a      	mov	r2, r3
 80007fc:	685b      	ldr	r3, [r3, #4]
 80007fe:	b10b      	cbz	r3, 8000804 <_free_r+0x4c>
 8000800:	42a3      	cmp	r3, r4
 8000802:	d9fa      	bls.n	80007fa <_free_r+0x42>
 8000804:	6811      	ldr	r1, [r2, #0]
 8000806:	1850      	adds	r0, r2, r1
 8000808:	42a0      	cmp	r0, r4
 800080a:	d10b      	bne.n	8000824 <_free_r+0x6c>
 800080c:	6820      	ldr	r0, [r4, #0]
 800080e:	4401      	add	r1, r0
 8000810:	1850      	adds	r0, r2, r1
 8000812:	4283      	cmp	r3, r0
 8000814:	6011      	str	r1, [r2, #0]
 8000816:	d1e0      	bne.n	80007da <_free_r+0x22>
 8000818:	6818      	ldr	r0, [r3, #0]
 800081a:	685b      	ldr	r3, [r3, #4]
 800081c:	6053      	str	r3, [r2, #4]
 800081e:	4408      	add	r0, r1
 8000820:	6010      	str	r0, [r2, #0]
 8000822:	e7da      	b.n	80007da <_free_r+0x22>
 8000824:	d902      	bls.n	800082c <_free_r+0x74>
 8000826:	230c      	movs	r3, #12
 8000828:	602b      	str	r3, [r5, #0]
 800082a:	e7d6      	b.n	80007da <_free_r+0x22>
 800082c:	6820      	ldr	r0, [r4, #0]
 800082e:	1821      	adds	r1, r4, r0
 8000830:	428b      	cmp	r3, r1
 8000832:	bf04      	itt	eq
 8000834:	6819      	ldreq	r1, [r3, #0]
 8000836:	685b      	ldreq	r3, [r3, #4]
 8000838:	6063      	str	r3, [r4, #4]
 800083a:	bf04      	itt	eq
 800083c:	1809      	addeq	r1, r1, r0
 800083e:	6021      	streq	r1, [r4, #0]
 8000840:	6054      	str	r4, [r2, #4]
 8000842:	e7ca      	b.n	80007da <_free_r+0x22>
 8000844:	bd38      	pop	{r3, r4, r5, pc}
 8000846:	bf00      	nop
 8000848:	200001d0 	ldrdcs	r0, [r0], -r0	; <UNPREDICTABLE>

0800084c <sbrk_aligned>:
 800084c:	b570      	push	{r4, r5, r6, lr}
 800084e:	4e0f      	ldr	r6, [pc, #60]	; (800088c <sbrk_aligned+0x40>)
 8000850:	460c      	mov	r4, r1
 8000852:	6831      	ldr	r1, [r6, #0]
 8000854:	4605      	mov	r5, r0
 8000856:	b911      	cbnz	r1, 800085e <sbrk_aligned+0x12>
 8000858:	f000 fcb4 	bl	80011c4 <_sbrk_r>
 800085c:	6030      	str	r0, [r6, #0]
 800085e:	4621      	mov	r1, r4
 8000860:	4628      	mov	r0, r5
 8000862:	f000 fcaf 	bl	80011c4 <_sbrk_r>
 8000866:	1c43      	adds	r3, r0, #1
 8000868:	d103      	bne.n	8000872 <sbrk_aligned+0x26>
 800086a:	f04f 34ff 	mov.w	r4, #4294967295	; 0xffffffff
 800086e:	4620      	mov	r0, r4
 8000870:	bd70      	pop	{r4, r5, r6, pc}
 8000872:	1cc4      	adds	r4, r0, #3
 8000874:	f024 0403 	bic.w	r4, r4, #3
 8000878:	42a0      	cmp	r0, r4
 800087a:	d0f8      	beq.n	800086e <sbrk_aligned+0x22>
 800087c:	1a21      	subs	r1, r4, r0
 800087e:	4628      	mov	r0, r5
 8000880:	f000 fca0 	bl	80011c4 <_sbrk_r>
 8000884:	3001      	adds	r0, #1
 8000886:	d1f2      	bne.n	800086e <sbrk_aligned+0x22>
 8000888:	e7ef      	b.n	800086a <sbrk_aligned+0x1e>
 800088a:	bf00      	nop
 800088c:	200001cc 	andcs	r0, r0, ip, asr #3

08000890 <_malloc_r>:
 8000890:	e92d 43f8 	stmdb	sp!, {r3, r4, r5, r6, r7, r8, r9, lr}
 8000894:	1ccd      	adds	r5, r1, #3
 8000896:	f025 0503 	bic.w	r5, r5, #3
 800089a:	3508      	adds	r5, #8
 800089c:	2d0c      	cmp	r5, #12
 800089e:	bf38      	it	cc
 80008a0:	250c      	movcc	r5, #12
 80008a2:	2d00      	cmp	r5, #0
 80008a4:	4606      	mov	r6, r0
 80008a6:	db01      	blt.n	80008ac <_malloc_r+0x1c>
 80008a8:	42a9      	cmp	r1, r5
 80008aa:	d904      	bls.n	80008b6 <_malloc_r+0x26>
 80008ac:	230c      	movs	r3, #12
 80008ae:	6033      	str	r3, [r6, #0]
 80008b0:	2000      	movs	r0, #0
 80008b2:	e8bd 83f8 	ldmia.w	sp!, {r3, r4, r5, r6, r7, r8, r9, pc}
 80008b6:	f8df 80d4 	ldr.w	r8, [pc, #212]	; 800098c <_malloc_r+0xfc>
 80008ba:	f000 f869 	bl	8000990 <__malloc_lock>
 80008be:	f8d8 3000 	ldr.w	r3, [r8]
 80008c2:	461c      	mov	r4, r3
 80008c4:	bb44      	cbnz	r4, 8000918 <_malloc_r+0x88>
 80008c6:	4629      	mov	r1, r5
 80008c8:	4630      	mov	r0, r6
 80008ca:	f7ff ffbf 	bl	800084c <sbrk_aligned>
 80008ce:	1c43      	adds	r3, r0, #1
 80008d0:	4604      	mov	r4, r0
 80008d2:	d158      	bne.n	8000986 <_malloc_r+0xf6>
 80008d4:	f8d8 4000 	ldr.w	r4, [r8]
 80008d8:	4627      	mov	r7, r4
 80008da:	2f00      	cmp	r7, #0
 80008dc:	d143      	bne.n	8000966 <_malloc_r+0xd6>
 80008de:	2c00      	cmp	r4, #0
 80008e0:	d04b      	beq.n	800097a <_malloc_r+0xea>
 80008e2:	6823      	ldr	r3, [r4, #0]
 80008e4:	4639      	mov	r1, r7
 80008e6:	4630      	mov	r0, r6
 80008e8:	eb04 0903 	add.w	r9, r4, r3
 80008ec:	f000 fc6a 	bl	80011c4 <_sbrk_r>
 80008f0:	4581      	cmp	r9, r0
 80008f2:	d142      	bne.n	800097a <_malloc_r+0xea>
 80008f4:	6821      	ldr	r1, [r4, #0]
 80008f6:	1a6d      	subs	r5, r5, r1
 80008f8:	4629      	mov	r1, r5
 80008fa:	4630      	mov	r0, r6
 80008fc:	f7ff ffa6 	bl	800084c <sbrk_aligned>
 8000900:	3001      	adds	r0, #1
 8000902:	d03a      	beq.n	800097a <_malloc_r+0xea>
 8000904:	6823      	ldr	r3, [r4, #0]
 8000906:	442b      	add	r3, r5
 8000908:	6023      	str	r3, [r4, #0]
 800090a:	f8d8 3000 	ldr.w	r3, [r8]
 800090e:	685a      	ldr	r2, [r3, #4]
 8000910:	bb62      	cbnz	r2, 800096c <_malloc_r+0xdc>
 8000912:	f8c8 7000 	str.w	r7, [r8]
 8000916:	e00f      	b.n	8000938 <_malloc_r+0xa8>
 8000918:	6822      	ldr	r2, [r4, #0]
 800091a:	1b52      	subs	r2, r2, r5
 800091c:	d420      	bmi.n	8000960 <_malloc_r+0xd0>
 800091e:	2a0b      	cmp	r2, #11
 8000920:	d917      	bls.n	8000952 <_malloc_r+0xc2>
 8000922:	1961      	adds	r1, r4, r5
 8000924:	42a3      	cmp	r3, r4
 8000926:	6025      	str	r5, [r4, #0]
 8000928:	bf18      	it	ne
 800092a:	6059      	strne	r1, [r3, #4]
 800092c:	6863      	ldr	r3, [r4, #4]
 800092e:	bf08      	it	eq
 8000930:	f8c8 1000 	streq.w	r1, [r8]
 8000934:	5162      	str	r2, [r4, r5]
 8000936:	604b      	str	r3, [r1, #4]
 8000938:	4630      	mov	r0, r6
 800093a:	f000 f82f 	bl	800099c <__malloc_unlock>
 800093e:	f104 000b 	add.w	r0, r4, #11
 8000942:	1d23      	adds	r3, r4, #4
 8000944:	f020 0007 	bic.w	r0, r0, #7
 8000948:	1ac2      	subs	r2, r0, r3
 800094a:	bf1c      	itt	ne
 800094c:	1a1b      	subne	r3, r3, r0
 800094e:	50a3      	strne	r3, [r4, r2]
 8000950:	e7af      	b.n	80008b2 <_malloc_r+0x22>
 8000952:	6862      	ldr	r2, [r4, #4]
 8000954:	42a3      	cmp	r3, r4
 8000956:	bf0c      	ite	eq
 8000958:	f8c8 2000 	streq.w	r2, [r8]
 800095c:	605a      	strne	r2, [r3, #4]
 800095e:	e7eb      	b.n	8000938 <_malloc_r+0xa8>
 8000960:	4623      	mov	r3, r4
 8000962:	6864      	ldr	r4, [r4, #4]
 8000964:	e7ae      	b.n	80008c4 <_malloc_r+0x34>
 8000966:	463c      	mov	r4, r7
 8000968:	687f      	ldr	r7, [r7, #4]
 800096a:	e7b6      	b.n	80008da <_malloc_r+0x4a>
 800096c:	461a      	mov	r2, r3
 800096e:	685b      	ldr	r3, [r3, #4]
 8000970:	42a3      	cmp	r3, r4
 8000972:	d1fb      	bne.n	800096c <_malloc_r+0xdc>
 8000974:	2300      	movs	r3, #0
 8000976:	6053      	str	r3, [r2, #4]
 8000978:	e7de      	b.n	8000938 <_malloc_r+0xa8>
 800097a:	230c      	movs	r3, #12
 800097c:	6033      	str	r3, [r6, #0]
 800097e:	4630      	mov	r0, r6
 8000980:	f000 f80c 	bl	800099c <__malloc_unlock>
 8000984:	e794      	b.n	80008b0 <_malloc_r+0x20>
 8000986:	6005      	str	r5, [r0, #0]
 8000988:	e7d6      	b.n	8000938 <_malloc_r+0xa8>
 800098a:	bf00      	nop
 800098c:	200001d0 	ldrdcs	r0, [r0], -r0	; <UNPREDICTABLE>

08000990 <__malloc_lock>:
 8000990:	4801      	ldr	r0, [pc, #4]	; (8000998 <__malloc_lock+0x8>)
 8000992:	f7ff bf0e 	b.w	80007b2 <__retarget_lock_acquire_recursive>
 8000996:	bf00      	nop
 8000998:	200001c8 	andcs	r0, r0, r8, asr #3

0800099c <__malloc_unlock>:
 800099c:	4801      	ldr	r0, [pc, #4]	; (80009a4 <__malloc_unlock+0x8>)
 800099e:	f7ff bf09 	b.w	80007b4 <__retarget_lock_release_recursive>
 80009a2:	bf00      	nop
 80009a4:	200001c8 	andcs	r0, r0, r8, asr #3

080009a8 <__sfputc_r>:
 80009a8:	6893      	ldr	r3, [r2, #8]
 80009aa:	3b01      	subs	r3, #1
 80009ac:	2b00      	cmp	r3, #0
 80009ae:	b410      	push	{r4}
 80009b0:	6093      	str	r3, [r2, #8]
 80009b2:	da08      	bge.n	80009c6 <__sfputc_r+0x1e>
 80009b4:	6994      	ldr	r4, [r2, #24]
 80009b6:	42a3      	cmp	r3, r4
 80009b8:	db01      	blt.n	80009be <__sfputc_r+0x16>
 80009ba:	290a      	cmp	r1, #10
 80009bc:	d103      	bne.n	80009c6 <__sfputc_r+0x1e>
 80009be:	f85d 4b04 	ldr.w	r4, [sp], #4
 80009c2:	f000 bb6b 	b.w	800109c <__swbuf_r>
 80009c6:	6813      	ldr	r3, [r2, #0]
 80009c8:	1c58      	adds	r0, r3, #1
 80009ca:	6010      	str	r0, [r2, #0]
 80009cc:	7019      	strb	r1, [r3, #0]
 80009ce:	4608      	mov	r0, r1
 80009d0:	f85d 4b04 	ldr.w	r4, [sp], #4
 80009d4:	4770      	bx	lr

080009d6 <__sfputs_r>:
 80009d6:	b5f8      	push	{r3, r4, r5, r6, r7, lr}
 80009d8:	4606      	mov	r6, r0
 80009da:	460f      	mov	r7, r1
 80009dc:	4614      	mov	r4, r2
 80009de:	18d5      	adds	r5, r2, r3
 80009e0:	42ac      	cmp	r4, r5
 80009e2:	d101      	bne.n	80009e8 <__sfputs_r+0x12>
 80009e4:	2000      	movs	r0, #0
 80009e6:	e007      	b.n	80009f8 <__sfputs_r+0x22>
 80009e8:	f814 1b01 	ldrb.w	r1, [r4], #1
 80009ec:	463a      	mov	r2, r7
 80009ee:	4630      	mov	r0, r6
 80009f0:	f7ff ffda 	bl	80009a8 <__sfputc_r>
 80009f4:	1c43      	adds	r3, r0, #1
 80009f6:	d1f3      	bne.n	80009e0 <__sfputs_r+0xa>
 80009f8:	bdf8      	pop	{r3, r4, r5, r6, r7, pc}
	...

080009fc <_vfiprintf_r>:
 80009fc:	e92d 4ff0 	stmdb	sp!, {r4, r5, r6, r7, r8, r9, sl, fp, lr}
 8000a00:	460d      	mov	r5, r1
 8000a02:	b09d      	sub	sp, #116	; 0x74
 8000a04:	4614      	mov	r4, r2
 8000a06:	4698      	mov	r8, r3
 8000a08:	4606      	mov	r6, r0
 8000a0a:	b118      	cbz	r0, 8000a14 <_vfiprintf_r+0x18>
 8000a0c:	6a03      	ldr	r3, [r0, #32]
 8000a0e:	b90b      	cbnz	r3, 8000a14 <_vfiprintf_r+0x18>
 8000a10:	f7ff fdca 	bl	80005a8 <__sinit>
 8000a14:	6e6b      	ldr	r3, [r5, #100]	; 0x64
 8000a16:	07d9      	lsls	r1, r3, #31
 8000a18:	d405      	bmi.n	8000a26 <_vfiprintf_r+0x2a>
 8000a1a:	89ab      	ldrh	r3, [r5, #12]
 8000a1c:	059a      	lsls	r2, r3, #22
 8000a1e:	d402      	bmi.n	8000a26 <_vfiprintf_r+0x2a>
 8000a20:	6da8      	ldr	r0, [r5, #88]	; 0x58
 8000a22:	f7ff fec6 	bl	80007b2 <__retarget_lock_acquire_recursive>
 8000a26:	89ab      	ldrh	r3, [r5, #12]
 8000a28:	071b      	lsls	r3, r3, #28
 8000a2a:	d501      	bpl.n	8000a30 <_vfiprintf_r+0x34>
 8000a2c:	692b      	ldr	r3, [r5, #16]
 8000a2e:	b99b      	cbnz	r3, 8000a58 <_vfiprintf_r+0x5c>
 8000a30:	4629      	mov	r1, r5
 8000a32:	4630      	mov	r0, r6
 8000a34:	f000 fb70 	bl	8001118 <__swsetup_r>
 8000a38:	b170      	cbz	r0, 8000a58 <_vfiprintf_r+0x5c>
 8000a3a:	6e6b      	ldr	r3, [r5, #100]	; 0x64
 8000a3c:	07dc      	lsls	r4, r3, #31
 8000a3e:	d504      	bpl.n	8000a4a <_vfiprintf_r+0x4e>
 8000a40:	f04f 30ff 	mov.w	r0, #4294967295	; 0xffffffff
 8000a44:	b01d      	add	sp, #116	; 0x74
 8000a46:	e8bd 8ff0 	ldmia.w	sp!, {r4, r5, r6, r7, r8, r9, sl, fp, pc}
 8000a4a:	89ab      	ldrh	r3, [r5, #12]
 8000a4c:	0598      	lsls	r0, r3, #22
 8000a4e:	d4f7      	bmi.n	8000a40 <_vfiprintf_r+0x44>
 8000a50:	6da8      	ldr	r0, [r5, #88]	; 0x58
 8000a52:	f7ff feaf 	bl	80007b4 <__retarget_lock_release_recursive>
 8000a56:	e7f3      	b.n	8000a40 <_vfiprintf_r+0x44>
 8000a58:	2300      	movs	r3, #0
 8000a5a:	9309      	str	r3, [sp, #36]	; 0x24
 8000a5c:	2320      	movs	r3, #32
 8000a5e:	f88d 3029 	strb.w	r3, [sp, #41]	; 0x29
 8000a62:	f8cd 800c 	str.w	r8, [sp, #12]
 8000a66:	2330      	movs	r3, #48	; 0x30
 8000a68:	f8df 81ac 	ldr.w	r8, [pc, #428]	; 8000c18 <_vfiprintf_r+0x21c>
 8000a6c:	f88d 302a 	strb.w	r3, [sp, #42]	; 0x2a
 8000a70:	f04f 0901 	mov.w	r9, #1
 8000a74:	4623      	mov	r3, r4
 8000a76:	469a      	mov	sl, r3
 8000a78:	f813 2b01 	ldrb.w	r2, [r3], #1
 8000a7c:	b10a      	cbz	r2, 8000a82 <_vfiprintf_r+0x86>
 8000a7e:	2a25      	cmp	r2, #37	; 0x25
 8000a80:	d1f9      	bne.n	8000a76 <_vfiprintf_r+0x7a>
 8000a82:	ebba 0b04 	subs.w	fp, sl, r4
 8000a86:	d00b      	beq.n	8000aa0 <_vfiprintf_r+0xa4>
 8000a88:	465b      	mov	r3, fp
 8000a8a:	4622      	mov	r2, r4
 8000a8c:	4629      	mov	r1, r5
 8000a8e:	4630      	mov	r0, r6
 8000a90:	f7ff ffa1 	bl	80009d6 <__sfputs_r>
 8000a94:	3001      	adds	r0, #1
 8000a96:	f000 80a7 	beq.w	8000be8 <_vfiprintf_r+0x1ec>
 8000a9a:	9a09      	ldr	r2, [sp, #36]	; 0x24
 8000a9c:	445a      	add	r2, fp
 8000a9e:	9209      	str	r2, [sp, #36]	; 0x24
 8000aa0:	f89a 3000 	ldrb.w	r3, [sl]
 8000aa4:	2b00      	cmp	r3, #0
 8000aa6:	f000 809f 	beq.w	8000be8 <_vfiprintf_r+0x1ec>
 8000aaa:	2300      	movs	r3, #0
 8000aac:	f04f 32ff 	mov.w	r2, #4294967295	; 0xffffffff
 8000ab0:	e9cd 2305 	strd	r2, r3, [sp, #20]
 8000ab4:	f10a 0a01 	add.w	sl, sl, #1
 8000ab8:	9304      	str	r3, [sp, #16]
 8000aba:	9307      	str	r3, [sp, #28]
 8000abc:	f88d 3053 	strb.w	r3, [sp, #83]	; 0x53
 8000ac0:	931a      	str	r3, [sp, #104]	; 0x68
 8000ac2:	4654      	mov	r4, sl
 8000ac4:	2205      	movs	r2, #5
 8000ac6:	f814 1b01 	ldrb.w	r1, [r4], #1
 8000aca:	4853      	ldr	r0, [pc, #332]	; (8000c18 <_vfiprintf_r+0x21c>)
 8000acc:	f7ff fb80 	bl	80001d0 <memchr>
 8000ad0:	9a04      	ldr	r2, [sp, #16]
 8000ad2:	b9d8      	cbnz	r0, 8000b0c <_vfiprintf_r+0x110>
 8000ad4:	06d1      	lsls	r1, r2, #27
 8000ad6:	bf44      	itt	mi
 8000ad8:	2320      	movmi	r3, #32
 8000ada:	f88d 3053 	strbmi.w	r3, [sp, #83]	; 0x53
 8000ade:	0713      	lsls	r3, r2, #28
 8000ae0:	bf44      	itt	mi
 8000ae2:	232b      	movmi	r3, #43	; 0x2b
 8000ae4:	f88d 3053 	strbmi.w	r3, [sp, #83]	; 0x53
 8000ae8:	f89a 3000 	ldrb.w	r3, [sl]
 8000aec:	2b2a      	cmp	r3, #42	; 0x2a
 8000aee:	d015      	beq.n	8000b1c <_vfiprintf_r+0x120>
 8000af0:	9a07      	ldr	r2, [sp, #28]
 8000af2:	4654      	mov	r4, sl
 8000af4:	2000      	movs	r0, #0
 8000af6:	f04f 0c0a 	mov.w	ip, #10
 8000afa:	4621      	mov	r1, r4
 8000afc:	f811 3b01 	ldrb.w	r3, [r1], #1
 8000b00:	3b30      	subs	r3, #48	; 0x30
 8000b02:	2b09      	cmp	r3, #9
 8000b04:	d94b      	bls.n	8000b9e <_vfiprintf_r+0x1a2>
 8000b06:	b1b0      	cbz	r0, 8000b36 <_vfiprintf_r+0x13a>
 8000b08:	9207      	str	r2, [sp, #28]
 8000b0a:	e014      	b.n	8000b36 <_vfiprintf_r+0x13a>
 8000b0c:	eba0 0308 	sub.w	r3, r0, r8
 8000b10:	fa09 f303 	lsl.w	r3, r9, r3
 8000b14:	4313      	orrs	r3, r2
 8000b16:	9304      	str	r3, [sp, #16]
 8000b18:	46a2      	mov	sl, r4
 8000b1a:	e7d2      	b.n	8000ac2 <_vfiprintf_r+0xc6>
 8000b1c:	9b03      	ldr	r3, [sp, #12]
 8000b1e:	1d19      	adds	r1, r3, #4
 8000b20:	681b      	ldr	r3, [r3, #0]
 8000b22:	9103      	str	r1, [sp, #12]
 8000b24:	2b00      	cmp	r3, #0
 8000b26:	bfbb      	ittet	lt
 8000b28:	425b      	neglt	r3, r3
 8000b2a:	f042 0202 	orrlt.w	r2, r2, #2
 8000b2e:	9307      	strge	r3, [sp, #28]
 8000b30:	9307      	strlt	r3, [sp, #28]
 8000b32:	bfb8      	it	lt
 8000b34:	9204      	strlt	r2, [sp, #16]
 8000b36:	7823      	ldrb	r3, [r4, #0]
 8000b38:	2b2e      	cmp	r3, #46	; 0x2e
 8000b3a:	d10a      	bne.n	8000b52 <_vfiprintf_r+0x156>
 8000b3c:	7863      	ldrb	r3, [r4, #1]
 8000b3e:	2b2a      	cmp	r3, #42	; 0x2a
 8000b40:	d132      	bne.n	8000ba8 <_vfiprintf_r+0x1ac>
 8000b42:	9b03      	ldr	r3, [sp, #12]
 8000b44:	1d1a      	adds	r2, r3, #4
 8000b46:	681b      	ldr	r3, [r3, #0]
 8000b48:	9203      	str	r2, [sp, #12]
 8000b4a:	ea43 73e3 	orr.w	r3, r3, r3, asr #31
 8000b4e:	3402      	adds	r4, #2
 8000b50:	9305      	str	r3, [sp, #20]
 8000b52:	f8df a0d4 	ldr.w	sl, [pc, #212]	; 8000c28 <_vfiprintf_r+0x22c>
 8000b56:	7821      	ldrb	r1, [r4, #0]
 8000b58:	2203      	movs	r2, #3
 8000b5a:	4650      	mov	r0, sl
 8000b5c:	f7ff fb38 	bl	80001d0 <memchr>
 8000b60:	b138      	cbz	r0, 8000b72 <_vfiprintf_r+0x176>
 8000b62:	9b04      	ldr	r3, [sp, #16]
 8000b64:	eba0 000a 	sub.w	r0, r0, sl
 8000b68:	2240      	movs	r2, #64	; 0x40
 8000b6a:	4082      	lsls	r2, r0
 8000b6c:	4313      	orrs	r3, r2
 8000b6e:	3401      	adds	r4, #1
 8000b70:	9304      	str	r3, [sp, #16]
 8000b72:	f814 1b01 	ldrb.w	r1, [r4], #1
 8000b76:	4829      	ldr	r0, [pc, #164]	; (8000c1c <_vfiprintf_r+0x220>)
 8000b78:	f88d 1028 	strb.w	r1, [sp, #40]	; 0x28
 8000b7c:	2206      	movs	r2, #6
 8000b7e:	f7ff fb27 	bl	80001d0 <memchr>
 8000b82:	2800      	cmp	r0, #0
 8000b84:	d03f      	beq.n	8000c06 <_vfiprintf_r+0x20a>
 8000b86:	4b26      	ldr	r3, [pc, #152]	; (8000c20 <_vfiprintf_r+0x224>)
 8000b88:	bb1b      	cbnz	r3, 8000bd2 <_vfiprintf_r+0x1d6>
 8000b8a:	9b03      	ldr	r3, [sp, #12]
 8000b8c:	3307      	adds	r3, #7
 8000b8e:	f023 0307 	bic.w	r3, r3, #7
 8000b92:	3308      	adds	r3, #8
 8000b94:	9303      	str	r3, [sp, #12]
 8000b96:	9b09      	ldr	r3, [sp, #36]	; 0x24
 8000b98:	443b      	add	r3, r7
 8000b9a:	9309      	str	r3, [sp, #36]	; 0x24
 8000b9c:	e76a      	b.n	8000a74 <_vfiprintf_r+0x78>
 8000b9e:	fb0c 3202 	mla	r2, ip, r2, r3
 8000ba2:	460c      	mov	r4, r1
 8000ba4:	2001      	movs	r0, #1
 8000ba6:	e7a8      	b.n	8000afa <_vfiprintf_r+0xfe>
 8000ba8:	2300      	movs	r3, #0
 8000baa:	3401      	adds	r4, #1
 8000bac:	9305      	str	r3, [sp, #20]
 8000bae:	4619      	mov	r1, r3
 8000bb0:	f04f 0c0a 	mov.w	ip, #10
 8000bb4:	4620      	mov	r0, r4
 8000bb6:	f810 2b01 	ldrb.w	r2, [r0], #1
 8000bba:	3a30      	subs	r2, #48	; 0x30
 8000bbc:	2a09      	cmp	r2, #9
 8000bbe:	d903      	bls.n	8000bc8 <_vfiprintf_r+0x1cc>
 8000bc0:	2b00      	cmp	r3, #0
 8000bc2:	d0c6      	beq.n	8000b52 <_vfiprintf_r+0x156>
 8000bc4:	9105      	str	r1, [sp, #20]
 8000bc6:	e7c4      	b.n	8000b52 <_vfiprintf_r+0x156>
 8000bc8:	fb0c 2101 	mla	r1, ip, r1, r2
 8000bcc:	4604      	mov	r4, r0
 8000bce:	2301      	movs	r3, #1
 8000bd0:	e7f0      	b.n	8000bb4 <_vfiprintf_r+0x1b8>
 8000bd2:	ab03      	add	r3, sp, #12
 8000bd4:	9300      	str	r3, [sp, #0]
 8000bd6:	462a      	mov	r2, r5
 8000bd8:	4b12      	ldr	r3, [pc, #72]	; (8000c24 <_vfiprintf_r+0x228>)
 8000bda:	a904      	add	r1, sp, #16
 8000bdc:	4630      	mov	r0, r6
 8000bde:	f3af 8000 	nop.w
 8000be2:	4607      	mov	r7, r0
 8000be4:	1c78      	adds	r0, r7, #1
 8000be6:	d1d6      	bne.n	8000b96 <_vfiprintf_r+0x19a>
 8000be8:	6e6b      	ldr	r3, [r5, #100]	; 0x64
 8000bea:	07d9      	lsls	r1, r3, #31
 8000bec:	d405      	bmi.n	8000bfa <_vfiprintf_r+0x1fe>
 8000bee:	89ab      	ldrh	r3, [r5, #12]
 8000bf0:	059a      	lsls	r2, r3, #22
 8000bf2:	d402      	bmi.n	8000bfa <_vfiprintf_r+0x1fe>
 8000bf4:	6da8      	ldr	r0, [r5, #88]	; 0x58
 8000bf6:	f7ff fddd 	bl	80007b4 <__retarget_lock_release_recursive>
 8000bfa:	89ab      	ldrh	r3, [r5, #12]
 8000bfc:	065b      	lsls	r3, r3, #25
 8000bfe:	f53f af1f 	bmi.w	8000a40 <_vfiprintf_r+0x44>
 8000c02:	9809      	ldr	r0, [sp, #36]	; 0x24
 8000c04:	e71e      	b.n	8000a44 <_vfiprintf_r+0x48>
 8000c06:	ab03      	add	r3, sp, #12
 8000c08:	9300      	str	r3, [sp, #0]
 8000c0a:	462a      	mov	r2, r5
 8000c0c:	4b05      	ldr	r3, [pc, #20]	; (8000c24 <_vfiprintf_r+0x228>)
 8000c0e:	a904      	add	r1, sp, #16
 8000c10:	4630      	mov	r0, r6
 8000c12:	f000 f879 	bl	8000d08 <_printf_i>
 8000c16:	e7e4      	b.n	8000be2 <_vfiprintf_r+0x1e6>
 8000c18:	08001311 	stmdaeq	r0, {r0, r4, r8, r9, ip}
 8000c1c:	0800131b 	stmdaeq	r0, {r0, r1, r3, r4, r8, r9, ip}
 8000c20:	00000000 	andeq	r0, r0, r0
 8000c24:	080009d7 	stmdaeq	r0, {r0, r1, r2, r4, r6, r7, r8, fp}
 8000c28:	08001317 	stmdaeq	r0, {r0, r1, r2, r4, r8, r9, ip}

08000c2c <_printf_common>:
 8000c2c:	e92d 47f0 	stmdb	sp!, {r4, r5, r6, r7, r8, r9, sl, lr}
 8000c30:	4616      	mov	r6, r2
 8000c32:	4698      	mov	r8, r3
 8000c34:	688a      	ldr	r2, [r1, #8]
 8000c36:	690b      	ldr	r3, [r1, #16]
 8000c38:	f8dd 9020 	ldr.w	r9, [sp, #32]
 8000c3c:	4293      	cmp	r3, r2
 8000c3e:	bfb8      	it	lt
 8000c40:	4613      	movlt	r3, r2
 8000c42:	6033      	str	r3, [r6, #0]
 8000c44:	f891 2043 	ldrb.w	r2, [r1, #67]	; 0x43
 8000c48:	4607      	mov	r7, r0
 8000c4a:	460c      	mov	r4, r1
 8000c4c:	b10a      	cbz	r2, 8000c52 <_printf_common+0x26>
 8000c4e:	3301      	adds	r3, #1
 8000c50:	6033      	str	r3, [r6, #0]
 8000c52:	6823      	ldr	r3, [r4, #0]
 8000c54:	0699      	lsls	r1, r3, #26
 8000c56:	bf42      	ittt	mi
 8000c58:	6833      	ldrmi	r3, [r6, #0]
 8000c5a:	3302      	addmi	r3, #2
 8000c5c:	6033      	strmi	r3, [r6, #0]
 8000c5e:	6825      	ldr	r5, [r4, #0]
 8000c60:	f015 0506 	ands.w	r5, r5, #6
 8000c64:	d106      	bne.n	8000c74 <_printf_common+0x48>
 8000c66:	f104 0a19 	add.w	sl, r4, #25
 8000c6a:	68e3      	ldr	r3, [r4, #12]
 8000c6c:	6832      	ldr	r2, [r6, #0]
 8000c6e:	1a9b      	subs	r3, r3, r2
 8000c70:	42ab      	cmp	r3, r5
 8000c72:	dc26      	bgt.n	8000cc2 <_printf_common+0x96>
 8000c74:	f894 3043 	ldrb.w	r3, [r4, #67]	; 0x43
 8000c78:	6822      	ldr	r2, [r4, #0]
 8000c7a:	3b00      	subs	r3, #0
 8000c7c:	bf18      	it	ne
 8000c7e:	2301      	movne	r3, #1
 8000c80:	0692      	lsls	r2, r2, #26
 8000c82:	d42b      	bmi.n	8000cdc <_printf_common+0xb0>
 8000c84:	f104 0243 	add.w	r2, r4, #67	; 0x43
 8000c88:	4641      	mov	r1, r8
 8000c8a:	4638      	mov	r0, r7
 8000c8c:	47c8      	blx	r9
 8000c8e:	3001      	adds	r0, #1
 8000c90:	d01e      	beq.n	8000cd0 <_printf_common+0xa4>
 8000c92:	6823      	ldr	r3, [r4, #0]
 8000c94:	6922      	ldr	r2, [r4, #16]
 8000c96:	f003 0306 	and.w	r3, r3, #6
 8000c9a:	2b04      	cmp	r3, #4
 8000c9c:	bf02      	ittt	eq
 8000c9e:	68e5      	ldreq	r5, [r4, #12]
 8000ca0:	6833      	ldreq	r3, [r6, #0]
 8000ca2:	1aed      	subeq	r5, r5, r3
 8000ca4:	68a3      	ldr	r3, [r4, #8]
 8000ca6:	bf0c      	ite	eq
 8000ca8:	ea25 75e5 	biceq.w	r5, r5, r5, asr #31
 8000cac:	2500      	movne	r5, #0
 8000cae:	4293      	cmp	r3, r2
 8000cb0:	bfc4      	itt	gt
 8000cb2:	1a9b      	subgt	r3, r3, r2
 8000cb4:	18ed      	addgt	r5, r5, r3
 8000cb6:	2600      	movs	r6, #0
 8000cb8:	341a      	adds	r4, #26
 8000cba:	42b5      	cmp	r5, r6
 8000cbc:	d11a      	bne.n	8000cf4 <_printf_common+0xc8>
 8000cbe:	2000      	movs	r0, #0
 8000cc0:	e008      	b.n	8000cd4 <_printf_common+0xa8>
 8000cc2:	2301      	movs	r3, #1
 8000cc4:	4652      	mov	r2, sl
 8000cc6:	4641      	mov	r1, r8
 8000cc8:	4638      	mov	r0, r7
 8000cca:	47c8      	blx	r9
 8000ccc:	3001      	adds	r0, #1
 8000cce:	d103      	bne.n	8000cd8 <_printf_common+0xac>
 8000cd0:	f04f 30ff 	mov.w	r0, #4294967295	; 0xffffffff
 8000cd4:	e8bd 87f0 	ldmia.w	sp!, {r4, r5, r6, r7, r8, r9, sl, pc}
 8000cd8:	3501      	adds	r5, #1
 8000cda:	e7c6      	b.n	8000c6a <_printf_common+0x3e>
 8000cdc:	18e1      	adds	r1, r4, r3
 8000cde:	1c5a      	adds	r2, r3, #1
 8000ce0:	2030      	movs	r0, #48	; 0x30
 8000ce2:	f881 0043 	strb.w	r0, [r1, #67]	; 0x43
 8000ce6:	4422      	add	r2, r4
 8000ce8:	f894 1045 	ldrb.w	r1, [r4, #69]	; 0x45
 8000cec:	f882 1043 	strb.w	r1, [r2, #67]	; 0x43
 8000cf0:	3302      	adds	r3, #2
 8000cf2:	e7c7      	b.n	8000c84 <_printf_common+0x58>
 8000cf4:	2301      	movs	r3, #1
 8000cf6:	4622      	mov	r2, r4
 8000cf8:	4641      	mov	r1, r8
 8000cfa:	4638      	mov	r0, r7
 8000cfc:	47c8      	blx	r9
 8000cfe:	3001      	adds	r0, #1
 8000d00:	d0e6      	beq.n	8000cd0 <_printf_common+0xa4>
 8000d02:	3601      	adds	r6, #1
 8000d04:	e7d9      	b.n	8000cba <_printf_common+0x8e>
	...

08000d08 <_printf_i>:
 8000d08:	e92d 47ff 	stmdb	sp!, {r0, r1, r2, r3, r4, r5, r6, r7, r8, r9, sl, lr}
 8000d0c:	7e0f      	ldrb	r7, [r1, #24]
 8000d0e:	9e0c      	ldr	r6, [sp, #48]	; 0x30
 8000d10:	2f78      	cmp	r7, #120	; 0x78
 8000d12:	4691      	mov	r9, r2
 8000d14:	4680      	mov	r8, r0
 8000d16:	460c      	mov	r4, r1
 8000d18:	469a      	mov	sl, r3
 8000d1a:	f101 0243 	add.w	r2, r1, #67	; 0x43
 8000d1e:	d807      	bhi.n	8000d30 <_printf_i+0x28>
 8000d20:	2f62      	cmp	r7, #98	; 0x62
 8000d22:	d80a      	bhi.n	8000d3a <_printf_i+0x32>
 8000d24:	2f00      	cmp	r7, #0
 8000d26:	f000 80d1 	beq.w	8000ecc <_printf_i+0x1c4>
 8000d2a:	2f58      	cmp	r7, #88	; 0x58
 8000d2c:	f000 80b8 	beq.w	8000ea0 <_printf_i+0x198>
 8000d30:	f104 0642 	add.w	r6, r4, #66	; 0x42
 8000d34:	f884 7042 	strb.w	r7, [r4, #66]	; 0x42
 8000d38:	e03a      	b.n	8000db0 <_printf_i+0xa8>
 8000d3a:	f1a7 0363 	sub.w	r3, r7, #99	; 0x63
 8000d3e:	2b15      	cmp	r3, #21
 8000d40:	d8f6      	bhi.n	8000d30 <_printf_i+0x28>
 8000d42:	a101      	add	r1, pc, #4	; (adr r1, 8000d48 <_printf_i+0x40>)
 8000d44:	f851 f023 	ldr.w	pc, [r1, r3, lsl #2]
 8000d48:	08000da1 	stmdaeq	r0, {r0, r5, r7, r8, sl, fp}
 8000d4c:	08000db5 	stmdaeq	r0, {r0, r2, r4, r5, r7, r8, sl, fp}
 8000d50:	08000d31 	stmdaeq	r0, {r0, r4, r5, r8, sl, fp}
 8000d54:	08000d31 	stmdaeq	r0, {r0, r4, r5, r8, sl, fp}
 8000d58:	08000d31 	stmdaeq	r0, {r0, r4, r5, r8, sl, fp}
 8000d5c:	08000d31 	stmdaeq	r0, {r0, r4, r5, r8, sl, fp}
 8000d60:	08000db5 	stmdaeq	r0, {r0, r2, r4, r5, r7, r8, sl, fp}
 8000d64:	08000d31 	stmdaeq	r0, {r0, r4, r5, r8, sl, fp}
 8000d68:	08000d31 	stmdaeq	r0, {r0, r4, r5, r8, sl, fp}
 8000d6c:	08000d31 	stmdaeq	r0, {r0, r4, r5, r8, sl, fp}
 8000d70:	08000d31 	stmdaeq	r0, {r0, r4, r5, r8, sl, fp}
 8000d74:	08000eb3 	stmdaeq	r0, {r0, r1, r4, r5, r7, r9, sl, fp}
 8000d78:	08000ddf 	stmdaeq	r0, {r0, r1, r2, r3, r4, r6, r7, r8, sl, fp}
 8000d7c:	08000e6d 	stmdaeq	r0, {r0, r2, r3, r5, r6, r9, sl, fp}
 8000d80:	08000d31 	stmdaeq	r0, {r0, r4, r5, r8, sl, fp}
 8000d84:	08000d31 	stmdaeq	r0, {r0, r4, r5, r8, sl, fp}
 8000d88:	08000ed5 	stmdaeq	r0, {r0, r2, r4, r6, r7, r9, sl, fp}
 8000d8c:	08000d31 	stmdaeq	r0, {r0, r4, r5, r8, sl, fp}
 8000d90:	08000ddf 	stmdaeq	r0, {r0, r1, r2, r3, r4, r6, r7, r8, sl, fp}
 8000d94:	08000d31 	stmdaeq	r0, {r0, r4, r5, r8, sl, fp}
 8000d98:	08000d31 	stmdaeq	r0, {r0, r4, r5, r8, sl, fp}
 8000d9c:	08000e75 	stmdaeq	r0, {r0, r2, r4, r5, r6, r9, sl, fp}
 8000da0:	6833      	ldr	r3, [r6, #0]
 8000da2:	1d1a      	adds	r2, r3, #4
 8000da4:	681b      	ldr	r3, [r3, #0]
 8000da6:	6032      	str	r2, [r6, #0]
 8000da8:	f104 0642 	add.w	r6, r4, #66	; 0x42
 8000dac:	f884 3042 	strb.w	r3, [r4, #66]	; 0x42
 8000db0:	2301      	movs	r3, #1
 8000db2:	e09c      	b.n	8000eee <_printf_i+0x1e6>
 8000db4:	6833      	ldr	r3, [r6, #0]
 8000db6:	6820      	ldr	r0, [r4, #0]
 8000db8:	1d19      	adds	r1, r3, #4
 8000dba:	6031      	str	r1, [r6, #0]
 8000dbc:	0606      	lsls	r6, r0, #24
 8000dbe:	d501      	bpl.n	8000dc4 <_printf_i+0xbc>
 8000dc0:	681d      	ldr	r5, [r3, #0]
 8000dc2:	e003      	b.n	8000dcc <_printf_i+0xc4>
 8000dc4:	0645      	lsls	r5, r0, #25
 8000dc6:	d5fb      	bpl.n	8000dc0 <_printf_i+0xb8>
 8000dc8:	f9b3 5000 	ldrsh.w	r5, [r3]
 8000dcc:	2d00      	cmp	r5, #0
 8000dce:	da03      	bge.n	8000dd8 <_printf_i+0xd0>
 8000dd0:	232d      	movs	r3, #45	; 0x2d
 8000dd2:	426d      	negs	r5, r5
 8000dd4:	f884 3043 	strb.w	r3, [r4, #67]	; 0x43
 8000dd8:	4858      	ldr	r0, [pc, #352]	; (8000f3c <_printf_i+0x234>)
 8000dda:	230a      	movs	r3, #10
 8000ddc:	e011      	b.n	8000e02 <_printf_i+0xfa>
 8000dde:	6821      	ldr	r1, [r4, #0]
 8000de0:	6833      	ldr	r3, [r6, #0]
 8000de2:	0608      	lsls	r0, r1, #24
 8000de4:	f853 5b04 	ldr.w	r5, [r3], #4
 8000de8:	d402      	bmi.n	8000df0 <_printf_i+0xe8>
 8000dea:	0649      	lsls	r1, r1, #25
 8000dec:	bf48      	it	mi
 8000dee:	b2ad      	uxthmi	r5, r5
 8000df0:	2f6f      	cmp	r7, #111	; 0x6f
 8000df2:	4852      	ldr	r0, [pc, #328]	; (8000f3c <_printf_i+0x234>)
 8000df4:	6033      	str	r3, [r6, #0]
 8000df6:	bf14      	ite	ne
 8000df8:	230a      	movne	r3, #10
 8000dfa:	2308      	moveq	r3, #8
 8000dfc:	2100      	movs	r1, #0
 8000dfe:	f884 1043 	strb.w	r1, [r4, #67]	; 0x43
 8000e02:	6866      	ldr	r6, [r4, #4]
 8000e04:	60a6      	str	r6, [r4, #8]
 8000e06:	2e00      	cmp	r6, #0
 8000e08:	db05      	blt.n	8000e16 <_printf_i+0x10e>
 8000e0a:	6821      	ldr	r1, [r4, #0]
 8000e0c:	432e      	orrs	r6, r5
 8000e0e:	f021 0104 	bic.w	r1, r1, #4
 8000e12:	6021      	str	r1, [r4, #0]
 8000e14:	d04b      	beq.n	8000eae <_printf_i+0x1a6>
 8000e16:	4616      	mov	r6, r2
 8000e18:	fbb5 f1f3 	udiv	r1, r5, r3
 8000e1c:	fb03 5711 	mls	r7, r3, r1, r5
 8000e20:	5dc7      	ldrb	r7, [r0, r7]
 8000e22:	f806 7d01 	strb.w	r7, [r6, #-1]!
 8000e26:	462f      	mov	r7, r5
 8000e28:	42bb      	cmp	r3, r7
 8000e2a:	460d      	mov	r5, r1
 8000e2c:	d9f4      	bls.n	8000e18 <_printf_i+0x110>
 8000e2e:	2b08      	cmp	r3, #8
 8000e30:	d10b      	bne.n	8000e4a <_printf_i+0x142>
 8000e32:	6823      	ldr	r3, [r4, #0]
 8000e34:	07df      	lsls	r7, r3, #31
 8000e36:	d508      	bpl.n	8000e4a <_printf_i+0x142>
 8000e38:	6923      	ldr	r3, [r4, #16]
 8000e3a:	6861      	ldr	r1, [r4, #4]
 8000e3c:	4299      	cmp	r1, r3
 8000e3e:	bfde      	ittt	le
 8000e40:	2330      	movle	r3, #48	; 0x30
 8000e42:	f806 3c01 	strble.w	r3, [r6, #-1]
 8000e46:	f106 36ff 	addle.w	r6, r6, #4294967295	; 0xffffffff
 8000e4a:	1b92      	subs	r2, r2, r6
 8000e4c:	6122      	str	r2, [r4, #16]
 8000e4e:	f8cd a000 	str.w	sl, [sp]
 8000e52:	464b      	mov	r3, r9
 8000e54:	aa03      	add	r2, sp, #12
 8000e56:	4621      	mov	r1, r4
 8000e58:	4640      	mov	r0, r8
 8000e5a:	f7ff fee7 	bl	8000c2c <_printf_common>
 8000e5e:	3001      	adds	r0, #1
 8000e60:	d14a      	bne.n	8000ef8 <_printf_i+0x1f0>
 8000e62:	f04f 30ff 	mov.w	r0, #4294967295	; 0xffffffff
 8000e66:	b004      	add	sp, #16
 8000e68:	e8bd 87f0 	ldmia.w	sp!, {r4, r5, r6, r7, r8, r9, sl, pc}
 8000e6c:	6823      	ldr	r3, [r4, #0]
 8000e6e:	f043 0320 	orr.w	r3, r3, #32
 8000e72:	6023      	str	r3, [r4, #0]
 8000e74:	4832      	ldr	r0, [pc, #200]	; (8000f40 <_printf_i+0x238>)
 8000e76:	2778      	movs	r7, #120	; 0x78
 8000e78:	f884 7045 	strb.w	r7, [r4, #69]	; 0x45
 8000e7c:	6823      	ldr	r3, [r4, #0]
 8000e7e:	6831      	ldr	r1, [r6, #0]
 8000e80:	061f      	lsls	r7, r3, #24
 8000e82:	f851 5b04 	ldr.w	r5, [r1], #4
 8000e86:	d402      	bmi.n	8000e8e <_printf_i+0x186>
 8000e88:	065f      	lsls	r7, r3, #25
 8000e8a:	bf48      	it	mi
 8000e8c:	b2ad      	uxthmi	r5, r5
 8000e8e:	6031      	str	r1, [r6, #0]
 8000e90:	07d9      	lsls	r1, r3, #31
 8000e92:	bf44      	itt	mi
 8000e94:	f043 0320 	orrmi.w	r3, r3, #32
 8000e98:	6023      	strmi	r3, [r4, #0]
 8000e9a:	b11d      	cbz	r5, 8000ea4 <_printf_i+0x19c>
 8000e9c:	2310      	movs	r3, #16
 8000e9e:	e7ad      	b.n	8000dfc <_printf_i+0xf4>
 8000ea0:	4826      	ldr	r0, [pc, #152]	; (8000f3c <_printf_i+0x234>)
 8000ea2:	e7e9      	b.n	8000e78 <_printf_i+0x170>
 8000ea4:	6823      	ldr	r3, [r4, #0]
 8000ea6:	f023 0320 	bic.w	r3, r3, #32
 8000eaa:	6023      	str	r3, [r4, #0]
 8000eac:	e7f6      	b.n	8000e9c <_printf_i+0x194>
 8000eae:	4616      	mov	r6, r2
 8000eb0:	e7bd      	b.n	8000e2e <_printf_i+0x126>
 8000eb2:	6833      	ldr	r3, [r6, #0]
 8000eb4:	6825      	ldr	r5, [r4, #0]
 8000eb6:	6961      	ldr	r1, [r4, #20]
 8000eb8:	1d18      	adds	r0, r3, #4
 8000eba:	6030      	str	r0, [r6, #0]
 8000ebc:	062e      	lsls	r6, r5, #24
 8000ebe:	681b      	ldr	r3, [r3, #0]
 8000ec0:	d501      	bpl.n	8000ec6 <_printf_i+0x1be>
 8000ec2:	6019      	str	r1, [r3, #0]
 8000ec4:	e002      	b.n	8000ecc <_printf_i+0x1c4>
 8000ec6:	0668      	lsls	r0, r5, #25
 8000ec8:	d5fb      	bpl.n	8000ec2 <_printf_i+0x1ba>
 8000eca:	8019      	strh	r1, [r3, #0]
 8000ecc:	2300      	movs	r3, #0
 8000ece:	6123      	str	r3, [r4, #16]
 8000ed0:	4616      	mov	r6, r2
 8000ed2:	e7bc      	b.n	8000e4e <_printf_i+0x146>
 8000ed4:	6833      	ldr	r3, [r6, #0]
 8000ed6:	1d1a      	adds	r2, r3, #4
 8000ed8:	6032      	str	r2, [r6, #0]
 8000eda:	681e      	ldr	r6, [r3, #0]
 8000edc:	6862      	ldr	r2, [r4, #4]
 8000ede:	2100      	movs	r1, #0
 8000ee0:	4630      	mov	r0, r6
 8000ee2:	f7ff f975 	bl	80001d0 <memchr>
 8000ee6:	b108      	cbz	r0, 8000eec <_printf_i+0x1e4>
 8000ee8:	1b80      	subs	r0, r0, r6
 8000eea:	6060      	str	r0, [r4, #4]
 8000eec:	6863      	ldr	r3, [r4, #4]
 8000eee:	6123      	str	r3, [r4, #16]
 8000ef0:	2300      	movs	r3, #0
 8000ef2:	f884 3043 	strb.w	r3, [r4, #67]	; 0x43
 8000ef6:	e7aa      	b.n	8000e4e <_printf_i+0x146>
 8000ef8:	6923      	ldr	r3, [r4, #16]
 8000efa:	4632      	mov	r2, r6
 8000efc:	4649      	mov	r1, r9
 8000efe:	4640      	mov	r0, r8
 8000f00:	47d0      	blx	sl
 8000f02:	3001      	adds	r0, #1
 8000f04:	d0ad      	beq.n	8000e62 <_printf_i+0x15a>
 8000f06:	6823      	ldr	r3, [r4, #0]
 8000f08:	079b      	lsls	r3, r3, #30
 8000f0a:	d413      	bmi.n	8000f34 <_printf_i+0x22c>
 8000f0c:	68e0      	ldr	r0, [r4, #12]
 8000f0e:	9b03      	ldr	r3, [sp, #12]
 8000f10:	4298      	cmp	r0, r3
 8000f12:	bfb8      	it	lt
 8000f14:	4618      	movlt	r0, r3
 8000f16:	e7a6      	b.n	8000e66 <_printf_i+0x15e>
 8000f18:	2301      	movs	r3, #1
 8000f1a:	4632      	mov	r2, r6
 8000f1c:	4649      	mov	r1, r9
 8000f1e:	4640      	mov	r0, r8
 8000f20:	47d0      	blx	sl
 8000f22:	3001      	adds	r0, #1
 8000f24:	d09d      	beq.n	8000e62 <_printf_i+0x15a>
 8000f26:	3501      	adds	r5, #1
 8000f28:	68e3      	ldr	r3, [r4, #12]
 8000f2a:	9903      	ldr	r1, [sp, #12]
 8000f2c:	1a5b      	subs	r3, r3, r1
 8000f2e:	42ab      	cmp	r3, r5
 8000f30:	dcf2      	bgt.n	8000f18 <_printf_i+0x210>
 8000f32:	e7eb      	b.n	8000f0c <_printf_i+0x204>
 8000f34:	2500      	movs	r5, #0
 8000f36:	f104 0619 	add.w	r6, r4, #25
 8000f3a:	e7f5      	b.n	8000f28 <_printf_i+0x220>
 8000f3c:	08001322 	stmdaeq	r0, {r1, r5, r8, r9, ip}
 8000f40:	08001333 	stmdaeq	r0, {r0, r1, r4, r5, r8, r9, ip}

08000f44 <__sflush_r>:
 8000f44:	f9b1 200c 	ldrsh.w	r2, [r1, #12]
 8000f48:	e92d 41f0 	stmdb	sp!, {r4, r5, r6, r7, r8, lr}
 8000f4c:	0716      	lsls	r6, r2, #28
 8000f4e:	4605      	mov	r5, r0
 8000f50:	460c      	mov	r4, r1
 8000f52:	d454      	bmi.n	8000ffe <__sflush_r+0xba>
 8000f54:	684b      	ldr	r3, [r1, #4]
 8000f56:	2b00      	cmp	r3, #0
 8000f58:	dc02      	bgt.n	8000f60 <__sflush_r+0x1c>
 8000f5a:	6c0b      	ldr	r3, [r1, #64]	; 0x40
 8000f5c:	2b00      	cmp	r3, #0
 8000f5e:	dd48      	ble.n	8000ff2 <__sflush_r+0xae>
 8000f60:	6ae6      	ldr	r6, [r4, #44]	; 0x2c
 8000f62:	2e00      	cmp	r6, #0
 8000f64:	d045      	beq.n	8000ff2 <__sflush_r+0xae>
 8000f66:	2300      	movs	r3, #0
 8000f68:	f412 5280 	ands.w	r2, r2, #4096	; 0x1000
 8000f6c:	682f      	ldr	r7, [r5, #0]
 8000f6e:	6a21      	ldr	r1, [r4, #32]
 8000f70:	602b      	str	r3, [r5, #0]
 8000f72:	d030      	beq.n	8000fd6 <__sflush_r+0x92>
 8000f74:	6d62      	ldr	r2, [r4, #84]	; 0x54
 8000f76:	89a3      	ldrh	r3, [r4, #12]
 8000f78:	0759      	lsls	r1, r3, #29
 8000f7a:	d505      	bpl.n	8000f88 <__sflush_r+0x44>
 8000f7c:	6863      	ldr	r3, [r4, #4]
 8000f7e:	1ad2      	subs	r2, r2, r3
 8000f80:	6b63      	ldr	r3, [r4, #52]	; 0x34
 8000f82:	b10b      	cbz	r3, 8000f88 <__sflush_r+0x44>
 8000f84:	6c23      	ldr	r3, [r4, #64]	; 0x40
 8000f86:	1ad2      	subs	r2, r2, r3
 8000f88:	2300      	movs	r3, #0
 8000f8a:	6ae6      	ldr	r6, [r4, #44]	; 0x2c
 8000f8c:	6a21      	ldr	r1, [r4, #32]
 8000f8e:	4628      	mov	r0, r5
 8000f90:	47b0      	blx	r6
 8000f92:	1c43      	adds	r3, r0, #1
 8000f94:	89a3      	ldrh	r3, [r4, #12]
 8000f96:	d106      	bne.n	8000fa6 <__sflush_r+0x62>
 8000f98:	6829      	ldr	r1, [r5, #0]
 8000f9a:	291d      	cmp	r1, #29
 8000f9c:	d82b      	bhi.n	8000ff6 <__sflush_r+0xb2>
 8000f9e:	4a2a      	ldr	r2, [pc, #168]	; (8001048 <__sflush_r+0x104>)
 8000fa0:	40ca      	lsrs	r2, r1
 8000fa2:	07d6      	lsls	r6, r2, #31
 8000fa4:	d527      	bpl.n	8000ff6 <__sflush_r+0xb2>
 8000fa6:	2200      	movs	r2, #0
 8000fa8:	6062      	str	r2, [r4, #4]
 8000faa:	04d9      	lsls	r1, r3, #19
 8000fac:	6922      	ldr	r2, [r4, #16]
 8000fae:	6022      	str	r2, [r4, #0]
 8000fb0:	d504      	bpl.n	8000fbc <__sflush_r+0x78>
 8000fb2:	1c42      	adds	r2, r0, #1
 8000fb4:	d101      	bne.n	8000fba <__sflush_r+0x76>
 8000fb6:	682b      	ldr	r3, [r5, #0]
 8000fb8:	b903      	cbnz	r3, 8000fbc <__sflush_r+0x78>
 8000fba:	6560      	str	r0, [r4, #84]	; 0x54
 8000fbc:	6b61      	ldr	r1, [r4, #52]	; 0x34
 8000fbe:	602f      	str	r7, [r5, #0]
 8000fc0:	b1b9      	cbz	r1, 8000ff2 <__sflush_r+0xae>
 8000fc2:	f104 0344 	add.w	r3, r4, #68	; 0x44
 8000fc6:	4299      	cmp	r1, r3
 8000fc8:	d002      	beq.n	8000fd0 <__sflush_r+0x8c>
 8000fca:	4628      	mov	r0, r5
 8000fcc:	f7ff fbf4 	bl	80007b8 <_free_r>
 8000fd0:	2300      	movs	r3, #0
 8000fd2:	6363      	str	r3, [r4, #52]	; 0x34
 8000fd4:	e00d      	b.n	8000ff2 <__sflush_r+0xae>
 8000fd6:	2301      	movs	r3, #1
 8000fd8:	4628      	mov	r0, r5
 8000fda:	47b0      	blx	r6
 8000fdc:	4602      	mov	r2, r0
 8000fde:	1c50      	adds	r0, r2, #1
 8000fe0:	d1c9      	bne.n	8000f76 <__sflush_r+0x32>
 8000fe2:	682b      	ldr	r3, [r5, #0]
 8000fe4:	2b00      	cmp	r3, #0
 8000fe6:	d0c6      	beq.n	8000f76 <__sflush_r+0x32>
 8000fe8:	2b1d      	cmp	r3, #29
 8000fea:	d001      	beq.n	8000ff0 <__sflush_r+0xac>
 8000fec:	2b16      	cmp	r3, #22
 8000fee:	d11e      	bne.n	800102e <__sflush_r+0xea>
 8000ff0:	602f      	str	r7, [r5, #0]
 8000ff2:	2000      	movs	r0, #0
 8000ff4:	e022      	b.n	800103c <__sflush_r+0xf8>
 8000ff6:	f043 0340 	orr.w	r3, r3, #64	; 0x40
 8000ffa:	b21b      	sxth	r3, r3
 8000ffc:	e01b      	b.n	8001036 <__sflush_r+0xf2>
 8000ffe:	690f      	ldr	r7, [r1, #16]
 8001000:	2f00      	cmp	r7, #0
 8001002:	d0f6      	beq.n	8000ff2 <__sflush_r+0xae>
 8001004:	0793      	lsls	r3, r2, #30
 8001006:	680e      	ldr	r6, [r1, #0]
 8001008:	bf08      	it	eq
 800100a:	694b      	ldreq	r3, [r1, #20]
 800100c:	600f      	str	r7, [r1, #0]
 800100e:	bf18      	it	ne
 8001010:	2300      	movne	r3, #0
 8001012:	eba6 0807 	sub.w	r8, r6, r7
 8001016:	608b      	str	r3, [r1, #8]
 8001018:	f1b8 0f00 	cmp.w	r8, #0
 800101c:	dde9      	ble.n	8000ff2 <__sflush_r+0xae>
 800101e:	6a21      	ldr	r1, [r4, #32]
 8001020:	6aa6      	ldr	r6, [r4, #40]	; 0x28
 8001022:	4643      	mov	r3, r8
 8001024:	463a      	mov	r2, r7
 8001026:	4628      	mov	r0, r5
 8001028:	47b0      	blx	r6
 800102a:	2800      	cmp	r0, #0
 800102c:	dc08      	bgt.n	8001040 <__sflush_r+0xfc>
 800102e:	f9b4 300c 	ldrsh.w	r3, [r4, #12]
 8001032:	f043 0340 	orr.w	r3, r3, #64	; 0x40
 8001036:	81a3      	strh	r3, [r4, #12]
 8001038:	f04f 30ff 	mov.w	r0, #4294967295	; 0xffffffff
 800103c:	e8bd 81f0 	ldmia.w	sp!, {r4, r5, r6, r7, r8, pc}
 8001040:	4407      	add	r7, r0
 8001042:	eba8 0800 	sub.w	r8, r8, r0
 8001046:	e7e7      	b.n	8001018 <__sflush_r+0xd4>
 8001048:	20400001 	subcs	r0, r0, r1

0800104c <_fflush_r>:
 800104c:	b538      	push	{r3, r4, r5, lr}
 800104e:	690b      	ldr	r3, [r1, #16]
 8001050:	4605      	mov	r5, r0
 8001052:	460c      	mov	r4, r1
 8001054:	b913      	cbnz	r3, 800105c <_fflush_r+0x10>
 8001056:	2500      	movs	r5, #0
 8001058:	4628      	mov	r0, r5
 800105a:	bd38      	pop	{r3, r4, r5, pc}
 800105c:	b118      	cbz	r0, 8001066 <_fflush_r+0x1a>
 800105e:	6a03      	ldr	r3, [r0, #32]
 8001060:	b90b      	cbnz	r3, 8001066 <_fflush_r+0x1a>
 8001062:	f7ff faa1 	bl	80005a8 <__sinit>
 8001066:	f9b4 300c 	ldrsh.w	r3, [r4, #12]
 800106a:	2b00      	cmp	r3, #0
 800106c:	d0f3      	beq.n	8001056 <_fflush_r+0xa>
 800106e:	6e62      	ldr	r2, [r4, #100]	; 0x64
 8001070:	07d0      	lsls	r0, r2, #31
 8001072:	d404      	bmi.n	800107e <_fflush_r+0x32>
 8001074:	0599      	lsls	r1, r3, #22
 8001076:	d402      	bmi.n	800107e <_fflush_r+0x32>
 8001078:	6da0      	ldr	r0, [r4, #88]	; 0x58
 800107a:	f7ff fb9a 	bl	80007b2 <__retarget_lock_acquire_recursive>
 800107e:	4628      	mov	r0, r5
 8001080:	4621      	mov	r1, r4
 8001082:	f7ff ff5f 	bl	8000f44 <__sflush_r>
 8001086:	6e63      	ldr	r3, [r4, #100]	; 0x64
 8001088:	07da      	lsls	r2, r3, #31
 800108a:	4605      	mov	r5, r0
 800108c:	d4e4      	bmi.n	8001058 <_fflush_r+0xc>
 800108e:	89a3      	ldrh	r3, [r4, #12]
 8001090:	059b      	lsls	r3, r3, #22
 8001092:	d4e1      	bmi.n	8001058 <_fflush_r+0xc>
 8001094:	6da0      	ldr	r0, [r4, #88]	; 0x58
 8001096:	f7ff fb8d 	bl	80007b4 <__retarget_lock_release_recursive>
 800109a:	e7dd      	b.n	8001058 <_fflush_r+0xc>

0800109c <__swbuf_r>:
 800109c:	b5f8      	push	{r3, r4, r5, r6, r7, lr}
 800109e:	460e      	mov	r6, r1
 80010a0:	4614      	mov	r4, r2
 80010a2:	4605      	mov	r5, r0
 80010a4:	b118      	cbz	r0, 80010ae <__swbuf_r+0x12>
 80010a6:	6a03      	ldr	r3, [r0, #32]
 80010a8:	b90b      	cbnz	r3, 80010ae <__swbuf_r+0x12>
 80010aa:	f7ff fa7d 	bl	80005a8 <__sinit>
 80010ae:	69a3      	ldr	r3, [r4, #24]
 80010b0:	60a3      	str	r3, [r4, #8]
 80010b2:	89a3      	ldrh	r3, [r4, #12]
 80010b4:	071a      	lsls	r2, r3, #28
 80010b6:	d501      	bpl.n	80010bc <__swbuf_r+0x20>
 80010b8:	6923      	ldr	r3, [r4, #16]
 80010ba:	b943      	cbnz	r3, 80010ce <__swbuf_r+0x32>
 80010bc:	4621      	mov	r1, r4
 80010be:	4628      	mov	r0, r5
 80010c0:	f000 f82a 	bl	8001118 <__swsetup_r>
 80010c4:	b118      	cbz	r0, 80010ce <__swbuf_r+0x32>
 80010c6:	f04f 37ff 	mov.w	r7, #4294967295	; 0xffffffff
 80010ca:	4638      	mov	r0, r7
 80010cc:	bdf8      	pop	{r3, r4, r5, r6, r7, pc}
 80010ce:	6823      	ldr	r3, [r4, #0]
 80010d0:	6922      	ldr	r2, [r4, #16]
 80010d2:	1a98      	subs	r0, r3, r2
 80010d4:	6963      	ldr	r3, [r4, #20]
 80010d6:	b2f6      	uxtb	r6, r6
 80010d8:	4283      	cmp	r3, r0
 80010da:	4637      	mov	r7, r6
 80010dc:	dc05      	bgt.n	80010ea <__swbuf_r+0x4e>
 80010de:	4621      	mov	r1, r4
 80010e0:	4628      	mov	r0, r5
 80010e2:	f7ff ffb3 	bl	800104c <_fflush_r>
 80010e6:	2800      	cmp	r0, #0
 80010e8:	d1ed      	bne.n	80010c6 <__swbuf_r+0x2a>
 80010ea:	68a3      	ldr	r3, [r4, #8]
 80010ec:	3b01      	subs	r3, #1
 80010ee:	60a3      	str	r3, [r4, #8]
 80010f0:	6823      	ldr	r3, [r4, #0]
 80010f2:	1c5a      	adds	r2, r3, #1
 80010f4:	6022      	str	r2, [r4, #0]
 80010f6:	701e      	strb	r6, [r3, #0]
 80010f8:	6962      	ldr	r2, [r4, #20]
 80010fa:	1c43      	adds	r3, r0, #1
 80010fc:	429a      	cmp	r2, r3
 80010fe:	d004      	beq.n	800110a <__swbuf_r+0x6e>
 8001100:	89a3      	ldrh	r3, [r4, #12]
 8001102:	07db      	lsls	r3, r3, #31
 8001104:	d5e1      	bpl.n	80010ca <__swbuf_r+0x2e>
 8001106:	2e0a      	cmp	r6, #10
 8001108:	d1df      	bne.n	80010ca <__swbuf_r+0x2e>
 800110a:	4621      	mov	r1, r4
 800110c:	4628      	mov	r0, r5
 800110e:	f7ff ff9d 	bl	800104c <_fflush_r>
 8001112:	2800      	cmp	r0, #0
 8001114:	d0d9      	beq.n	80010ca <__swbuf_r+0x2e>
 8001116:	e7d6      	b.n	80010c6 <__swbuf_r+0x2a>

08001118 <__swsetup_r>:
 8001118:	b538      	push	{r3, r4, r5, lr}
 800111a:	4b29      	ldr	r3, [pc, #164]	; (80011c0 <__swsetup_r+0xa8>)
 800111c:	4605      	mov	r5, r0
 800111e:	6818      	ldr	r0, [r3, #0]
 8001120:	460c      	mov	r4, r1
 8001122:	b118      	cbz	r0, 800112c <__swsetup_r+0x14>
 8001124:	6a03      	ldr	r3, [r0, #32]
 8001126:	b90b      	cbnz	r3, 800112c <__swsetup_r+0x14>
 8001128:	f7ff fa3e 	bl	80005a8 <__sinit>
 800112c:	f9b4 300c 	ldrsh.w	r3, [r4, #12]
 8001130:	0719      	lsls	r1, r3, #28
 8001132:	d422      	bmi.n	800117a <__swsetup_r+0x62>
 8001134:	06da      	lsls	r2, r3, #27
 8001136:	d407      	bmi.n	8001148 <__swsetup_r+0x30>
 8001138:	2209      	movs	r2, #9
 800113a:	602a      	str	r2, [r5, #0]
 800113c:	f043 0340 	orr.w	r3, r3, #64	; 0x40
 8001140:	81a3      	strh	r3, [r4, #12]
 8001142:	f04f 30ff 	mov.w	r0, #4294967295	; 0xffffffff
 8001146:	e033      	b.n	80011b0 <__swsetup_r+0x98>
 8001148:	0758      	lsls	r0, r3, #29
 800114a:	d512      	bpl.n	8001172 <__swsetup_r+0x5a>
 800114c:	6b61      	ldr	r1, [r4, #52]	; 0x34
 800114e:	b141      	cbz	r1, 8001162 <__swsetup_r+0x4a>
 8001150:	f104 0344 	add.w	r3, r4, #68	; 0x44
 8001154:	4299      	cmp	r1, r3
 8001156:	d002      	beq.n	800115e <__swsetup_r+0x46>
 8001158:	4628      	mov	r0, r5
 800115a:	f7ff fb2d 	bl	80007b8 <_free_r>
 800115e:	2300      	movs	r3, #0
 8001160:	6363      	str	r3, [r4, #52]	; 0x34
 8001162:	89a3      	ldrh	r3, [r4, #12]
 8001164:	f023 0324 	bic.w	r3, r3, #36	; 0x24
 8001168:	81a3      	strh	r3, [r4, #12]
 800116a:	2300      	movs	r3, #0
 800116c:	6063      	str	r3, [r4, #4]
 800116e:	6923      	ldr	r3, [r4, #16]
 8001170:	6023      	str	r3, [r4, #0]
 8001172:	89a3      	ldrh	r3, [r4, #12]
 8001174:	f043 0308 	orr.w	r3, r3, #8
 8001178:	81a3      	strh	r3, [r4, #12]
 800117a:	6923      	ldr	r3, [r4, #16]
 800117c:	b94b      	cbnz	r3, 8001192 <__swsetup_r+0x7a>
 800117e:	89a3      	ldrh	r3, [r4, #12]
 8001180:	f403 7320 	and.w	r3, r3, #640	; 0x280
 8001184:	f5b3 7f00 	cmp.w	r3, #512	; 0x200
 8001188:	d003      	beq.n	8001192 <__swsetup_r+0x7a>
 800118a:	4621      	mov	r1, r4
 800118c:	4628      	mov	r0, r5
 800118e:	f000 f84f 	bl	8001230 <__smakebuf_r>
 8001192:	f9b4 300c 	ldrsh.w	r3, [r4, #12]
 8001196:	f013 0201 	ands.w	r2, r3, #1
 800119a:	d00a      	beq.n	80011b2 <__swsetup_r+0x9a>
 800119c:	2200      	movs	r2, #0
 800119e:	60a2      	str	r2, [r4, #8]
 80011a0:	6962      	ldr	r2, [r4, #20]
 80011a2:	4252      	negs	r2, r2
 80011a4:	61a2      	str	r2, [r4, #24]
 80011a6:	6922      	ldr	r2, [r4, #16]
 80011a8:	b942      	cbnz	r2, 80011bc <__swsetup_r+0xa4>
 80011aa:	f013 0080 	ands.w	r0, r3, #128	; 0x80
 80011ae:	d1c5      	bne.n	800113c <__swsetup_r+0x24>
 80011b0:	bd38      	pop	{r3, r4, r5, pc}
 80011b2:	0799      	lsls	r1, r3, #30
 80011b4:	bf58      	it	pl
 80011b6:	6962      	ldrpl	r2, [r4, #20]
 80011b8:	60a2      	str	r2, [r4, #8]
 80011ba:	e7f4      	b.n	80011a6 <__swsetup_r+0x8e>
 80011bc:	2000      	movs	r0, #0
 80011be:	e7f7      	b.n	80011b0 <__swsetup_r+0x98>
 80011c0:	20000014 	andcs	r0, r0, r4, lsl r0

080011c4 <_sbrk_r>:
 80011c4:	b538      	push	{r3, r4, r5, lr}
 80011c6:	4d06      	ldr	r5, [pc, #24]	; (80011e0 <_sbrk_r+0x1c>)
 80011c8:	2300      	movs	r3, #0
 80011ca:	4604      	mov	r4, r0
 80011cc:	4608      	mov	r0, r1
 80011ce:	602b      	str	r3, [r5, #0]
 80011d0:	f7ff f8fe 	bl	80003d0 <_sbrk>
 80011d4:	1c43      	adds	r3, r0, #1
 80011d6:	d102      	bne.n	80011de <_sbrk_r+0x1a>
 80011d8:	682b      	ldr	r3, [r5, #0]
 80011da:	b103      	cbz	r3, 80011de <_sbrk_r+0x1a>
 80011dc:	6023      	str	r3, [r4, #0]
 80011de:	bd38      	pop	{r3, r4, r5, pc}
 80011e0:	200001c4 	andcs	r0, r0, r4, asr #3

080011e4 <__swhatbuf_r>:
 80011e4:	b570      	push	{r4, r5, r6, lr}
 80011e6:	460c      	mov	r4, r1
 80011e8:	f9b1 100e 	ldrsh.w	r1, [r1, #14]
 80011ec:	2900      	cmp	r1, #0
 80011ee:	b096      	sub	sp, #88	; 0x58
 80011f0:	4615      	mov	r5, r2
 80011f2:	461e      	mov	r6, r3
 80011f4:	da0d      	bge.n	8001212 <__swhatbuf_r+0x2e>
 80011f6:	89a3      	ldrh	r3, [r4, #12]
 80011f8:	f013 0f80 	tst.w	r3, #128	; 0x80
 80011fc:	f04f 0100 	mov.w	r1, #0
 8001200:	bf14      	ite	ne
 8001202:	2340      	movne	r3, #64	; 0x40
 8001204:	f44f 6380 	moveq.w	r3, #1024	; 0x400
 8001208:	2000      	movs	r0, #0
 800120a:	6031      	str	r1, [r6, #0]
 800120c:	602b      	str	r3, [r5, #0]
 800120e:	b016      	add	sp, #88	; 0x58
 8001210:	bd70      	pop	{r4, r5, r6, pc}
 8001212:	466a      	mov	r2, sp
 8001214:	f000 f848 	bl	80012a8 <_fstat_r>
 8001218:	2800      	cmp	r0, #0
 800121a:	dbec      	blt.n	80011f6 <__swhatbuf_r+0x12>
 800121c:	9901      	ldr	r1, [sp, #4]
 800121e:	f401 4170 	and.w	r1, r1, #61440	; 0xf000
 8001222:	f5a1 5300 	sub.w	r3, r1, #8192	; 0x2000
 8001226:	4259      	negs	r1, r3
 8001228:	4159      	adcs	r1, r3
 800122a:	f44f 6380 	mov.w	r3, #1024	; 0x400
 800122e:	e7eb      	b.n	8001208 <__swhatbuf_r+0x24>

08001230 <__smakebuf_r>:
 8001230:	898b      	ldrh	r3, [r1, #12]
 8001232:	b5f7      	push	{r0, r1, r2, r4, r5, r6, r7, lr}
 8001234:	079d      	lsls	r5, r3, #30
 8001236:	4606      	mov	r6, r0
 8001238:	460c      	mov	r4, r1
 800123a:	d507      	bpl.n	800124c <__smakebuf_r+0x1c>
 800123c:	f104 0347 	add.w	r3, r4, #71	; 0x47
 8001240:	6023      	str	r3, [r4, #0]
 8001242:	6123      	str	r3, [r4, #16]
 8001244:	2301      	movs	r3, #1
 8001246:	6163      	str	r3, [r4, #20]
 8001248:	b003      	add	sp, #12
 800124a:	bdf0      	pop	{r4, r5, r6, r7, pc}
 800124c:	ab01      	add	r3, sp, #4
 800124e:	466a      	mov	r2, sp
 8001250:	f7ff ffc8 	bl	80011e4 <__swhatbuf_r>
 8001254:	9f00      	ldr	r7, [sp, #0]
 8001256:	4605      	mov	r5, r0
 8001258:	4639      	mov	r1, r7
 800125a:	4630      	mov	r0, r6
 800125c:	f7ff fb18 	bl	8000890 <_malloc_r>
 8001260:	b948      	cbnz	r0, 8001276 <__smakebuf_r+0x46>
 8001262:	f9b4 300c 	ldrsh.w	r3, [r4, #12]
 8001266:	059a      	lsls	r2, r3, #22
 8001268:	d4ee      	bmi.n	8001248 <__smakebuf_r+0x18>
 800126a:	f023 0303 	bic.w	r3, r3, #3
 800126e:	f043 0302 	orr.w	r3, r3, #2
 8001272:	81a3      	strh	r3, [r4, #12]
 8001274:	e7e2      	b.n	800123c <__smakebuf_r+0xc>
 8001276:	89a3      	ldrh	r3, [r4, #12]
 8001278:	6020      	str	r0, [r4, #0]
 800127a:	f043 0380 	orr.w	r3, r3, #128	; 0x80
 800127e:	81a3      	strh	r3, [r4, #12]
 8001280:	9b01      	ldr	r3, [sp, #4]
 8001282:	e9c4 0704 	strd	r0, r7, [r4, #16]
 8001286:	b15b      	cbz	r3, 80012a0 <__smakebuf_r+0x70>
 8001288:	f9b4 100e 	ldrsh.w	r1, [r4, #14]
 800128c:	4630      	mov	r0, r6
 800128e:	f000 f81d 	bl	80012cc <_isatty_r>
 8001292:	b128      	cbz	r0, 80012a0 <__smakebuf_r+0x70>
 8001294:	89a3      	ldrh	r3, [r4, #12]
 8001296:	f023 0303 	bic.w	r3, r3, #3
 800129a:	f043 0301 	orr.w	r3, r3, #1
 800129e:	81a3      	strh	r3, [r4, #12]
 80012a0:	89a3      	ldrh	r3, [r4, #12]
 80012a2:	431d      	orrs	r5, r3
 80012a4:	81a5      	strh	r5, [r4, #12]
 80012a6:	e7cf      	b.n	8001248 <__smakebuf_r+0x18>

080012a8 <_fstat_r>:
 80012a8:	b538      	push	{r3, r4, r5, lr}
 80012aa:	4d07      	ldr	r5, [pc, #28]	; (80012c8 <_fstat_r+0x20>)
 80012ac:	2300      	movs	r3, #0
 80012ae:	4604      	mov	r4, r0
 80012b0:	4608      	mov	r0, r1
 80012b2:	4611      	mov	r1, r2
 80012b4:	602b      	str	r3, [r5, #0]
 80012b6:	f7ff f862 	bl	800037e <_fstat>
 80012ba:	1c43      	adds	r3, r0, #1
 80012bc:	d102      	bne.n	80012c4 <_fstat_r+0x1c>
 80012be:	682b      	ldr	r3, [r5, #0]
 80012c0:	b103      	cbz	r3, 80012c4 <_fstat_r+0x1c>
 80012c2:	6023      	str	r3, [r4, #0]
 80012c4:	bd38      	pop	{r3, r4, r5, pc}
 80012c6:	bf00      	nop
 80012c8:	200001c4 	andcs	r0, r0, r4, asr #3

080012cc <_isatty_r>:
 80012cc:	b538      	push	{r3, r4, r5, lr}
 80012ce:	4d06      	ldr	r5, [pc, #24]	; (80012e8 <_isatty_r+0x1c>)
 80012d0:	2300      	movs	r3, #0
 80012d2:	4604      	mov	r4, r0
 80012d4:	4608      	mov	r0, r1
 80012d6:	602b      	str	r3, [r5, #0]
 80012d8:	f7ff f861 	bl	800039e <_isatty>
 80012dc:	1c43      	adds	r3, r0, #1
 80012de:	d102      	bne.n	80012e6 <_isatty_r+0x1a>
 80012e0:	682b      	ldr	r3, [r5, #0]
 80012e2:	b103      	cbz	r3, 80012e6 <_isatty_r+0x1a>
 80012e4:	6023      	str	r3, [r4, #0]
 80012e6:	bd38      	pop	{r3, r4, r5, pc}
 80012e8:	200001c4 	andcs	r0, r0, r4, asr #3

080012ec <_init>:
 80012ec:	b5f8      	push	{r3, r4, r5, r6, r7, lr}
 80012ee:	bf00      	nop
 80012f0:	bcf8      	pop	{r3, r4, r5, r6, r7}
 80012f2:	bc08      	pop	{r3}
 80012f4:	469e      	mov	lr, r3
 80012f6:	4770      	bx	lr

080012f8 <_fini>:
 80012f8:	b5f8      	push	{r3, r4, r5, r6, r7, lr}
 80012fa:	bf00      	nop
 80012fc:	bcf8      	pop	{r3, r4, r5, r6, r7}
 80012fe:	bc08      	pop	{r3}
 8001300:	469e      	mov	lr, r3
 8001302:	4770      	bx	lr

Disassembly of section .rodata:

08001304 <.rodata>:
 8001304:	75736552 	ldrbvc	r6, [r3, #-1362]!	; 0xfffffaae
 8001308:	3d20746c 	cfstrscc	mvf7, [r0, #-432]!	; 0xfffffe50
 800130c:	0a642520 	beq	990a794 <_siccmram+0x19093dc>
 8001310:	302d2300 	eorcc	r2, sp, r0, lsl #6
 8001314:	6800202b 	stmdavs	r0, {r0, r1, r3, r5, sp}
 8001318:	65004c6c 	strvs	r4, [r0, #-3180]	; 0xfffff394
 800131c:	46456766 	strbmi	r6, [r5], -r6, ror #14
 8001320:	31300047 	teqcc	r0, r7, asr #32
 8001324:	35343332 	ldrcc	r3, [r4, #-818]!	; 0xfffffcce
 8001328:	39383736 	ldmdbcc	r8!, {r1, r2, r4, r5, r8, r9, sl, ip, sp}
 800132c:	44434241 	strbmi	r4, [r3], #-577	; 0xfffffdbf
 8001330:	30004645 	andcc	r4, r0, r5, asr #12
 8001334:	34333231 	ldrtcc	r3, [r3], #-561	; 0xfffffdcf
 8001338:	38373635 	ldmdacc	r7!, {r0, r2, r4, r5, r9, sl, ip, sp}
 800133c:	63626139 	cmnvs	r2, #1073741838	; 0x4000000e
 8001340:	00666564 	rsbeq	r6, r6, r4, ror #10

Disassembly of section .ARM:

08001344 <__exidx_start>:
 8001344:	7fffee8c 	svcvc	0x00ffee8c
 8001348:	00000001 	andeq	r0, r0, r1

Disassembly of section .init_array:

0800134c <__frame_dummy_init_array_entry>:
 800134c:	080001b5 	stmdaeq	r0, {r0, r2, r4, r5, r7, r8}

Disassembly of section .fini_array:

08001350 <__do_global_dtors_aux_fini_array_entry>:
 8001350:	08000191 	stmdaeq	r0, {r0, r4, r7, r8}

Disassembly of section .data:

20000000 <g_data1>:
20000000:	fffff060 			; <UNDEFINED> instruction: 0xfffff060

20000004 <g_data2>:
20000004:	000000c8 	andeq	r0, r0, r8, asr #1

20000008 <__sglue>:
20000008:	00000000 	andeq	r0, r0, r0
2000000c:	00000003 	andeq	r0, r0, r3
20000010:	20000088 	andcs	r0, r0, r8, lsl #1

20000014 <_impure_ptr>:
20000014:	20000018 	andcs	r0, r0, r8, lsl r0

20000018 <_impure_data>:
20000018:	00000000 	andeq	r0, r0, r0
2000001c:	20000088 	andcs	r0, r0, r8, lsl #1
20000020:	200000f0 	strdcs	r0, [r0], -r0	; <UNPREDICTABLE>
20000024:	20000158 	andcs	r0, r0, r8, asr r1
	...

Disassembly of section .bss:

20000064 <__bss_start__>:
20000064:	00000000 	andeq	r0, r0, r0

20000068 <object.0>:
	...

20000080 <result>:
20000080:	00000000 	andeq	r0, r0, r0

20000084 <__sbrk_heap_end>:
20000084:	00000000 	andeq	r0, r0, r0

20000088 <__sf>:
	...

200001c0 <__stdio_exit_handler>:
200001c0:	00000000 	andeq	r0, r0, r0

200001c4 <errno>:
200001c4:	00000000 	andeq	r0, r0, r0

200001c8 <__lock___malloc_recursive_mutex>:
	...

200001c9 <__lock___sfp_recursive_mutex>:
200001c9:	 	andeq	r0, r0, r0

200001cc <__malloc_sbrk_start>:
200001cc:	00000000 	andeq	r0, r0, r0

200001d0 <__malloc_free_list>:
200001d0:	00000000 	andeq	r0, r0, r0

Disassembly of section ._user_heap_stack:

200001d4 <_end-0x4>:
200001d4:	00000000 	andeq	r0, r0, r0

200001d8 <_end>:
	...

Disassembly of section .ARM.attributes:

00000000 <.ARM.attributes>:
   0:	00002f41 	andeq	r2, r0, r1, asr #30
   4:	61656100 	cmnvs	r5, r0, lsl #2
   8:	01006962 	tsteq	r0, r2, ror #18
   c:	00000025 	andeq	r0, r0, r5, lsr #32
  10:	2d453705 	stclcs	7, cr3, [r5, #-20]	; 0xffffffec
  14:	0d06004d 	stceq	0, cr0, [r6, #-308]	; 0xfffffecc
  18:	02094d07 	andeq	r4, r9, #448	; 0x1c0
  1c:	0412060a 	ldreq	r0, [r2], #-1546	; 0xfffff9f6
  20:	01150114 	tsteq	r5, r4, lsl r1
  24:	01180317 	tsteq	r8, r7, lsl r3
  28:	011b011a 	tsteq	fp, sl, lsl r1
  2c:	0122011c 			; <UNDEFINED> instruction: 0x0122011c

Disassembly of section .debug_info:

00000000 <.debug_info>:
   0:	000000e3 	andeq	r0, r0, r3, ror #1
   4:	04010005 	streq	r0, [r1], #-5
   8:	00000000 	andeq	r0, r0, r0
   c:	00493603 	subeq	r3, r9, r3, lsl #12
  10:	24951d00 	ldrcs	r1, [r5], #3328	; 0xd00
  14:	1d760000 	ldclne	0, cr0, [r6, #-0]
  18:	000c0000 	andeq	r0, ip, r0
	...
  28:	01010000 	mrseq	r0, (UNDEF: 1)
  2c:	00061706 	andeq	r1, r6, r6, lsl #14
  30:	08010100 	stmdaeq	r1, {r8}
  34:	00002468 	andeq	r2, r0, r8, ror #8
  38:	20050201 	andcs	r0, r5, r1, lsl #4
  3c:	01000008 	tsteq	r0, r8
  40:	4e230702 	cdpmi	7, 2, cr0, cr3, cr2, {0}
  44:	04010000 	streq	r0, [r1], #-0
  48:	0050a305 	subseq	sl, r0, r5, lsl #6
  4c:	07040100 	streq	r0, [r4, -r0, lsl #2]
  50:	000012a9 	andeq	r1, r0, r9, lsr #5
  54:	da050801 	ble	142060 <_Min_Stack_Size+0x141c60>
  58:	01000037 	tsteq	r0, r7, lsr r0
  5c:	58280708 	stmdapl	r8!, {r3, r8, r9, sl}
  60:	04040000 	streq	r0, [r4], #-0
  64:	746e6905 	strbtvc	r6, [lr], #-2309	; 0xfffff6fb
  68:	07040100 	streq	r0, [r4, -r0, lsl #2]
  6c:	00001835 	andeq	r1, r0, r5, lsr r8
  70:	19040801 	stmdbne	r4, {r0, fp}
  74:	01000002 	tsteq	r0, r2
  78:	061e0801 	ldreq	r0, [lr], -r1, lsl #16
  7c:	77050000 	strvc	r0, [r5, -r0]
  80:	06000000 	streq	r0, [r0], -r0
  84:	00007e04 	andeq	r7, r0, r4, lsl #28
  88:	0e4e0200 	cdpeq	2, 4, cr0, cr14, cr0, {0}
  8c:	62190000 	andsvs	r0, r9, #0
  90:	05000000 	streq	r0, [r0, #-0]
  94:	00000003 	andeq	r0, r0, r3
  98:	08bd0220 	popeq	{r5, r9}
  9c:	621a0000 	andsvs	r0, sl, #0
  a0:	05000000 	streq	r0, [r0, #-0]
  a4:	00000403 	andeq	r0, r0, r3, lsl #8
  a8:	0e070220 	cdpeq	2, 0, cr0, cr7, cr0, {1}
  ac:	621b0000 	andsvs	r0, fp, #0
  b0:	05000000 	streq	r0, [r0, #-0]
  b4:	00008003 	andeq	r8, r0, r3
  b8:	25bf0720 	ldrcs	r0, [pc, #1824]!	; 7e0 <_Min_Stack_Size+0x3e0>
  bc:	ce020000 	cdpgt	0, 0, cr0, cr2, cr0, {0}
  c0:	00006205 	andeq	r6, r0, r5, lsl #4
  c4:	0000d000 	andeq	sp, r0, r0
  c8:	00830800 	addeq	r0, r3, r0, lsl #16
  cc:	00090000 	andeq	r0, r9, r0
  d0:	0011dd0a 	andseq	sp, r1, sl, lsl #26
  d4:	051e0100 	ldreq	r0, [lr, #-256]	; 0xffffff00
  d8:	00000062 	andeq	r0, r0, r2, rrx
  dc:	08000270 	stmdaeq	r0, {r4, r5, r6, r9}
  e0:	00000034 	andeq	r0, r0, r4, lsr r0
  e4:	cd009c01 	stcgt	12, cr9, [r0, #-4]
  e8:	05000006 	streq	r0, [r0, #-6]
  ec:	8f040100 	svchi	0x00040100
  f0:	0f000000 	svceq	0x00000000
  f4:	00004936 	andeq	r4, r0, r6, lsr r9
  f8:	0075a61d 	rsbseq	sl, r5, sp, lsl r6
  fc:	001d7600 	andseq	r7, sp, r0, lsl #12
 100:	00001f00 	andeq	r1, r0, r0, lsl #30
 104:	00000000 	andeq	r0, r0, r0
 108:	00053300 	andeq	r3, r5, r0, lsl #6
 10c:	0017d600 	andseq	sp, r7, r0, lsl #12
 110:	06010500 	streq	r0, [r1], -r0, lsl #10
 114:	00000617 	andeq	r0, r0, r7, lsl r6
 118:	00726901 	rsbseq	r6, r2, r1, lsl #18
 11c:	172b0200 	strne	r0, [fp, -r0, lsl #4]!
 120:	0000003d 	andeq	r0, r0, sp, lsr r0
 124:	68080105 	stmdavs	r8, {r0, r2, r8}
 128:	05000024 	streq	r0, [r0, #-36]	; 0xffffffdc
 12c:	08200502 	stmdaeq	r0!, {r1, r8, sl}
 130:	02050000 	andeq	r0, r5, #0
 134:	004e2307 	subeq	r2, lr, r7, lsl #6
 138:	05040500 	streq	r0, [r4, #-1280]	; 0xfffffb00
 13c:	000050a3 	andeq	r5, r0, r3, lsr #1
 140:	00806301 	addeq	r6, r0, r1, lsl #6
 144:	1b4f0200 	blne	13c094c <_Min_Stack_Size+0x13c054c>
 148:	00000065 	andeq	r0, r0, r5, rrx
 14c:	a9070405 	stmdbge	r7, {r0, r2, sl}
 150:	05000012 	streq	r0, [r0, #-18]	; 0xffffffee
 154:	37da0508 	ldrbcc	r0, [sl, r8, lsl #10]
 158:	08050000 	stmdaeq	r5, {}	; <UNPREDICTABLE>
 15c:	00582807 	subseq	r2, r8, r7, lsl #16
 160:	14020100 	strne	r0, [r2], #-256	; 0xffffff00
 164:	c8020000 	stmdagt	r2, {}	; <UNPREDICTABLE>
 168:	00006c17 	andeq	r6, r0, r7, lsl ip
 16c:	05041000 	streq	r1, [r4, #-0]
 170:	00746e69 	rsbseq	r6, r4, r9, ror #28
 174:	35070405 	strcc	r0, [r7, #-1029]	; 0xfffffbfb
 178:	05000018 	streq	r0, [r0, #-24]	; 0xffffffe8
 17c:	02190408 	andseq	r0, r9, #8, 8	; 0x8000000
 180:	ab010000 	blge	40188 <_Min_Stack_Size+0x3fd88>
 184:	03000082 	movweq	r0, #130	; 0x82
 188:	00520e1e 	subseq	r0, r2, lr, lsl lr
 18c:	9c010000 	stcls	0, cr0, [r1], {-0}
 190:	03000076 	movweq	r0, #118	; 0x76
 194:	00520e22 	subseq	r0, r2, r2, lsr #28
 198:	33010000 	movwcc	r0, #4096	; 0x1000
 19c:	0300007f 	movweq	r0, #127	; 0x7f
 1a0:	00520e2e 	subseq	r0, r2, lr, lsr #28
 1a4:	73010000 	movwvc	r0, #4096	; 0x1000
 1a8:	03000072 	movweq	r0, #114	; 0x72
 1ac:	00440f38 	subeq	r0, r4, r8, lsr pc
 1b0:	90010000 	andls	r0, r1, r0
 1b4:	03000093 	movweq	r0, #147	; 0x93
 1b8:	004b183c 	subeq	r1, fp, ip, lsr r8
 1bc:	80010000 	andhi	r0, r1, r0
 1c0:	03000093 	movweq	r0, #147	; 0x93
 1c4:	004b183f 	subeq	r1, fp, pc, lsr r8
 1c8:	ea010000 	b	401d0 <_Min_Stack_Size+0x3fdd0>
 1cc:	03000082 	movweq	r0, #130	; 0x82
 1d0:	004b184b 	subeq	r1, fp, fp, asr #16
 1d4:	f0010000 			; <UNDEFINED> instruction: 0xf0010000
 1d8:	0300007b 	movweq	r0, #123	; 0x7b
 1dc:	0059145a 	subseq	r1, r9, sl, asr r4
 1e0:	32010000 	andcc	r0, r1, #0
 1e4:	0300007f 	movweq	r0, #127	; 0x7f
 1e8:	00b31066 	adcseq	r1, r3, r6, rrx
 1ec:	0a010000 	beq	401f4 <_Min_Stack_Size+0x3fdf4>
 1f0:	03000097 	movweq	r0, #151	; 0x97
 1f4:	004b18d5 	ldrdeq	r1, [fp], #-133	; 0xffffff7b
 1f8:	18080000 	stmdane	r8, {}	; <UNPREDICTABLE>
 1fc:	05000001 	streq	r0, [r0, #-1]
 200:	061e0801 	ldreq	r0, [lr], -r1, lsl #16
 204:	6b010000 	blvs	4020c <_Min_Stack_Size+0x3fe0c>
 208:	04000072 	streq	r0, [r0], #-114	; 0xffffff8e
 20c:	00311318 	eorseq	r1, r1, r8, lsl r3
 210:	65010000 	strvs	r0, [r1, #-0]
 214:	04000080 	streq	r0, [r0], #-128	; 0xffffff80
 218:	00591430 	subseq	r1, r9, r0, lsr r4
 21c:	42010000 	andmi	r0, r1, #0
 220:	0500006e 	streq	r0, [r0, #-110]	; 0xffffff92
 224:	007a192a 	rsbseq	r1, sl, sl, lsr #18
 228:	d7090000 	strle	r0, [r9, -r0]
 22c:	10000089 	andne	r0, r0, r9, lsl #1
 230:	016a2f06 	cmneq	sl, r6, lsl #30
 234:	da020000 	ble	8023c <_Min_Stack_Size+0x7fe3c>
 238:	0600006d 	streq	r0, [r0], -sp, rrx
 23c:	01370930 	teqeq	r7, r0, lsr r9
 240:	02000000 	andeq	r0, r0, #0
 244:	00009151 	andeq	r9, r0, r1, asr r1
 248:	52073106 	andpl	r3, r7, #-2147483647	; 0x80000001
 24c:	08000000 	stmdaeq	r0, {}	; <UNPREDICTABLE>
 250:	82ad0100 	adchi	r0, sp, #0, 2
 254:	61070000 	mrsvs	r0, (UNDEF: 7)
 258:	00009b14 	andeq	r9, r0, r4, lsl fp
 25c:	769e0100 	ldrvc	r0, [lr], r0, lsl #2
 260:	66070000 	strvs	r0, [r7], -r0
 264:	0000a715 	andeq	sl, r0, r5, lsl r7
 268:	8a700100 	bhi	1c00670 <_Min_Stack_Size+0x1c00270>
 26c:	6b070000 	blvs	1c0274 <_Min_Stack_Size+0x1bfe74>
 270:	00006517 	andeq	r6, r0, r7, lsl r5
 274:	82ec0100 	rschi	r0, ip, #0, 2
 278:	89070000 	stmdbhi	r7, {}	; <UNPREDICTABLE>
 27c:	0000e311 	andeq	lr, r0, r1, lsl r3
 280:	7f340100 	svcvc	0x00340100
 284:	9b070000 	blls	1c028c <_Min_Stack_Size+0x1bfe8c>
 288:	0000fb11 	andeq	pc, r0, r1, lsl fp	; <UNPREDICTABLE>
 28c:	72750100 	rsbsvc	r0, r5, #0, 2
 290:	9f070000 	svcls	0x00070000
 294:	0000bf11 	andeq	fp, r0, r1, lsl pc
 298:	93920100 	orrsls	r0, r2, #0, 2
 29c:	a3070000 	movwge	r0, #28672	; 0x7000
 2a0:	0000cb11 	andeq	ip, r0, r1, lsl fp
 2a4:	93820100 	orrls	r0, r2, #0, 2
 2a8:	a7070000 	strge	r0, [r7, -r0]
 2ac:	0000d711 	andeq	sp, r0, r1, lsl r7
 2b0:	7bf20100 	blvc	ffc806b8 <_estack+0xdfc606b8>
 2b4:	bb070000 	bllt	1c02bc <_Min_Stack_Size+0x1bfebc>
 2b8:	0000ef12 	andeq	lr, r0, r2, lsl pc
 2bc:	970c0100 	strls	r0, [ip, -r0, lsl #2]
 2c0:	c0070000 	andgt	r0, r7, r0
 2c4:	00010713 	andeq	r0, r1, r3, lsl r7
 2c8:	948f0900 	strls	r0, [pc], #2304	; 2d0 <_Min_Heap_Size+0xd0>
 2cc:	08580000 	ldmdaeq	r8, {}^	; <UNPREDICTABLE>
 2d0:	0002a51b 	andeq	sl, r2, fp, lsl r5
 2d4:	89aa0200 	stmibhi	sl!, {r9}
 2d8:	1d080000 	stcne	0, cr0, [r8, #-0]
 2dc:	0001a609 	andeq	sl, r1, r9, lsl #12
 2e0:	ad020000 	stcge	0, cr0, [r2, #-0]
 2e4:	08000096 	stmdaeq	r0, {r1, r2, r4, r7}
 2e8:	018e091e 	orreq	r0, lr, lr, lsl r9
 2ec:	02020000 	andeq	r0, r2, #0
 2f0:	00009388 	andeq	r9, r0, r8, lsl #7
 2f4:	ca0a1f08 	bgt	287f1c <_Min_Stack_Size+0x287b1c>
 2f8:	04000001 	streq	r0, [r0], #-1
 2fc:	00885f02 	addeq	r5, r8, r2, lsl #30
 300:	0b200800 	bleq	802308 <_Min_Stack_Size+0x801f08>
 304:	000001d6 	ldrdeq	r0, [r0], -r6
 308:	76f80208 	ldrbtvc	r0, [r8], r8, lsl #4
 30c:	21080000 	mrscs	r0, (UNDEF: 8)
 310:	0001b209 	andeq	fp, r1, r9, lsl #4
 314:	cd020a00 	vstrgt	s0, [r2, #-0]
 318:	0800007f 	stmdaeq	r0, {r0, r1, r2, r3, r4, r5, r6}
 31c:	01be0922 			; <UNDEFINED> instruction: 0x01be0922
 320:	020c0000 	andeq	r0, ip, #0
 324:	000077b0 			; <UNDEFINED> instruction: 0x000077b0
 328:	a6092308 	strge	r2, [r9], -r8, lsl #6
 32c:	0e000001 	cdpeq	0, 0, cr0, cr0, cr1, {0}
 330:	00743402 	rsbseq	r3, r4, r2, lsl #8
 334:	09240800 	stmdbeq	r4!, {fp}
 338:	0000019a 	muleq	r0, sl, r1
 33c:	987d0210 	ldmdals	sp!, {r4, r9}^
 340:	2a080000 	bcs	200348 <_Min_Stack_Size+0x1fff48>
 344:	00014313 	andeq	r4, r1, r3, lsl r3
 348:	3a021800 	bcc	86350 <_Min_Stack_Size+0x85f50>
 34c:	0800006e 	stmdaeq	r0, {r1, r2, r3, r5, r6}
 350:	0143132b 	cmpeq	r3, fp, lsr #6
 354:	02280000 	eoreq	r0, r8, #0
 358:	00006d00 	andeq	r6, r0, r0, lsl #26
 35c:	43132c08 	tstmi	r3, #8, 24	; 0x800
 360:	38000001 	stmdacc	r0, {r0}
 364:	006d2c02 	rsbeq	r2, sp, r2, lsl #24
 368:	0d2d0800 	stceq	8, cr0, [sp, #-0]
 36c:	00000176 	andeq	r0, r0, r6, ror r1
 370:	6d370248 	lfmvs	f0, 4, [r7, #-288]!	; 0xfffffee0
 374:	2e080000 	cdpcs	0, 0, cr0, cr8, cr0, {0}
 378:	00016a0c 	andeq	r6, r1, ip, lsl #20
 37c:	ff024c00 			; <UNDEFINED> instruction: 0xff024c00
 380:	08000076 	stmdaeq	r0, {r1, r2, r4, r5, r6}
 384:	02a50830 	adceq	r0, r5, #48, 16	; 0x300000
 388:	00500000 	subseq	r0, r0, r0
 38c:	0000520a 	andeq	r5, r0, sl, lsl #4
 390:	0002b500 	andeq	fp, r2, r0, lsl #10
 394:	008d0b00 	addeq	r0, sp, r0, lsl #22
 398:	00010000 	andeq	r0, r1, r0
 39c:	736d7411 	cmnvc	sp, #285212672	; 0x11000000
 3a0:	11091000 	mrsne	r1, (UNDEF: 9)
 3a4:	0002f708 	andeq	pc, r2, r8, lsl #14
 3a8:	7dd20200 	lfmvc	f0, 2, [r2]
 3ac:	12090000 	andne	r0, r9, #0
 3b0:	0001820a 	andeq	r8, r1, sl, lsl #4
 3b4:	cb020000 	blgt	803bc <_Min_Stack_Size+0x7ffbc>
 3b8:	0900007c 	stmdbeq	r0, {r2, r3, r4, r5, r6}
 3bc:	01820a13 	orreq	r0, r2, r3, lsl sl
 3c0:	02040000 	andeq	r0, r4, #0
 3c4:	00006e2f 	andeq	r6, r0, pc, lsr #28
 3c8:	820a1409 	andhi	r1, sl, #150994944	; 0x9000000
 3cc:	08000001 	stmdaeq	r0, {r0}
 3d0:	0091d402 	addseq	sp, r1, r2, lsl #8
 3d4:	0a150900 	beq	5427dc <_Min_Stack_Size+0x5423dc>
 3d8:	00000182 	andeq	r0, r0, r2, lsl #3
 3dc:	130a000c 	movwne	r0, #40972	; 0xa00c
 3e0:	07000001 	streq	r0, [r0, -r1]
 3e4:	0b000003 	bleq	3f8 <_Min_Heap_Size+0x1f8>
 3e8:	0000008d 	andeq	r0, r0, sp, lsl #1
 3ec:	940c0000 	strls	r0, [ip], #-0
 3f0:	47000086 	strmi	r0, [r0, -r6, lsl #1]
 3f4:	0002f707 	andeq	pc, r2, r7, lsl #14
 3f8:	00030500 	andeq	r0, r3, r0, lsl #10
 3fc:	0c000000 	stceq	0, cr0, [r0], {-0}
 400:	0000778d 	andeq	r7, r0, sp, lsl #15
 404:	03290848 			; <UNDEFINED> instruction: 0x03290848
 408:	03050000 	movweq	r0, #20480	; 0x5000
 40c:	00000000 	andeq	r0, r0, r0
 410:	00011308 	andeq	r1, r1, r8, lsl #6
 414:	76780d00 	ldrbtvc	r0, [r8], -r0, lsl #26
 418:	44010000 	strmi	r0, [r1], #-0
 41c:	0000860c 	andeq	r8, r0, ip, lsl #12
 420:	77520d00 	ldrbvc	r0, [r2, -r0, lsl #26]
 424:	130a0000 	movwne	r0, #40960	; 0xa000
 428:	0003460d 	andeq	r4, r3, sp, lsl #12
 42c:	00860800 	addeq	r0, r6, r0, lsl #16
 430:	58060000 	stmdapl	r6, {}	; <UNPREDICTABLE>
 434:	ca00007b 	bgt	628 <_Min_Stack_Size+0x228>
 438:	00008605 	andeq	r8, r0, r5, lsl #12
 43c:	00000000 	andeq	r0, r0, r0
 440:	00002200 	andeq	r2, r0, r0, lsl #4
 444:	8f9c0100 	svchi	0x009c0100
 448:	04000003 	streq	r0, [r0], #-3
 44c:	000014cc 	andeq	r1, r0, ip, asr #9
 450:	011313ca 	tsteq	r3, sl, asr #7
 454:	91020000 	mrsls	r0, (UNDEF: 2)
 458:	82a60474 	adchi	r0, r6, #116, 8	; 0x74000000
 45c:	20ca0000 	sbccs	r0, sl, r0
 460:	00000329 	andeq	r0, r0, r9, lsr #6
 464:	03709102 	cmneq	r0, #-2147483648	; 0x80000000
 468:	00766e65 	rsbseq	r6, r6, r5, ror #28
 46c:	03292dca 			; <UNDEFINED> instruction: 0x03292dca
 470:	91020000 	mrsls	r0, (UNDEF: 2)
 474:	5312006c 	tstpl	r2, #108	; 0x6c
 478:	01000084 	smlabbeq	r0, r4, r0, r0
 47c:	008605c4 	addeq	r0, r6, r4, asr #11
 480:	00000000 	andeq	r0, r0, r0
 484:	00160000 	andseq	r0, r6, r0
 488:	9c010000 	stcls	0, cr0, [r1], {-0}
 48c:	00779506 	rsbseq	r9, r7, r6, lsl #10
 490:	8605bc00 	strhi	fp, [r5], -r0, lsl #24
 494:	00000000 	andeq	r0, r0, r0
 498:	20000000 	andcs	r0, r0, r0
 49c:	01000000 	mrseq	r0, (UNDEF: 0)
 4a0:	0003db9c 	muleq	r3, ip, fp
 4a4:	6c6f0300 	stclvs	3, cr0, [pc], #-0	; 4ac <_Min_Stack_Size+0xac>
 4a8:	11bc0064 			; <UNDEFINED> instruction: 0x11bc0064
 4ac:	00000113 	andeq	r0, r0, r3, lsl r1
 4b0:	03749102 	cmneq	r4, #-2147483648	; 0x80000000
 4b4:	0077656e 	rsbseq	r6, r7, lr, ror #10
 4b8:	01131cbc 			; <UNDEFINED> instruction: 0x01131cbc
 4bc:	91020000 	mrsls	r0, (UNDEF: 2)
 4c0:	8e070070 	mcrhi	0, 0, r0, cr7, cr0, {3}
 4c4:	b5000094 	strlt	r0, [r0, #-148]	; 0xffffff6c
 4c8:	00000086 	andeq	r0, r0, r6, lsl #1
 4cc:	00000000 	andeq	r0, r0, r0
 4d0:	00000020 	andeq	r0, r0, r0, lsr #32
 4d4:	040f9c01 	streq	r9, [pc], #-3073	; 4dc <_Min_Stack_Size+0xdc>
 4d8:	dc040000 	stcle	0, cr0, [r4], {-0}
 4dc:	b500007d 	strlt	r0, [r0, #-125]	; 0xffffff83
 4e0:	00011311 	andeq	r1, r1, r1, lsl r3
 4e4:	74910200 	ldrvc	r0, [r1], #512	; 0x200
 4e8:	00747303 	rsbseq	r7, r4, r3, lsl #6
 4ec:	040f24b5 	streq	r2, [pc], #-1205	; 4f4 <_Min_Stack_Size+0xf4>
 4f0:	91020000 	mrsls	r0, (UNDEF: 2)
 4f4:	e2080070 	and	r0, r8, #112	; 0x70
 4f8:	07000001 	streq	r0, [r0, -r1]
 4fc:	00007a3c 	andeq	r7, r0, ip, lsr sl
 500:	000086af 	andeq	r8, r0, pc, lsr #13
 504:	00000000 	andeq	r0, r0, r0
 508:	00001800 	andeq	r1, r0, r0, lsl #16
 50c:	3b9c0100 	blcc	fe700914 <_estack+0xde6e0914>
 510:	03000004 	movweq	r0, #4
 514:	00667562 	rsbeq	r7, r6, r2, ror #10
 518:	043b18af 	ldrteq	r1, [fp], #-2223	; 0xfffff751
 51c:	91020000 	mrsls	r0, (UNDEF: 2)
 520:	b5080074 	strlt	r0, [r8, #-116]	; 0xffffff8c
 524:	06000002 	streq	r0, [r0], -r2
 528:	00009023 	andeq	r9, r0, r3, lsr #32
 52c:	008605a8 	addeq	r0, r6, r8, lsr #11
 530:	00000000 	andeq	r0, r0, r0
 534:	001e0000 	andseq	r0, lr, r0
 538:	9c010000 	stcls	0, cr0, [r1], {-0}
 53c:	00000468 	andeq	r0, r0, r8, ror #8
 540:	0014cc04 	andseq	ip, r4, r4, lsl #24
 544:	1313a800 	tstne	r3, #0, 16
 548:	02000001 	andeq	r0, r0, #1
 54c:	06007491 			; <UNDEFINED> instruction: 0x06007491
 550:	00006cfa 	strdeq	r6, [r0], -sl
 554:	008605a1 	addeq	r0, r6, r1, lsr #11
 558:	00000000 	andeq	r0, r0, r0
 55c:	001e0000 	andseq	r0, lr, r0
 560:	9c010000 	stcls	0, cr0, [r1], {-0}
 564:	00000490 	muleq	r0, r0, r4
 568:	00806e04 	addeq	r6, r0, r4, lsl #28
 56c:	4610a100 	ldrmi	sl, [r0], -r0, lsl #2
 570:	02000003 	andeq	r0, r0, #3
 574:	07007491 			; <UNDEFINED> instruction: 0x07007491
 578:	000092f7 	strdeq	r9, [r0], -r7
 57c:	00008699 	muleq	r0, r9, r6
 580:	00000000 	andeq	r0, r0, r0
 584:	00001c00 	andeq	r1, r0, r0, lsl #24
 588:	c69c0100 	ldrgt	r0, [ip], r0, lsl #2
 58c:	04000004 	streq	r0, [r0], #-4
 590:	00006df9 	strdeq	r6, [r0], -r9
 594:	01131199 			; <UNDEFINED> instruction: 0x01131199
 598:	91020000 	mrsls	r0, (UNDEF: 2)
 59c:	7bf9046c 	blvc	ffe41754 <_estack+0xdfe21754>
 5a0:	1b990000 	blne	fe6405a8 <_estack+0xde6205a8>
 5a4:	00000086 	andeq	r0, r0, r6, lsl #1
 5a8:	13749102 	cmnne	r4, #-2147483648	; 0x80000000
 5ac:	95d30700 	ldrbls	r0, [r3, #1792]	; 0x700
 5b0:	86910000 	ldrhi	r0, [r1], r0
 5b4:	b4000000 	strlt	r0, [r0], #-0
 5b8:	1a080003 	bne	2005cc <_Min_Stack_Size+0x2001cc>
 5bc:	01000000 	mrseq	r0, (UNDEF: 0)
 5c0:	0005099c 	muleq	r5, ip, r9
 5c4:	7ddc0400 	cfldrdvc	mvd0, [ip]
 5c8:	10910000 	addsne	r0, r1, r0
 5cc:	00000086 	andeq	r0, r0, r6, lsl #1
 5d0:	03749102 	cmneq	r4, #-2147483648	; 0x80000000
 5d4:	00727470 	rsbseq	r7, r2, r0, ror r4
 5d8:	00861a91 	umulleq	r1, r6, r1, sl
 5dc:	91020000 	mrsls	r0, (UNDEF: 2)
 5e0:	69640370 	stmdbvs	r4!, {r4, r5, r6, r8, r9}^
 5e4:	23910072 	orrscs	r0, r1, #114	; 0x72
 5e8:	00000086 	andeq	r0, r0, r6, lsl #1
 5ec:	006c9102 	rsbeq	r9, ip, r2, lsl #2
 5f0:	007ac107 	rsbseq	ip, sl, r7, lsl #2
 5f4:	00868b00 	addeq	r8, r6, r0, lsl #22
 5f8:	039e0000 	orrseq	r0, lr, #0
 5fc:	00160800 	andseq	r0, r6, r0, lsl #16
 600:	9c010000 	stcls	0, cr0, [r1], {-0}
 604:	00000530 	andeq	r0, r0, r0, lsr r5
 608:	007ddc04 	rsbseq	sp, sp, r4, lsl #24
 60c:	86118b00 	ldrhi	r8, [r1], -r0, lsl #22
 610:	02000000 	andeq	r0, r0, #0
 614:	07007491 			; <UNDEFINED> instruction: 0x07007491
 618:	00008f63 	andeq	r8, r0, r3, ror #30
 61c:	00008684 	andeq	r8, r0, r4, lsl #13
 620:	00037e00 	andeq	r7, r3, r0, lsl #28
 624:	00002008 	andeq	r2, r0, r8
 628:	649c0100 	ldrvs	r0, [ip], #256	; 0x100
 62c:	04000005 	streq	r0, [r0], #-5
 630:	00007ddc 	ldrdeq	r7, [r0], -ip
 634:	00861084 	addeq	r1, r6, r4, lsl #1
 638:	91020000 	mrsls	r0, (UNDEF: 2)
 63c:	74730374 	ldrbtvc	r0, [r3], #-884	; 0xfffffc8c
 640:	0f238400 	svceq	0x00238400
 644:	02000004 	andeq	r0, r0, #4
 648:	07007091 			; <UNDEFINED> instruction: 0x07007091
 64c:	00007aba 			; <UNDEFINED> instruction: 0x00007aba
 650:	0000867d 	andeq	r8, r0, sp, ror r6
 654:	00036600 	andeq	r6, r3, r0, lsl #12
 658:	00001808 	andeq	r1, r0, r8, lsl #16
 65c:	8b9c0100 	blhi	fe700a64 <_estack+0xde6e0a64>
 660:	04000005 	streq	r0, [r0], #-5
 664:	00007ddc 	ldrdeq	r7, [r0], -ip
 668:	0086107d 	addeq	r1, r6, sp, ror r0
 66c:	91020000 	mrsls	r0, (UNDEF: 2)
 670:	82060074 	andhi	r0, r6, #116	; 0x74
 674:	7000006d 	andvc	r0, r0, sp, rrx
 678:	0000861b 	andeq	r8, r0, fp, lsl r6
 67c:	00032e00 	andeq	r2, r3, r0, lsl #28
 680:	00003808 	andeq	r3, r0, r8, lsl #16
 684:	dc9c0100 	ldfles	f0, [ip], {0}
 688:	04000005 	streq	r0, [r0], #-5
 68c:	00007ddc 	ldrdeq	r7, [r0], -ip
 690:	00862670 	addeq	r2, r6, r0, ror r6
 694:	91020000 	mrsls	r0, (UNDEF: 2)
 698:	7470036c 	ldrbtvc	r0, [r0], #-876	; 0xfffffc94
 69c:	32700072 	rsbscc	r0, r0, #114	; 0x72
 6a0:	00000113 	andeq	r0, r0, r3, lsl r1
 6a4:	03689102 	cmneq	r8, #-2147483648	; 0x80000000
 6a8:	006e656c 	rsbeq	r6, lr, ip, ror #10
 6ac:	00863b70 	addeq	r3, r6, r0, ror fp
 6b0:	91020000 	mrsls	r0, (UNDEF: 2)
 6b4:	7b0b0e64 	blvc	2c404c <_Min_Stack_Size+0x2c3c4c>
 6b8:	86730000 	ldrbthi	r0, [r3], -r0
 6bc:	02000000 	andeq	r0, r0, #0
 6c0:	06007491 			; <UNDEFINED> instruction: 0x06007491
 6c4:	00008918 	andeq	r8, r0, r8, lsl r9
 6c8:	00861b63 	addeq	r1, r6, r3, ror #22
 6cc:	02f40000 	rscseq	r0, r4, #0
 6d0:	003a0800 	eorseq	r0, sl, r0, lsl #16
 6d4:	9c010000 	stcls	0, cr0, [r1], {-0}
 6d8:	0000062d 	andeq	r0, r0, sp, lsr #12
 6dc:	007ddc04 	rsbseq	sp, sp, r4, lsl #24
 6e0:	86256300 	strthi	r6, [r5], -r0, lsl #6
 6e4:	02000000 	andeq	r0, r0, #0
 6e8:	70036c91 	mulvc	r3, r1, ip
 6ec:	63007274 	movwvs	r7, #628	; 0x274
 6f0:	00011331 	andeq	r1, r1, r1, lsr r3
 6f4:	68910200 	ldmvs	r1, {r9}
 6f8:	6e656c03 	cdpvs	12, 6, cr6, cr5, cr3, {0}
 6fc:	863a6300 	ldrthi	r6, [sl], -r0, lsl #6
 700:	02000000 	andeq	r0, r0, #0
 704:	0b0e6491 	bleq	399950 <_Min_Stack_Size+0x399550>
 708:	6600007b 			; <UNDEFINED> instruction: 0x6600007b
 70c:	00000086 	andeq	r0, r0, r6, lsl #1
 710:	00749102 	rsbseq	r9, r4, r2, lsl #2
 714:	00857f14 	addeq	r7, r5, r4, lsl pc
 718:	065d0100 	ldrbeq	r0, [sp], -r0, lsl #2
 71c:	00000000 	andeq	r0, r0, r0
 720:	00000016 	andeq	r0, r0, r6, lsl r0
 724:	06529c01 	ldrbeq	r9, [r2], -r1, lsl #24
 728:	6e040000 	cdpvs	0, 0, cr0, cr4, cr0, {0}
 72c:	5d000080 	stcpl	0, cr0, [r0, #-512]	; 0xfffffe00
 730:	00008611 	andeq	r8, r0, r1, lsl r6
 734:	74910200 	ldrvc	r0, [r1], #512	; 0x200
 738:	89850600 	stmibhi	r5, {r9, sl}
 73c:	05550000 	ldrbeq	r0, [r5, #-0]
 740:	00000086 	andeq	r0, r0, r6, lsl #1
 744:	00000000 	andeq	r0, r0, r0
 748:	00000020 	andeq	r0, r0, r0, lsr #32
 74c:	06889c01 	streq	r9, [r8], r1, lsl #24
 750:	70030000 	andvc	r0, r3, r0
 754:	55006469 	strpl	r6, [r0, #-1129]	; 0xfffffb97
 758:	0000860f 	andeq	r8, r0, pc, lsl #12
 75c:	74910200 	ldrvc	r0, [r1], #512	; 0x200
 760:	67697303 	strbvs	r7, [r9, -r3, lsl #6]!
 764:	86185500 	ldrhi	r5, [r8], -r0, lsl #10
 768:	02000000 	andeq	r0, r0, #0
 76c:	15007091 	strne	r7, [r0, #-145]	; 0xffffff6f
 770:	000077c2 	andeq	r7, r0, r2, asr #15
 774:	86055001 	strhi	r5, [r5], -r1
 778:	00000000 	andeq	r0, r0, r0
 77c:	10000000 	andne	r0, r0, r0
 780:	01000000 	mrseq	r0, (UNDEF: 0)
 784:	8a78169c 	bhi	1e061fc <_Min_Stack_Size+0x1e05dfc>
 788:	4c010000 	stcmi	0, cr0, [r1], {-0}
 78c:	00000006 	andeq	r0, r0, r6
 790:	00000e00 	andeq	r0, r0, r0, lsl #28
 794:	179c0100 	ldrne	r0, [ip, r0, lsl #2]
 798:	00008086 	andeq	r8, r0, r6, lsl #1
 79c:	a4063001 	strge	r3, [r6], #-1
 7a0:	50080002 	andpl	r0, r8, r2
 7a4:	01000000 	mrseq	r0, (UNDEF: 0)
 7a8:	6863039c 	stmdavs	r3!, {r2, r3, r4, r7, r8, r9}^
 7ac:	1f1b3000 	svcne	0x001b3000
 7b0:	02000001 	andeq	r0, r0, #1
 7b4:	00007791 	muleq	r0, r1, r7
 7b8:	00000164 	andeq	r0, r0, r4, ror #2
 7bc:	04010005 	streq	r0, [r1], #-5
 7c0:	00000240 	andeq	r0, r0, r0, asr #4
 7c4:	00493607 	subeq	r3, r9, r7, lsl #12
 7c8:	98911d00 	ldmls	r1, {r8, sl, fp, ip}
 7cc:	1d760000 	ldclne	0, cr0, [r6, #-0]
 7d0:	009e0000 	addseq	r0, lr, r0
 7d4:	00000000 	andeq	r0, r0, r0
 7d8:	0e190000 	cdpeq	0, 1, cr0, cr9, cr0, {0}
 7dc:	334b0000 	movtcc	r0, #45056	; 0xb000
 7e0:	04080000 	streq	r0, [r8], #-0
 7e4:	746e6905 	strbtvc	r6, [lr], #-2309	; 0xfffff6fb
 7e8:	5c600200 	sfmpl	f0, 2, [r0], #-0
 7ec:	91020000 	mrsls	r0, (UNDEF: 2)
 7f0:	00002a0d 	andeq	r2, r0, sp, lsl #20
 7f4:	07040100 	streq	r0, [r4, -r0, lsl #2]
 7f8:	00001835 	andeq	r1, r0, r5, lsr r8
 7fc:	da050801 	ble	142808 <_Min_Stack_Size+0x142408>
 800:	01000037 	tsteq	r0, r7, lsr r0
 804:	02190408 	andseq	r0, r9, #8, 8	; 0x8000000
 808:	01010000 	mrseq	r0, (UNDEF: 1)
 80c:	00061706 	andeq	r1, r6, r6, lsl #14
 810:	72690200 	rsbvc	r0, r9, #0, 4
 814:	2b030000 	blcs	c081c <_Min_Stack_Size+0xc041c>
 818:	00006517 	andeq	r6, r0, r7, lsl r5
 81c:	08010100 	stmdaeq	r1, {r8}
 820:	00002468 	andeq	r2, r0, r8, ror #8
 824:	20050201 	andcs	r0, r5, r1, lsl #4
 828:	01000008 	tsteq	r0, r8
 82c:	4e230702 	cdpmi	7, 2, cr0, cr3, cr2, {0}
 830:	04010000 	streq	r0, [r1], #-0
 834:	0050a305 	subseq	sl, r0, r5, lsl #6
 838:	80630200 	rsbhi	r0, r3, r0, lsl #4
 83c:	4f030000 	svcmi	0x00030000
 840:	00008d1b 	andeq	r8, r0, fp, lsl sp
 844:	07040100 	streq	r0, [r4, -r0, lsl #2]
 848:	000012a9 	andeq	r1, r0, r9, lsr #5
 84c:	28070801 	stmdacs	r7, {r0, fp}
 850:	09000058 	stmdbeq	r0, {r3, r4, r6}
 854:	08010104 	stmdaeq	r1, {r2, r8}
 858:	0000061e 	andeq	r0, r0, lr, lsl r6
 85c:	00726b02 	rsbseq	r6, r2, r2, lsl #22
 860:	13180400 	tstne	r8, #0, 8
 864:	00000059 	andeq	r0, r0, r9, asr r0
 868:	0000a406 	andeq	sl, r0, r6, lsl #8
 86c:	80650200 	rsbhi	r0, r5, r0, lsl #4
 870:	30040000 	andcc	r0, r4, r0
 874:	00008114 	andeq	r8, r0, r4, lsl r1
 878:	00b50600 	adcseq	r0, r5, r0, lsl #12
 87c:	c0030000 	andgt	r0, r3, r0
 880:	1e000098 	mcrne	0, 0, r0, cr0, cr8, {4}
 884:	0000d711 	andeq	sp, r0, r1, lsl r7
 888:	84030500 	strhi	r0, [r3], #-1280	; 0xfffffb00
 88c:	04200000 	strteq	r0, [r0], #-0
 890:	000000a4 	andeq	r0, r0, r4, lsr #1
 894:	0077520a 	rsbseq	r5, r7, sl, lsl #4
 898:	0d130500 	cfldr32eq	mvfx0, [r3, #-0]
 89c:	000000e8 	andeq	r0, r0, r8, ror #1
 8a0:	00002a04 	andeq	r2, r0, r4, lsl #20
 8a4:	98ba0b00 	ldmls	sl!, {r8, r9, fp}
 8a8:	35010000 	strcc	r0, [r1, #-0]
 8ac:	00009b07 	andeq	r9, r0, r7, lsl #22
 8b0:	0003d000 	andeq	sp, r3, r0
 8b4:	00006c08 	andeq	r6, r0, r8, lsl #24
 8b8:	629c0100 	addsvs	r0, ip, #0, 2
 8bc:	0c000001 	stceq	0, cr0, [r0], {1}
 8c0:	000098d0 	ldrdeq	r9, [r0], -r0
 8c4:	31173501 	tstcc	r7, r1, lsl #10
 8c8:	02000000 	andeq	r0, r0, #0
 8cc:	cb056491 	blgt	159b18 <_Min_Stack_Size+0x159718>
 8d0:	37000098 			; <UNDEFINED> instruction: 0x37000098
 8d4:	0000a412 	andeq	sl, r0, r2, lsl r4
 8d8:	98d50500 	ldmls	r5, {r8, sl}^
 8dc:	12380000 	eorsne	r0, r8, #0
 8e0:	000000a4 	andeq	r0, r0, r4, lsr #1
 8e4:	0098a105 	addseq	sl, r8, r5, lsl #2
 8e8:	b5133900 	ldrlt	r3, [r3, #-2304]	; 0xfffff700
 8ec:	03000000 	movweq	r0, #0
 8f0:	000098dd 	ldrdeq	r9, [r0], -sp
 8f4:	00c1123a 	sbceq	r1, r1, sl, lsr r2
 8f8:	91020000 	mrsls	r0, (UNDEF: 2)
 8fc:	98b10374 	ldmls	r1!, {r2, r4, r5, r6, r8, r9}
 900:	123b0000 	eorsne	r0, fp, #0
 904:	00000162 	andeq	r0, r0, r2, ror #2
 908:	03709102 	cmneq	r0, #-2147483648	; 0x80000000
 90c:	000098e9 	andeq	r9, r0, r9, ror #17
 910:	00d70c3c 	sbcseq	r0, r7, ip, lsr ip
 914:	91020000 	mrsls	r0, (UNDEF: 2)
 918:	b004006c 	andlt	r0, r4, ip, rrx
 91c:	00000000 	andeq	r0, r0, r0
 920:	0000002c 	andeq	r0, r0, ip, lsr #32
 924:	04010005 	streq	r0, [r1], #-5
 928:	000002fc 	strdeq	r0, [r0], -ip
 92c:	00139a01 	andseq	r9, r3, r1, lsl #20
 930:	0000b100 	andeq	fp, r0, r0, lsl #2
 934:	0098f700 	addseq	pc, r8, r0, lsl #14
 938:	001d7600 	andseq	r7, sp, r0, lsl #12
 93c:	00991a00 	addseq	r1, r9, r0, lsl #20
 940:	02800100 	addeq	r0, r0, #0, 2
 944:	00009928 	andeq	r9, r0, r8, lsr #18
 948:	00043d2e 	andeq	r3, r4, lr, lsr #26
 94c:	00033808 	andeq	r3, r3, r8, lsl #16

Disassembly of section .debug_abbrev:

00000000 <.debug_abbrev>:
   0:	0b002401 	bleq	900c <_Min_Stack_Size+0x8c0c>
   4:	030b3e0b 	movweq	r3, #48651	; 0xbe0b
   8:	0200000e 	andeq	r0, r0, #14
   c:	0e030034 	mcreq	0, 0, r0, cr3, cr4, {1}
  10:	3b01213a 	blcc	48500 <_Min_Stack_Size+0x48100>
  14:	0521390b 	streq	r3, [r1, #-2315]!	; 0xfffff6f5
  18:	193f1349 	ldmdbne	pc!, {r0, r3, r6, r8, r9, ip}	; <UNPREDICTABLE>
  1c:	00001802 	andeq	r1, r0, r2, lsl #16
  20:	25011103 	strcs	r1, [r1, #-259]	; 0xfffffefd
  24:	030b130e 	movweq	r1, #45838	; 0xb30e
  28:	550e1b0e 	strpl	r1, [lr, #-2830]	; 0xfffff4f2
  2c:	10011117 	andne	r1, r1, r7, lsl r1
  30:	00177917 	andseq	r7, r7, r7, lsl r9
  34:	00240400 	eoreq	r0, r4, r0, lsl #8
  38:	0b3e0b0b 	bleq	f82c6c <_Min_Stack_Size+0xf8286c>
  3c:	00000803 	andeq	r0, r0, r3, lsl #16
  40:	49002605 	stmdbmi	r0, {r0, r2, r9, sl, sp}
  44:	06000013 			; <UNDEFINED> instruction: 0x06000013
  48:	0b0b000f 	bleq	2c008c <_Min_Stack_Size+0x2bfc8c>
  4c:	00001349 	andeq	r1, r0, r9, asr #6
  50:	3f012e07 	svccc	0x00012e07
  54:	3a0e0319 	bcc	380cc0 <_Min_Stack_Size+0x3808c0>
  58:	390b3b0b 	stmdbcc	fp, {r0, r1, r3, r8, r9, fp, ip, sp}
  5c:	4919270b 	ldmdbmi	r9, {r0, r1, r3, r8, r9, sl, sp}
  60:	01193c13 	tsteq	r9, r3, lsl ip
  64:	08000013 	stmdaeq	r0, {r0, r1, r4}
  68:	13490005 	movtne	r0, #36869	; 0x9005
  6c:	18090000 	stmdane	r9, {}	; <UNPREDICTABLE>
  70:	0a000000 	beq	78 <_Min_Heap_Size-0x188>
  74:	193f002e 	ldmdbne	pc!, {r1, r2, r3, r5}	; <UNPREDICTABLE>
  78:	0b3a0e03 	bleq	e8388c <_Min_Stack_Size+0xe8348c>
  7c:	0b390b3b 	bleq	e42d70 <_Min_Stack_Size+0xe42970>
  80:	13491927 	movtne	r1, #39207	; 0x9927
  84:	06120111 			; <UNDEFINED> instruction: 0x06120111
  88:	197c1840 	ldmdbne	ip!, {r6, fp, ip}^
  8c:	01000000 	mrseq	r0, (UNDEF: 0)
  90:	0e030016 	mcreq	0, 0, r0, cr3, cr6, {0}
  94:	0b3b0b3a 	bleq	ec2d84 <_Min_Stack_Size+0xec2984>
  98:	13490b39 	movtne	r0, #39737	; 0x9b39
  9c:	0d020000 	stceq	0, cr0, [r2, #-0]
  a0:	3a0e0300 	bcc	380ca8 <_Min_Stack_Size+0x3808a8>
  a4:	390b3b0b 	stmdbcc	fp, {r0, r1, r3, r8, r9, fp, ip, sp}
  a8:	3813490b 	ldmdacc	r3, {r0, r1, r3, r8, fp, lr}
  ac:	0300000b 	movweq	r0, #11
  b0:	08030005 	stmdaeq	r3, {r0, r2}
  b4:	3b01213a 	blcc	485a4 <_Min_Stack_Size+0x481a4>
  b8:	490b390b 	stmdbmi	fp, {r0, r1, r3, r8, fp, ip, sp}
  bc:	00180213 	andseq	r0, r8, r3, lsl r2
  c0:	00050400 	andeq	r0, r5, r0, lsl #8
  c4:	213a0e03 	teqcs	sl, r3, lsl #28
  c8:	390b3b01 	stmdbcc	fp, {r0, r8, r9, fp, ip, sp}
  cc:	0213490b 	andseq	r4, r3, #180224	; 0x2c000
  d0:	05000018 	streq	r0, [r0, #-24]	; 0xffffffe8
  d4:	0b0b0024 	bleq	2c016c <_Min_Stack_Size+0x2bfd6c>
  d8:	0e030b3e 	vmoveq.16	d3[0], r0
  dc:	2e060000 	cdpcs	0, 0, cr0, cr6, cr0, {0}
  e0:	03193f01 	tsteq	r9, #1, 30
  e4:	01213a0e 			; <UNDEFINED> instruction: 0x01213a0e
  e8:	0b390b3b 	bleq	e42ddc <_Min_Stack_Size+0xe429dc>
  ec:	13491927 	movtne	r1, #39207	; 0x9927
  f0:	06120111 			; <UNDEFINED> instruction: 0x06120111
  f4:	197c1840 	ldmdbne	ip!, {r6, fp, ip}^
  f8:	00001301 	andeq	r1, r0, r1, lsl #6
  fc:	3f012e07 	svccc	0x00012e07
 100:	3a0e0319 	bcc	380d6c <_Min_Stack_Size+0x38096c>
 104:	0b3b0121 	bleq	ec0590 <_Min_Stack_Size+0xec0190>
 108:	27052139 	smladxcs	r5, r9, r1, r2
 10c:	11134919 	tstne	r3, r9, lsl r9
 110:	40061201 	andmi	r1, r6, r1, lsl #4
 114:	01197a18 	tsteq	r9, r8, lsl sl
 118:	08000013 	stmdaeq	r0, {r0, r1, r4}
 11c:	210b000f 	tstcs	fp, pc
 120:	00134904 	andseq	r4, r3, r4, lsl #18
 124:	01130900 	tsteq	r3, r0, lsl #18
 128:	0b0b0e03 	bleq	2c393c <_Min_Stack_Size+0x2c353c>
 12c:	0b3b0b3a 	bleq	ec2e1c <_Min_Stack_Size+0xec2a1c>
 130:	01082139 	tsteq	r8, r9, lsr r1
 134:	0a000013 	beq	188 <_Min_Heap_Size-0x78>
 138:	13490101 	movtne	r0, #37121	; 0x9101
 13c:	00001301 	andeq	r1, r0, r1, lsl #6
 140:	4900210b 	stmdbmi	r0, {r0, r1, r3, r8, sp}
 144:	000b2f13 	andeq	r2, fp, r3, lsl pc
 148:	00340c00 	eorseq	r0, r4, r0, lsl #24
 14c:	213a0e03 	teqcs	sl, r3, lsl #28
 150:	390b3b01 	stmdbcc	fp, {r0, r8, r9, fp, ip, sp}
 154:	3f13490b 	svccc	0x0013490b
 158:	00180219 	andseq	r0, r8, r9, lsl r2
 15c:	002e0d00 	eoreq	r0, lr, r0, lsl #26
 160:	0e03193f 			; <UNDEFINED> instruction: 0x0e03193f
 164:	0b3b0b3a 	bleq	ec2e54 <_Min_Stack_Size+0xec2a54>
 168:	19270b39 	stmdbne	r7!, {r0, r3, r4, r5, r8, r9, fp}
 16c:	193c1349 	ldmdbne	ip!, {r0, r3, r6, r8, r9, ip}
 170:	340e0000 	strcc	r0, [lr], #-0
 174:	3a0e0300 	bcc	380d7c <_Min_Stack_Size+0x38097c>
 178:	0b3b0121 	bleq	ec0604 <_Min_Stack_Size+0xec0204>
 17c:	49072139 	stmdbmi	r7, {r0, r3, r4, r5, r8, sp}
 180:	00180213 	andseq	r0, r8, r3, lsl r2
 184:	01110f00 	tsteq	r1, r0, lsl #30
 188:	0b130e25 	bleq	4c3a24 <_Min_Stack_Size+0x4c3624>
 18c:	0e1b0e03 	cdpeq	14, 1, cr0, cr11, cr3, {0}
 190:	01111755 	tsteq	r1, r5, asr r7
 194:	17791710 			; <UNDEFINED> instruction: 0x17791710
 198:	24100000 	ldrcs	r0, [r0], #-0
 19c:	3e0b0b00 	vmlacc.f64	d0, d11, d0
 1a0:	0008030b 	andeq	r0, r8, fp, lsl #6
 1a4:	01131100 	tsteq	r3, r0, lsl #2
 1a8:	0b0b0803 	bleq	2c21bc <_Min_Stack_Size+0x2c1dbc>
 1ac:	0b3b0b3a 	bleq	ec2e9c <_Min_Stack_Size+0xec2a9c>
 1b0:	13010b39 	movwne	r0, #6969	; 0x1b39
 1b4:	2e120000 	cdpcs	0, 1, cr0, cr2, cr0, {0}
 1b8:	03193f00 	tsteq	r9, #0, 30
 1bc:	3b0b3a0e 	blcc	2ce9fc <_Min_Stack_Size+0x2ce5fc>
 1c0:	270b390b 	strcs	r3, [fp, -fp, lsl #18]
 1c4:	11134919 	tstne	r3, r9, lsl r9
 1c8:	40061201 	andmi	r1, r6, r1, lsl #4
 1cc:	00197c18 	andseq	r7, r9, r8, lsl ip
 1d0:	00181300 	andseq	r1, r8, r0, lsl #6
 1d4:	2e140000 	cdpcs	0, 1, cr0, cr4, cr0, {0}
 1d8:	03193f01 	tsteq	r9, #1, 30
 1dc:	3b0b3a0e 	blcc	2cea1c <_Min_Stack_Size+0x2ce61c>
 1e0:	270b390b 	strcs	r3, [fp, -fp, lsl #18]
 1e4:	19018719 	stmdbne	r1, {r0, r3, r4, r8, r9, sl, pc}
 1e8:	06120111 			; <UNDEFINED> instruction: 0x06120111
 1ec:	197c1840 	ldmdbne	ip!, {r6, fp, ip}^
 1f0:	00001301 	andeq	r1, r0, r1, lsl #6
 1f4:	3f002e15 	svccc	0x00002e15
 1f8:	3a0e0319 	bcc	380e64 <_Min_Stack_Size+0x380a64>
 1fc:	390b3b0b 	stmdbcc	fp, {r0, r1, r3, r8, r9, fp, ip, sp}
 200:	4919270b 	ldmdbmi	r9, {r0, r1, r3, r8, r9, sl, sp}
 204:	12011113 	andne	r1, r1, #-1073741820	; 0xc0000004
 208:	7a184006 	bvc	610228 <_Min_Stack_Size+0x60fe28>
 20c:	16000019 			; <UNDEFINED> instruction: 0x16000019
 210:	193f002e 	ldmdbne	pc!, {r1, r2, r3, r5}	; <UNPREDICTABLE>
 214:	0b3a0e03 	bleq	e83a28 <_Min_Stack_Size+0xe83628>
 218:	0b390b3b 	bleq	e42f0c <_Min_Stack_Size+0xe42b0c>
 21c:	06120111 			; <UNDEFINED> instruction: 0x06120111
 220:	197a1840 	ldmdbne	sl!, {r6, fp, ip}^
 224:	2e170000 	cdpcs	0, 1, cr0, cr7, cr0, {0}
 228:	03193f01 	tsteq	r9, #1, 30
 22c:	3b0b3a0e 	blcc	2cea6c <_Min_Stack_Size+0x2ce66c>
 230:	270b390b 	strcs	r3, [fp, -fp, lsl #18]
 234:	12011119 	andne	r1, r1, #1073741830	; 0x40000006
 238:	7a184006 	bvc	610258 <_Min_Stack_Size+0x60fe58>
 23c:	00000019 	andeq	r0, r0, r9, lsl r0
 240:	0b002401 	bleq	924c <_Min_Stack_Size+0x8e4c>
 244:	030b3e0b 	movweq	r3, #48651	; 0xbe0b
 248:	0200000e 	andeq	r0, r0, #14
 24c:	0e030016 	mcreq	0, 0, r0, cr3, cr6, {0}
 250:	0b3b0b3a 	bleq	ec2f40 <_Min_Stack_Size+0xec2b40>
 254:	13490b39 	movtne	r0, #39737	; 0x9b39
 258:	34030000 	strcc	r0, [r3], #-0
 25c:	3a0e0300 	bcc	380e64 <_Min_Stack_Size+0x380a64>
 260:	0b3b0121 	bleq	ec06ec <_Min_Stack_Size+0xec02ec>
 264:	13490b39 	movtne	r0, #39737	; 0x9b39
 268:	00001802 	andeq	r1, r0, r2, lsl #16
 26c:	0b000f04 	bleq	3e84 <_Min_Stack_Size+0x3a84>
 270:	13490421 	movtne	r0, #37921	; 0x9421
 274:	34050000 	strcc	r0, [r5], #-0
 278:	3a0e0300 	bcc	380e80 <_Min_Stack_Size+0x380a80>
 27c:	0b3b0121 	bleq	ec0708 <_Min_Stack_Size+0xec0308>
 280:	13490b39 	movtne	r0, #39737	; 0x9b39
 284:	193c193f 	ldmdbne	ip!, {r0, r1, r2, r3, r4, r5, r8, fp, ip}
 288:	26060000 	strcs	r0, [r6], -r0
 28c:	00134900 	andseq	r4, r3, r0, lsl #18
 290:	01110700 	tsteq	r1, r0, lsl #14
 294:	0b130e25 	bleq	4c3b30 <_Min_Stack_Size+0x4c3730>
 298:	0e1b0e03 	cdpeq	14, 1, cr0, cr11, cr3, {0}
 29c:	01111755 	tsteq	r1, r5, asr r7
 2a0:	17791710 			; <UNDEFINED> instruction: 0x17791710
 2a4:	24080000 	strcs	r0, [r8], #-0
 2a8:	3e0b0b00 	vmlacc.f64	d0, d11, d0
 2ac:	0008030b 	andeq	r0, r8, fp, lsl #6
 2b0:	000f0900 	andeq	r0, pc, r0, lsl #18
 2b4:	00000b0b 	andeq	r0, r0, fp, lsl #22
 2b8:	3f002e0a 	svccc	0x00002e0a
 2bc:	3a0e0319 	bcc	380f28 <_Min_Stack_Size+0x380b28>
 2c0:	390b3b0b 	stmdbcc	fp, {r0, r1, r3, r8, r9, fp, ip, sp}
 2c4:	4919270b 	ldmdbmi	r9, {r0, r1, r3, r8, r9, sl, sp}
 2c8:	00193c13 	andseq	r3, r9, r3, lsl ip
 2cc:	012e0b00 			; <UNDEFINED> instruction: 0x012e0b00
 2d0:	0e03193f 			; <UNDEFINED> instruction: 0x0e03193f
 2d4:	0b3b0b3a 	bleq	ec2fc4 <_Min_Stack_Size+0xec2bc4>
 2d8:	19270b39 	stmdbne	r7!, {r0, r3, r4, r5, r8, r9, fp}
 2dc:	01111349 	tsteq	r1, r9, asr #6
 2e0:	18400612 	stmdane	r0, {r1, r4, r9, sl}^
 2e4:	1301197c 	movwne	r1, #6524	; 0x197c
 2e8:	050c0000 	streq	r0, [ip, #-0]
 2ec:	3a0e0300 	bcc	380ef4 <_Min_Stack_Size+0x380af4>
 2f0:	390b3b0b 	stmdbcc	fp, {r0, r1, r3, r8, r9, fp, ip, sp}
 2f4:	0213490b 	andseq	r4, r3, #180224	; 0x2c000
 2f8:	00000018 	andeq	r0, r0, r8, lsl r0
 2fc:	10011101 	andne	r1, r1, r1, lsl #2
 300:	03175517 	tsteq	r7, #96468992	; 0x5c00000
 304:	250e1b0e 	strcs	r1, [lr, #-2830]	; 0xfffff4f2
 308:	0005130e 	andeq	r1, r5, lr, lsl #6
 30c:	002e0200 	eoreq	r0, lr, r0, lsl #4
 310:	15490e03 	strbne	r0, [r9, #-3587]	; 0xfffff1fd
 314:	0f120111 	svceq	0x00120111
 318:	3b030000 	blcc	c0320 <_Min_Stack_Size+0xbff20>
 31c:	00000000 	andeq	r0, r0, r0

Disassembly of section .debug_aranges:

00000000 <.debug_aranges>:
   0:	0000001c 	andeq	r0, r0, ip, lsl r0
   4:	00000002 	andeq	r0, r0, r2
   8:	00040000 	andeq	r0, r4, r0
   c:	00000000 	andeq	r0, r0, r0
  10:	08000270 	stmdaeq	r0, {r4, r5, r6, r9}
  14:	00000034 	andeq	r0, r0, r4, lsr r0
	...
  20:	000000ac 	andeq	r0, r0, ip, lsr #1
  24:	00e70002 	rsceq	r0, r7, r2
  28:	00040000 	andeq	r0, r4, r0
  2c:	00000000 	andeq	r0, r0, r0
  30:	080002a4 	stmdaeq	r0, {r2, r5, r7, r9}
  34:	00000050 	andeq	r0, r0, r0, asr r0
  38:	00000000 	andeq	r0, r0, r0
  3c:	0000000e 	andeq	r0, r0, lr
  40:	00000000 	andeq	r0, r0, r0
  44:	00000010 	andeq	r0, r0, r0, lsl r0
  48:	00000000 	andeq	r0, r0, r0
  4c:	00000020 	andeq	r0, r0, r0, lsr #32
  50:	00000000 	andeq	r0, r0, r0
  54:	00000016 	andeq	r0, r0, r6, lsl r0
  58:	080002f4 	stmdaeq	r0, {r2, r4, r5, r6, r7, r9}
  5c:	0000003a 	andeq	r0, r0, sl, lsr r0
  60:	0800032e 	stmdaeq	r0, {r1, r2, r3, r5, r8, r9}
  64:	00000038 	andeq	r0, r0, r8, lsr r0
  68:	08000366 	stmdaeq	r0, {r1, r2, r5, r6, r8, r9}
  6c:	00000018 	andeq	r0, r0, r8, lsl r0
  70:	0800037e 	stmdaeq	r0, {r1, r2, r3, r4, r5, r6, r8, r9}
  74:	00000020 	andeq	r0, r0, r0, lsr #32
  78:	0800039e 	stmdaeq	r0, {r1, r2, r3, r4, r7, r8, r9}
  7c:	00000016 	andeq	r0, r0, r6, lsl r0
  80:	080003b4 	stmdaeq	r0, {r2, r4, r5, r7, r8, r9}
  84:	0000001a 	andeq	r0, r0, sl, lsl r0
  88:	00000000 	andeq	r0, r0, r0
  8c:	0000001c 	andeq	r0, r0, ip, lsl r0
  90:	00000000 	andeq	r0, r0, r0
  94:	0000001e 	andeq	r0, r0, lr, lsl r0
  98:	00000000 	andeq	r0, r0, r0
  9c:	0000001e 	andeq	r0, r0, lr, lsl r0
  a0:	00000000 	andeq	r0, r0, r0
  a4:	00000018 	andeq	r0, r0, r8, lsl r0
  a8:	00000000 	andeq	r0, r0, r0
  ac:	00000020 	andeq	r0, r0, r0, lsr #32
  b0:	00000000 	andeq	r0, r0, r0
  b4:	00000020 	andeq	r0, r0, r0, lsr #32
  b8:	00000000 	andeq	r0, r0, r0
  bc:	00000016 	andeq	r0, r0, r6, lsl r0
  c0:	00000000 	andeq	r0, r0, r0
  c4:	00000022 	andeq	r0, r0, r2, lsr #32
	...
  d0:	0000001c 	andeq	r0, r0, ip, lsl r0
  d4:	07b80002 	ldreq	r0, [r8, r2]!
  d8:	00040000 	andeq	r0, r4, r0
  dc:	00000000 	andeq	r0, r0, r0
  e0:	080003d0 	stmdaeq	r0, {r4, r6, r7, r8, r9}
  e4:	0000006c 	andeq	r0, r0, ip, rrx
	...
  f0:	00000024 	andeq	r0, r0, r4, lsr #32
  f4:	09200002 	stmdbeq	r0!, {r1}
  f8:	00040000 	andeq	r0, r4, r0
  fc:	00000000 	andeq	r0, r0, r0
 100:	0800043c 	stmdaeq	r0, {r2, r3, r4, r5, sl}
 104:	00000050 	andeq	r0, r0, r0, asr r0
 108:	0800048c 	stmdaeq	r0, {r2, r3, r7, sl}
 10c:	00000002 	andeq	r0, r0, r2
	...

Disassembly of section .debug_rnglists:

00000000 <.debug_rnglists>:
   0:	0000000f 	andeq	r0, r0, pc
   4:	00040005 	andeq	r0, r4, r5
   8:	00000000 	andeq	r0, r0, r0
   c:	00027007 	andeq	r7, r2, r7
  10:	7b003408 	blvc	d038 <_Min_Stack_Size+0xcc38>
  14:	05000000 	streq	r0, [r0, #-0]
  18:	00000400 	andeq	r0, r0, r0, lsl #8
  1c:	07000000 	streq	r0, [r0, -r0]
  20:	080002a4 	stmdaeq	r0, {r2, r5, r7, r9}
  24:	00000750 	andeq	r0, r0, r0, asr r7
  28:	070e0000 	streq	r0, [lr, -r0]
  2c:	00000000 	andeq	r0, r0, r0
  30:	00000710 	andeq	r0, r0, r0, lsl r7
  34:	07200000 	streq	r0, [r0, -r0]!
  38:	00000000 	andeq	r0, r0, r0
  3c:	02f40716 	rscseq	r0, r4, #5767168	; 0x580000
  40:	073a0800 	ldreq	r0, [sl, -r0, lsl #16]!
  44:	0800032e 	stmdaeq	r0, {r1, r2, r3, r5, r8, r9}
  48:	03660738 	cmneq	r6, #56, 14	; 0xe00000
  4c:	07180800 	ldreq	r0, [r8, -r0, lsl #16]
  50:	0800037e 	stmdaeq	r0, {r1, r2, r3, r4, r5, r6, r8, r9}
  54:	039e0720 	orrseq	r0, lr, #32, 14	; 0x800000
  58:	07160800 	ldreq	r0, [r6, -r0, lsl #16]
  5c:	080003b4 	stmdaeq	r0, {r2, r4, r5, r7, r8, r9}
  60:	0000071a 	andeq	r0, r0, sl, lsl r7
  64:	071c0000 	ldreq	r0, [ip, -r0]
  68:	00000000 	andeq	r0, r0, r0
  6c:	0000071e 	andeq	r0, r0, lr, lsl r7
  70:	071e0000 	ldreq	r0, [lr, -r0]
  74:	00000000 	andeq	r0, r0, r0
  78:	00000718 	andeq	r0, r0, r8, lsl r7
  7c:	07200000 	streq	r0, [r0, -r0]!
  80:	00000000 	andeq	r0, r0, r0
  84:	00000720 	andeq	r0, r0, r0, lsr #14
  88:	07160000 	ldreq	r0, [r6, -r0]
  8c:	00000000 	andeq	r0, r0, r0
  90:	000f0022 	andeq	r0, pc, r2, lsr #32
  94:	00050000 	andeq	r0, r5, r0
  98:	00000004 	andeq	r0, r0, r4
  9c:	d0070000 	andle	r0, r7, r0
  a0:	6c080003 	stcvs	0, cr0, [r8], {3}
  a4:	00001500 	andeq	r1, r0, r0, lsl #10
  a8:	04000500 	streq	r0, [r0], #-1280	; 0xfffffb00
  ac:	00000000 	andeq	r0, r0, r0
  b0:	043c0700 	ldrteq	r0, [ip], #-1792	; 0xfffff900
  b4:	07500800 	ldrbeq	r0, [r0, -r0, lsl #16]
  b8:	0800048c 	stmdaeq	r0, {r2, r3, r7, sl}
  bc:	Address 0x00000000000000bc is out of bounds.


Disassembly of section .debug_macro:

00000000 <.debug_macro>:
       0:	00020005 	andeq	r0, r2, r5
       4:	03000000 	movweq	r0, #0
       8:	00050100 	andeq	r0, r5, r0, lsl #2
       c:	000060a6 	andeq	r6, r0, r6, lsr #1
      10:	290d0005 	stmdbcs	sp, {r0, r2}
      14:	00050000 	andeq	r0, r5, r0
      18:	00004094 	muleq	r0, r4, r0
      1c:	18530005 	ldmdane	r3, {r0, r2}^
      20:	00050000 	andeq	r0, r5, r0
      24:	00000963 	andeq	r0, r0, r3, ror #18
      28:	33270005 			; <UNDEFINED> instruction: 0x33270005
      2c:	00050000 	andeq	r0, r5, r0
      30:	0000547e 	andeq	r5, r0, lr, ror r4
      34:	16140005 	ldrne	r0, [r4], -r5
      38:	00050000 	andeq	r0, r5, r0
      3c:	00001802 	andeq	r1, r0, r2, lsl #16
      40:	5ab70005 	bpl	fedc005c <_estack+0xdeda005c>
      44:	00050000 	andeq	r0, r5, r0
      48:	00001929 	andeq	r1, r0, r9, lsr #18
      4c:	29880005 	stmibcs	r8, {r0, r2}
      50:	00050000 	andeq	r0, r5, r0
      54:	000030ad 	andeq	r3, r0, sp, lsr #1
      58:	6ad90005 	bvs	ff640074 <_estack+0xdf620074>
      5c:	00050000 	andeq	r0, r5, r0
      60:	00002a71 	andeq	r2, r0, r1, ror sl
      64:	4e9c0005 	cdpmi	0, 9, cr0, cr12, cr5, {0}
      68:	00050000 	andeq	r0, r5, r0
      6c:	00004885 	andeq	r4, r0, r5, lsl #17
      70:	17b70005 	ldrne	r0, [r7, r5]!
      74:	00050000 	andeq	r0, r5, r0
      78:	00000497 	muleq	r0, r7, r4
      7c:	4f4a0005 	svcmi	0x004a0005
      80:	00050000 	andeq	r0, r5, r0
      84:	00001865 	andeq	r1, r0, r5, ror #16
      88:	13b40005 			; <UNDEFINED> instruction: 0x13b40005
      8c:	00050000 	andeq	r0, r5, r0
      90:	00001c2b 	andeq	r1, r0, fp, lsr #24
      94:	57cf0005 	strbpl	r0, [pc, r5]
      98:	00050000 	andeq	r0, r5, r0
      9c:	000037fb 	strdeq	r3, [r0], -fp
      a0:	465a0005 	ldrbmi	r0, [sl], -r5
      a4:	00050000 	andeq	r0, r5, r0
      a8:	00004be5 	andeq	r4, r0, r5, ror #23
      ac:	0c450005 	mcrreq	0, 0, r0, r5, cr5
      b0:	00050000 	andeq	r0, r5, r0
      b4:	000005bf 			; <UNDEFINED> instruction: 0x000005bf
      b8:	3ce60005 	stclcc	0, cr0, [r6], #20
      bc:	00050000 	andeq	r0, r5, r0
      c0:	0000429f 	muleq	r0, pc, r2	; <UNPREDICTABLE>
      c4:	11670005 	cmnne	r7, r5
      c8:	00050000 	andeq	r0, r5, r0
      cc:	00001462 	andeq	r1, r0, r2, ror #8
      d0:	124b0005 	subne	r0, fp, #5
      d4:	00050000 	andeq	r0, r5, r0
      d8:	000005d9 	ldrdeq	r0, [r0], -r9
      dc:	4cf30005 	ldclmi	0, cr0, [r3], #20
      e0:	00050000 	andeq	r0, r5, r0
      e4:	00001c60 	andeq	r1, r0, r0, ror #24
      e8:	416c0005 	cmnmi	ip, r5
      ec:	00050000 	andeq	r0, r5, r0
      f0:	000054fa 	strdeq	r5, [r0], -sl
      f4:	540c0005 	strpl	r0, [ip], #-5
      f8:	00050000 	andeq	r0, r5, r0
      fc:	00004e13 	andeq	r4, r0, r3, lsl lr
     100:	12990005 	addsne	r0, r9, #5
     104:	00050000 	andeq	r0, r5, r0
     108:	00003d97 	muleq	r0, r7, sp
     10c:	06090005 	streq	r0, [r9], -r5
     110:	00050000 	andeq	r0, r5, r0
     114:	00000811 	andeq	r0, r0, r1, lsl r8
     118:	50940005 	addspl	r0, r4, r5
     11c:	00050000 	andeq	r0, r5, r0
     120:	000037cb 	andeq	r3, r0, fp, asr #15
     124:	24590005 	ldrbcs	r0, [r9], #-5
     128:	00050000 	andeq	r0, r5, r0
     12c:	00002c56 	andeq	r2, r0, r6, asr ip
     130:	62a70005 	adcvs	r0, r7, #5
     134:	00050000 	andeq	r0, r5, r0
     138:	00005818 	andeq	r5, r0, r8, lsl r8
     13c:	117c0005 	cmnne	ip, r5
     140:	00050000 	andeq	r0, r5, r0
     144:	00006686 	andeq	r6, r0, r6, lsl #13
     148:	4b060005 	blmi	180164 <_Min_Stack_Size+0x17fd64>
     14c:	00050000 	andeq	r0, r5, r0
     150:	00006c8e 	andeq	r6, r0, lr, lsl #25
     154:	43210005 			; <UNDEFINED> instruction: 0x43210005
     158:	00050000 	andeq	r0, r5, r0
     15c:	00004dc2 	andeq	r4, r0, r2, asr #27
     160:	549d0005 	ldrpl	r0, [sp], #5
     164:	00050000 	andeq	r0, r5, r0
     168:	00002fd0 	ldrdeq	r2, [r0], -r0
     16c:	10d50005 	sbcsne	r0, r5, r5
     170:	00050000 	andeq	r0, r5, r0
     174:	00004d66 	andeq	r4, r0, r6, ror #26
     178:	3f4c0005 	svccc	0x004c0005
     17c:	00050000 	andeq	r0, r5, r0
     180:	000009a2 	andeq	r0, r0, r2, lsr #19
     184:	2d7a0005 	ldclcs	0, cr0, [sl, #-20]!	; 0xffffffec
     188:	00050000 	andeq	r0, r5, r0
     18c:	000064c3 	andeq	r6, r0, r3, asr #9
     190:	18200005 	stmdane	r0!, {r0, r2}
     194:	00050000 	andeq	r0, r5, r0
     198:	00001d4a 	andeq	r1, r0, sl, asr #26
     19c:	56d00005 	ldrbpl	r0, [r0], r5
     1a0:	00050000 	andeq	r0, r5, r0
     1a4:	000056e4 	andeq	r5, r0, r4, ror #13
     1a8:	21970005 	orrscs	r0, r7, r5
     1ac:	00050000 	andeq	r0, r5, r0
     1b0:	0000406a 	andeq	r4, r0, sl, rrx
     1b4:	1ad50005 	bne	ff5401d0 <_estack+0xdf5201d0>
     1b8:	00050000 	andeq	r0, r5, r0
     1bc:	00006c77 	andeq	r6, r0, r7, ror ip
     1c0:	58c30005 	stmiapl	r3, {r0, r2}^
     1c4:	00050000 	andeq	r0, r5, r0
     1c8:	00004756 	andeq	r4, r0, r6, asr r7
     1cc:	040b0005 	streq	r0, [fp], #-5
     1d0:	00050000 	andeq	r0, r5, r0
     1d4:	00003460 	andeq	r3, r0, r0, ror #8
     1d8:	660a0005 	strvs	r0, [sl], -r5
     1dc:	00050000 	andeq	r0, r5, r0
     1e0:	0000023b 	andeq	r0, r0, fp, lsr r2
     1e4:	01f10005 	mvnseq	r0, r5
     1e8:	00050000 	andeq	r0, r5, r0
     1ec:	0000684a 	andeq	r6, r0, sl, asr #16
     1f0:	2d130005 	ldccs	0, cr0, [r3, #-20]	; 0xffffffec
     1f4:	00050000 	andeq	r0, r5, r0
     1f8:	0000435e 	andeq	r4, r0, lr, asr r3
     1fc:	4b790005 	blmi	1e40218 <_Min_Stack_Size+0x1e3fe18>
     200:	00050000 	andeq	r0, r5, r0
     204:	0000336c 	andeq	r3, r0, ip, ror #6
     208:	35d70005 	ldrbcc	r0, [r7, #5]
     20c:	00050000 	andeq	r0, r5, r0
     210:	000069a8 	andeq	r6, r0, r8, lsr #19
     214:	63420005 	movtvs	r0, #8197	; 0x2005
     218:	00050000 	andeq	r0, r5, r0
     21c:	00000cf0 	strdeq	r0, [r0], -r0	; <UNPREDICTABLE>
     220:	10c30005 	sbcne	r0, r3, r5
     224:	00050000 	andeq	r0, r5, r0
     228:	0000024b 	andeq	r0, r0, fp, asr #4
     22c:	02250005 	eoreq	r0, r5, #5
     230:	00050000 	andeq	r0, r5, r0
     234:	00006c16 	andeq	r6, r0, r6, lsl ip
     238:	114f0005 	cmpne	pc, r5
     23c:	00050000 	andeq	r0, r5, r0
     240:	00000546 	andeq	r0, r0, r6, asr #10
     244:	5b380005 	blpl	e00260 <_Min_Stack_Size+0xdffe60>
     248:	00050000 	andeq	r0, r5, r0
     24c:	000025d7 	ldrdeq	r2, [r0], -r7
     250:	5e4a0005 	cdppl	0, 4, cr0, cr10, cr5, {0}
     254:	00050000 	andeq	r0, r5, r0
     258:	00002ad2 	ldrdeq	r2, [r0], -r2	; <UNPREDICTABLE>
     25c:	5cd90005 	ldclpl	0, cr0, [r9], {5}
     260:	00050000 	andeq	r0, r5, r0
     264:	00002dca 	andeq	r2, r0, sl, asr #27
     268:	32530005 	subscc	r0, r3, #5
     26c:	00050000 	andeq	r0, r5, r0
     270:	00001f23 	andeq	r1, r0, r3, lsr #30
     274:	1a580005 	bne	1600290 <_Min_Stack_Size+0x15ffe90>
     278:	00050000 	andeq	r0, r5, r0
     27c:	000028e2 	andeq	r2, r0, r2, ror #17
     280:	28880005 	stmcs	r8, {r0, r2}
     284:	00050000 	andeq	r0, r5, r0
     288:	00002926 	andeq	r2, r0, r6, lsr #18
     28c:	48650005 	stmdami	r5!, {r0, r2}^
     290:	00050000 	andeq	r0, r5, r0
     294:	00006623 	andeq	r6, r0, r3, lsr #12
     298:	21ae0005 			; <UNDEFINED> instruction: 0x21ae0005
     29c:	00050000 	andeq	r0, r5, r0
     2a0:	000069bb 			; <UNDEFINED> instruction: 0x000069bb
     2a4:	26960005 	ldrcs	r0, [r6], r5
     2a8:	00050000 	andeq	r0, r5, r0
     2ac:	00001510 	andeq	r1, r0, r0, lsl r5
     2b0:	0c210005 	stceq	0, cr0, [r1], #-20	; 0xffffffec
     2b4:	00050000 	andeq	r0, r5, r0
     2b8:	000013c8 	andeq	r1, r0, r8, asr #7
     2bc:	2e930005 	cdpcs	0, 9, cr0, cr3, cr5, {0}
     2c0:	00050000 	andeq	r0, r5, r0
     2c4:	0000583f 	andeq	r5, r0, pc, lsr r8
     2c8:	2a840005 	bcs	fe1002e4 <_estack+0xde0e02e4>
     2cc:	00050000 	andeq	r0, r5, r0
     2d0:	00000cad 	andeq	r0, r0, sp, lsr #25
     2d4:	08020005 	stmdaeq	r2, {r0, r2}
     2d8:	00050000 	andeq	r0, r5, r0
     2dc:	00000947 	andeq	r0, r0, r7, asr #18
     2e0:	59770005 	ldmdbpl	r7!, {r0, r2}^
     2e4:	00050000 	andeq	r0, r5, r0
     2e8:	000029f0 	strdeq	r2, [r0], -r0
     2ec:	22eb0005 	rsccs	r0, fp, #5
     2f0:	00050000 	andeq	r0, r5, r0
     2f4:	00004b24 	andeq	r4, r0, r4, lsr #22
     2f8:	2fb90005 	svccs	0x00b90005
     2fc:	00050000 	andeq	r0, r5, r0
     300:	00006141 	andeq	r6, r0, r1, asr #2
     304:	407d0005 	rsbsmi	r0, sp, r5
     308:	00050000 	andeq	r0, r5, r0
     30c:	00004f0d 	andeq	r4, r0, sp, lsl #30
     310:	0da70005 	stceq	0, cr0, [r7, #20]!
     314:	00050000 	andeq	r0, r5, r0
     318:	0000190b 	andeq	r1, r0, fp, lsl #18
     31c:	62080005 	andvs	r0, r8, #5
     320:	00050000 	andeq	r0, r5, r0
     324:	00000fee 	andeq	r0, r0, lr, ror #31
     328:	0b930005 	bleq	fe4c0344 <_estack+0xde4a0344>
     32c:	00050000 	andeq	r0, r5, r0
     330:	00000d48 	andeq	r0, r0, r8, asr #26
     334:	0e0e0005 	cdpeq	0, 0, cr0, cr14, cr5, {0}
     338:	00050000 	andeq	r0, r5, r0
     33c:	0000131b 	andeq	r1, r0, fp, lsl r3
     340:	35ee0005 	strbcc	r0, [lr, #5]!
     344:	00050000 	andeq	r0, r5, r0
     348:	00000ded 	andeq	r0, r0, sp, ror #27
     34c:	362f0005 	strtcc	r0, [pc], -r5
     350:	00050000 	andeq	r0, r5, r0
     354:	00000a91 	muleq	r0, r1, sl
     358:	41970005 	orrsmi	r0, r7, r5
     35c:	00050000 	andeq	r0, r5, r0
     360:	00002bea 	andeq	r2, r0, sl, ror #23
     364:	40540005 	subsmi	r0, r4, r5
     368:	00050000 	andeq	r0, r5, r0
     36c:	00002cdc 	ldrdeq	r2, [r0], -ip
     370:	26c30005 	strbcs	r0, [r3], r5
     374:	00050000 	andeq	r0, r5, r0
     378:	00003524 	andeq	r3, r0, r4, lsr #10
     37c:	30d80005 	sbcscc	r0, r8, r5
     380:	00050000 	andeq	r0, r5, r0
     384:	00004007 	andeq	r4, r0, r7
     388:	356d0005 	strbcc	r0, [sp, #-5]!
     38c:	00050000 	andeq	r0, r5, r0
     390:	00001373 	andeq	r1, r0, r3, ror r3
     394:	133b0005 	teqne	fp, #5
     398:	00050000 	andeq	r0, r5, r0
     39c:	000018ca 	andeq	r1, r0, sl, asr #17
     3a0:	14d10005 	ldrbne	r0, [r1], #5
     3a4:	00050000 	andeq	r0, r5, r0
     3a8:	000009e8 	andeq	r0, r0, r8, ror #19
     3ac:	55fe0005 	ldrbpl	r0, [lr, #5]!
     3b0:	00050000 	andeq	r0, r5, r0
     3b4:	00001dec 	andeq	r1, r0, ip, ror #27
     3b8:	23ab0005 			; <UNDEFINED> instruction: 0x23ab0005
     3bc:	00050000 	andeq	r0, r5, r0
     3c0:	000021c9 	andeq	r2, r0, r9, asr #3
     3c4:	05f40005 	ldrbeq	r0, [r4, #5]!
     3c8:	00050000 	andeq	r0, r5, r0
     3cc:	00002a9d 	muleq	r0, sp, sl
     3d0:	446b0005 	strbtmi	r0, [fp], #-5
     3d4:	00050000 	andeq	r0, r5, r0
     3d8:	00002628 	andeq	r2, r0, r8, lsr #12
     3dc:	389d0005 	ldmcc	sp, {r0, r2}
     3e0:	00050000 	andeq	r0, r5, r0
     3e4:	00006c3c 	andeq	r6, r0, ip, lsr ip
     3e8:	573f0005 	ldrpl	r0, [pc, -r5]!
     3ec:	00050000 	andeq	r0, r5, r0
     3f0:	00004896 	muleq	r0, r6, r8
     3f4:	6b1f0005 	blvs	7c0410 <_Min_Stack_Size+0x7c0010>
     3f8:	00050000 	andeq	r0, r5, r0
     3fc:	00003098 	muleq	r0, r8, r0
     400:	04ae0005 	strteq	r0, [lr], #5
     404:	00050000 	andeq	r0, r5, r0
     408:	00005c6a 	andeq	r5, r0, sl, ror #24
     40c:	66b30005 	ldrtvs	r0, [r3], r5
     410:	00050000 	andeq	r0, r5, r0
     414:	00003e42 	andeq	r3, r0, r2, asr #28
     418:	10300005 	eorsne	r0, r0, r5
     41c:	00050000 	andeq	r0, r5, r0
     420:	00002a12 	andeq	r2, r0, r2, lsl sl
     424:	3ef80005 	cdpcc	0, 15, cr0, cr8, cr5, {0}
     428:	00050000 	andeq	r0, r5, r0
     42c:	000020b1 	strheq	r2, [r0], -r1
     430:	5b210005 	blpl	84044c <_Min_Stack_Size+0x84004c>
     434:	00050000 	andeq	r0, r5, r0
     438:	00005645 	andeq	r5, r0, r5, asr #12
     43c:	1d250005 	stcne	0, cr0, [r5, #-20]!	; 0xffffffec
     440:	00050000 	andeq	r0, r5, r0
     444:	000007ed 	andeq	r0, r0, sp, ror #15
     448:	653d0005 	ldrvs	r0, [sp, #-5]!
     44c:	00050000 	andeq	r0, r5, r0
     450:	0000067a 	andeq	r0, r0, sl, ror r6
     454:	44320005 	ldrtmi	r0, [r2], #-5
     458:	00050000 	andeq	r0, r5, r0
     45c:	00001ae9 	andeq	r1, r0, r9, ror #21
     460:	671b0005 	ldrvs	r0, [fp, -r5]
     464:	00050000 	andeq	r0, r5, r0
     468:	00000020 	andeq	r0, r0, r0, lsr #32
     46c:	2ba50005 	blcs	fe940488 <_estack+0xde920488>
     470:	00050000 	andeq	r0, r5, r0
     474:	000034f1 	strdeq	r3, [r0], -r1
     478:	46140005 	ldrmi	r0, [r4], -r5
     47c:	00050000 	andeq	r0, r5, r0
     480:	00000341 	andeq	r0, r0, r1, asr #6
     484:	300f0005 	andcc	r0, pc, r5
     488:	00050000 	andeq	r0, r5, r0
     48c:	00003226 	andeq	r3, r0, r6, lsr #4
     490:	4a350005 	bmi	d404ac <_Min_Stack_Size+0xd400ac>
     494:	00050000 	andeq	r0, r5, r0
     498:	00002548 	andeq	r2, r0, r8, asr #10
     49c:	35960005 	ldrcc	r0, [r6, #5]
     4a0:	00050000 	andeq	r0, r5, r0
     4a4:	00004cdb 	ldrdeq	r4, [r0], -fp
     4a8:	2f2e0005 	svccs	0x002e0005
     4ac:	00050000 	andeq	r0, r5, r0
     4b0:	00004900 	andeq	r4, r0, r0, lsl #18
     4b4:	0abc0005 	beq	fef004d0 <_estack+0xdeee04d0>
     4b8:	00050000 	andeq	r0, r5, r0
     4bc:	00004596 	muleq	r0, r6, r5
     4c0:	11c70005 	bicne	r0, r7, r5
     4c4:	00050000 	andeq	r0, r5, r0
     4c8:	00000d1a 	andeq	r0, r0, sl, lsl sp
     4cc:	06620005 	strbteq	r0, [r2], -r5
     4d0:	00050000 	andeq	r0, r5, r0
     4d4:	00005717 	andeq	r5, r0, r7, lsl r7
     4d8:	6bc20005 	blvs	ff0804f4 <_estack+0xdf0604f4>
     4dc:	00050000 	andeq	r0, r5, r0
     4e0:	00000623 	andeq	r0, r0, r3, lsr #12
     4e4:	3d0d0005 	stccc	0, cr0, [sp, #-20]	; 0xffffffec
     4e8:	00050000 	andeq	r0, r5, r0
     4ec:	00002f52 	andeq	r2, r0, r2, asr pc
     4f0:	615e0005 	cmpvs	lr, r5
     4f4:	00050000 	andeq	r0, r5, r0
     4f8:	000066f6 	strdeq	r6, [r0], -r6	; <UNPREDICTABLE>
     4fc:	24fd0005 	ldrbtcs	r0, [sp], #5
     500:	00050000 	andeq	r0, r5, r0
     504:	00000a7e 	andeq	r0, r0, lr, ror sl
     508:	1e370005 	cdpne	0, 3, cr0, cr7, cr5, {0}
     50c:	00050000 	andeq	r0, r5, r0
     510:	00005b56 	andeq	r5, r0, r6, asr fp
     514:	65f90005 	ldrbvs	r0, [r9, #5]!
     518:	00050000 	andeq	r0, r5, r0
     51c:	00000cd6 	ldrdeq	r0, [r0], -r6
     520:	0b620005 	bleq	188053c <_Min_Stack_Size+0x188013c>
     524:	00050000 	andeq	r0, r5, r0
     528:	000036e0 	andeq	r3, r0, r0, ror #13
     52c:	179e0005 	ldrne	r0, [lr, r5]
     530:	00050000 	andeq	r0, r5, r0
     534:	00000bab 	andeq	r0, r0, fp, lsr #23
     538:	08570005 	ldmdaeq	r7, {r0, r2}^
     53c:	00050000 	andeq	r0, r5, r0
     540:	0000319a 	muleq	r0, sl, r1
     544:	37020005 	strcc	r0, [r2, -r5]
     548:	00050000 	andeq	r0, r5, r0
     54c:	00005e62 	andeq	r5, r0, r2, ror #28
     550:	00990005 	addseq	r0, r9, r5
     554:	00050000 	andeq	r0, r5, r0
     558:	00003ff0 	strdeq	r3, [r0], -r0
     55c:	01160005 	tsteq	r6, r5
     560:	00050000 	andeq	r0, r5, r0
     564:	00003f84 	andeq	r3, r0, r4, lsl #31
     568:	4b600005 	blmi	1800584 <_Min_Stack_Size+0x1800184>
     56c:	00050000 	andeq	r0, r5, r0
     570:	00006991 	muleq	r0, r1, r9
     574:	4e430005 	cdpmi	0, 4, cr0, cr3, cr5, {0}
     578:	00050000 	andeq	r0, r5, r0
     57c:	00000326 	andeq	r0, r0, r6, lsr #6
     580:	54340005 	ldrtpl	r0, [r4], #-5
     584:	00050000 	andeq	r0, r5, r0
     588:	000029d8 	ldrdeq	r2, [r0], -r8
     58c:	256f0005 	strbcs	r0, [pc, #-5]!	; 58f <_Min_Stack_Size+0x18f>
     590:	00050000 	andeq	r0, r5, r0
     594:	00001016 	andeq	r1, r0, r6, lsl r0
     598:	52fd0005 	rscspl	r0, sp, #5
     59c:	00050000 	andeq	r0, r5, r0
     5a0:	00004553 	andeq	r4, r0, r3, asr r5
     5a4:	36880005 	strcc	r0, [r8], r5
     5a8:	00050000 	andeq	r0, r5, r0
     5ac:	0000107a 	andeq	r1, r0, sl, ror r0
     5b0:	18780005 	ldmdane	r8!, {r0, r2}^
     5b4:	00050000 	andeq	r0, r5, r0
     5b8:	000030c0 	andeq	r3, r0, r0, asr #1
     5bc:	0edb0005 	cdpeq	0, 13, cr0, cr11, cr5, {0}
     5c0:	00050000 	andeq	r0, r5, r0
     5c4:	0000105f 	andeq	r1, r0, pc, asr r0
     5c8:	26390005 	ldrtcs	r0, [r9], -r5
     5cc:	00050000 	andeq	r0, r5, r0
     5d0:	00000534 	andeq	r0, r0, r4, lsr r5
     5d4:	3cae0005 	stccc	0, cr0, [lr], #20
     5d8:	00050000 	andeq	r0, r5, r0
     5dc:	00002b78 	andeq	r2, r0, r8, ror fp
     5e0:	69780005 	ldmdbvs	r8!, {r0, r2}^
     5e4:	00050000 	andeq	r0, r5, r0
     5e8:	00000bd6 	ldrdeq	r0, [r0], -r6
     5ec:	28080005 	stmdacs	r8, {r0, r2}
     5f0:	00050000 	andeq	r0, r5, r0
     5f4:	00001e50 	andeq	r1, r0, r0, asr lr
     5f8:	1ea30005 	cdpne	0, 10, cr0, cr3, cr5, {0}
     5fc:	00050000 	andeq	r0, r5, r0
     600:	00000a47 	andeq	r0, r0, r7, asr #20
     604:	273d0005 	ldrcs	r0, [sp, -r5]!
     608:	00050000 	andeq	r0, r5, r0
     60c:	0000285f 	andeq	r2, r0, pc, asr r8
     610:	4b4f0005 	blmi	13c062c <_Min_Stack_Size+0x13c022c>
     614:	00050000 	andeq	r0, r5, r0
     618:	000004e5 	andeq	r0, r0, r5, ror #9
     61c:	18f10005 	ldmne	r1!, {r0, r2}^
     620:	00050000 	andeq	r0, r5, r0
     624:	00002daf 	andeq	r2, r0, pc, lsr #27
     628:	3e1f0005 	cdpcc	0, 1, cr0, cr15, cr5, {0}
     62c:	00050000 	andeq	r0, r5, r0
     630:	0000483f 	andeq	r4, r0, pc, lsr r8
     634:	0ec60005 	cdpeq	0, 12, cr0, cr6, cr5, {0}
     638:	00050000 	andeq	r0, r5, r0
     63c:	00003866 	andeq	r3, r0, r6, ror #16
     640:	34430005 	strbcc	r0, [r3], #-5
     644:	00050000 	andeq	r0, r5, r0
     648:	000037e8 	andeq	r3, r0, r8, ror #15
     64c:	48730005 	ldmdami	r3!, {r0, r2}^
     650:	00050000 	andeq	r0, r5, r0
     654:	00001131 	andeq	r1, r0, r1, lsr r1
     658:	42240005 	eormi	r0, r4, #5
     65c:	00050000 	andeq	r0, r5, r0
     660:	000044c2 	andeq	r4, r0, r2, asr #9
     664:	26af0005 	strtcs	r0, [pc], r5
     668:	00050000 	andeq	r0, r5, r0
     66c:	00006c50 	andeq	r6, r0, r0, asr ip
     670:	50510005 	subspl	r0, r1, r5
     674:	00050000 	andeq	r0, r5, r0
     678:	00004da0 	andeq	r4, r0, r0, lsr #27
     67c:	574e0005 	strbpl	r0, [lr, -r5]
     680:	00050000 	andeq	r0, r5, r0
     684:	000066e2 	andeq	r6, r0, r2, ror #13
     688:	63ae0005 			; <UNDEFINED> instruction: 0x63ae0005
     68c:	00050000 	andeq	r0, r5, r0
     690:	00000dcc 	andeq	r0, r0, ip, asr #27
     694:	568b0005 	strpl	r0, [fp], r5
     698:	00050000 	andeq	r0, r5, r0
     69c:	00006959 	andeq	r6, r0, r9, asr r9
     6a0:	09750005 	ldmdbeq	r5!, {r0, r2}^
     6a4:	00050000 	andeq	r0, r5, r0
     6a8:	000032e5 	andeq	r3, r0, r5, ror #5
     6ac:	63540005 	cmpvs	r4, #5
     6b0:	00050000 	andeq	r0, r5, r0
     6b4:	000011f8 	strdeq	r1, [r0], -r8
     6b8:	5f840005 	svcpl	0x00840005
     6bc:	00050000 	andeq	r0, r5, r0
     6c0:	00004a6b 	andeq	r4, r0, fp, ror #20
     6c4:	4d380005 	ldcmi	0, cr0, [r8, #-20]!	; 0xffffffec
     6c8:	00050000 	andeq	r0, r5, r0
     6cc:	00004d7e 	andeq	r4, r0, lr, ror sp
     6d0:	56b50005 	ldrtpl	r0, [r5], r5
     6d4:	00050000 	andeq	r0, r5, r0
     6d8:	00006435 	andeq	r6, r0, r5, lsr r4
     6dc:	24a30005 	strtcs	r0, [r3], #5
     6e0:	00050000 	andeq	r0, r5, r0
     6e4:	00003fca 	andeq	r3, r0, sl, asr #31
     6e8:	064b0005 	strbeq	r0, [fp], -r5
     6ec:	00050000 	andeq	r0, r5, r0
     6f0:	00000517 	andeq	r0, r0, r7, lsl r5
     6f4:	56270005 	strtpl	r0, [r7], -r5
     6f8:	00050000 	andeq	r0, r5, r0
     6fc:	00000f68 	andeq	r0, r0, r8, ror #30
     700:	58ee0005 	stmiapl	lr!, {r0, r2}^
     704:	00050000 	andeq	r0, r5, r0
     708:	00004ab1 			; <UNDEFINED> instruction: 0x00004ab1
     70c:	2ab40005 	bcs	fed00728 <_estack+0xdece0728>
     710:	00050000 	andeq	r0, r5, r0
     714:	00006503 	andeq	r6, r0, r3, lsl #10
     718:	339b0005 	orrscc	r0, fp, #5
     71c:	00050000 	andeq	r0, r5, r0
     720:	00000fad 	andeq	r0, r0, sp, lsr #31
     724:	26040005 	strcs	r0, [r4], -r5
     728:	00050000 	andeq	r0, r5, r0
     72c:	00003161 	andeq	r3, r0, r1, ror #2
     730:	40150005 	andsmi	r0, r5, r5
     734:	00050000 	andeq	r0, r5, r0
     738:	000016f9 	strdeq	r1, [r0], -r9
     73c:	0d850005 	stceq	0, cr0, [r5, #20]
     740:	00050000 	andeq	r0, r5, r0
     744:	0000611d 	andeq	r6, r0, sp, lsl r1
     748:	4deb0005 	stclmi	0, cr0, [fp, #20]!
     74c:	00050000 	andeq	r0, r5, r0
     750:	000001d4 	ldrdeq	r0, [r0], -r4
     754:	03f70005 	mvnseq	r0, #5
     758:	00050000 	andeq	r0, r5, r0
     75c:	00004cc7 	andeq	r4, r0, r7, asr #25
     760:	34b40005 	ldrtcc	r0, [r4], #5
     764:	00050000 	andeq	r0, r5, r0
     768:	00004faa 	andeq	r4, r0, sl, lsr #31
     76c:	651e0005 	ldrvs	r0, [lr, #-5]
     770:	00050000 	andeq	r0, r5, r0
     774:	000053f8 	strdeq	r5, [r0], -r8
     778:	2d9b0005 	ldccs	0, cr0, [fp, #20]
     77c:	00050000 	andeq	r0, r5, r0
     780:	00000193 	muleq	r0, r3, r1
     784:	281b0005 	ldmdacs	fp, {r0, r2}
     788:	00050000 	andeq	r0, r5, r0
     78c:	000015f5 	strdeq	r1, [r0], -r5
     790:	68710005 	ldmdavs	r1!, {r0, r2}^
     794:	00050000 	andeq	r0, r5, r0
     798:	00005ef8 	strdeq	r5, [r0], -r8
     79c:	61e00005 	mvnvs	r0, r5
     7a0:	00050000 	andeq	r0, r5, r0
     7a4:	00003f9e 	muleq	r0, lr, pc	; <UNPREDICTABLE>
     7a8:	22270005 	eorcs	r0, r7, #5
     7ac:	00050000 	andeq	r0, r5, r0
     7b0:	000066a5 	andeq	r6, r0, r5, lsr #13
     7b4:	53850005 	orrpl	r0, r5, #5
     7b8:	00050000 	andeq	r0, r5, r0
     7bc:	0000680a 	andeq	r6, r0, sl, lsl #16
     7c0:	6aec0005 	bvs	ffb007dc <_estack+0xdfae07dc>
     7c4:	00050000 	andeq	r0, r5, r0
     7c8:	00000c5f 	andeq	r0, r0, pc, asr ip
     7cc:	05b10005 	ldreq	r0, [r1, #5]!
     7d0:	00050000 	andeq	r0, r5, r0
     7d4:	00004d19 	andeq	r4, r0, r9, lsl sp
     7d8:	50680005 	rsbpl	r0, r8, r5
     7dc:	00050000 	andeq	r0, r5, r0
     7e0:	00001ac5 	andeq	r1, r0, r5, asr #21
     7e4:	030d0005 	movweq	r0, #53253	; 0xd005
     7e8:	00050000 	andeq	r0, r5, r0
     7ec:	00004153 	andeq	r4, r0, r3, asr r1
     7f0:	34710005 	ldrbtcc	r0, [r1], #-5
     7f4:	00050000 	andeq	r0, r5, r0
     7f8:	00000cc6 	andeq	r0, r0, r6, asr #25
     7fc:	4d570005 	ldclmi	0, cr0, [r7, #-20]	; 0xffffffec
     800:	00050000 	andeq	r0, r5, r0
     804:	00000c35 	andeq	r0, r0, r5, lsr ip
     808:	47bb0005 	ldrmi	r0, [fp, r5]!
     80c:	00050000 	andeq	r0, r5, r0
     810:	00003e32 	andeq	r3, r0, r2, lsr lr
     814:	31040005 	tstcc	r4, r5
     818:	00050000 	andeq	r0, r5, r0
     81c:	00004e65 	andeq	r4, r0, r5, ror #28
     820:	52ce0005 	sbcpl	r0, lr, #5
     824:	00050000 	andeq	r0, r5, r0
     828:	00001e1f 	andeq	r1, r0, pc, lsl lr
     82c:	36210005 	strtcc	r0, [r1], -r5
     830:	00050000 	andeq	r0, r5, r0
     834:	000052dd 	ldrdeq	r5, [r0], -sp
     838:	2b960005 	blcs	fe580854 <_estack+0xde560854>
     83c:	00050000 	andeq	r0, r5, r0
     840:	00002164 	andeq	r2, r0, r4, ror #2
     844:	69ca0005 	stmibvs	sl, {r0, r2}^
     848:	00050000 	andeq	r0, r5, r0
     84c:	00002560 	andeq	r2, r0, r0, ror #10
     850:	46a00005 	strtmi	r0, [r0], r5
     854:	00050000 	andeq	r0, r5, r0
     858:	00000079 	andeq	r0, r0, r9, ror r0
     85c:	64e50005 	strbtvs	r0, [r5], #5
     860:	00050000 	andeq	r0, r5, r0
     864:	000043a2 	andeq	r4, r0, r2, lsr #7
     868:	1ca80005 	stcne	0, cr0, [r8], #20
     86c:	00050000 	andeq	r0, r5, r0
     870:	00001115 	andeq	r1, r0, r5, lsl r1
     874:	59ee0005 	stmibpl	lr!, {r0, r2}^
     878:	00050000 	andeq	r0, r5, r0
     87c:	00001488 	andeq	r1, r0, r8, lsl #9
     880:	5ee80005 	cdppl	0, 14, cr0, cr8, cr5, {0}
     884:	00050000 	andeq	r0, r5, r0
     888:	00005702 	andeq	r5, r0, r2, lsl #14
     88c:	28710005 	ldmdacs	r1!, {r0, r2}^
     890:	00050000 	andeq	r0, r5, r0
     894:	000015a0 	andeq	r1, r0, r0, lsr #11
     898:	5a5d0005 	bpl	17408b4 <_Min_Stack_Size+0x17404b4>
     89c:	00050000 	andeq	r0, r5, r0
     8a0:	000000ea 	andeq	r0, r0, sl, ror #1
     8a4:	08de0005 	ldmeq	lr, {r0, r2}^
     8a8:	00050000 	andeq	r0, r5, r0
     8ac:	00001ccd 	andeq	r1, r0, sp, asr #25
     8b0:	4a7d0005 	bmi	1f408cc <_Min_Stack_Size+0x1f404cc>
     8b4:	00050000 	andeq	r0, r5, r0
     8b8:	0000119c 	muleq	r0, ip, r1
     8bc:	5d000005 	stcpl	0, cr0, [r0, #-20]	; 0xffffffec
     8c0:	00050000 	andeq	r0, r5, r0
     8c4:	0000305b 	andeq	r3, r0, fp, asr r0
     8c8:	162a0005 	strtne	r0, [sl], -r5
     8cc:	00050000 	andeq	r0, r5, r0
     8d0:	000000c9 	andeq	r0, r0, r9, asr #1
     8d4:	24760005 	ldrbtcs	r0, [r6], #-5
     8d8:	00050000 	andeq	r0, r5, r0
     8dc:	00005518 	andeq	r5, r0, r8, lsl r5
     8e0:	34960005 	ldrcc	r0, [r6], #5
     8e4:	00050000 	andeq	r0, r5, r0
     8e8:	00003643 	andeq	r3, r0, r3, asr #12
     8ec:	24b60005 	ldrtcs	r0, [r6], #5
     8f0:	00050000 	andeq	r0, r5, r0
     8f4:	000001ba 			; <UNDEFINED> instruction: 0x000001ba
     8f8:	636d0005 	cmnvs	sp, #5
     8fc:	00050000 	andeq	r0, r5, r0
     900:	0000293e 	andeq	r2, r0, lr, lsr r9
     904:	4a4b0005 	bmi	12c0920 <_Min_Stack_Size+0x12c0520>
     908:	00050000 	andeq	r0, r5, r0
     90c:	00002b48 	andeq	r2, r0, r8, asr #22
     910:	1c440005 	mcrrne	0, 0, r0, r4, cr5
     914:	00050000 	andeq	r0, r5, r0
     918:	0000380a 	andeq	r3, r0, sl, lsl #16
     91c:	60780005 	rsbsvs	r0, r8, r5
     920:	00050000 	andeq	r0, r5, r0
     924:	00004244 	andeq	r4, r0, r4, asr #4
     928:	53710005 	cmnpl	r1, #5
     92c:	00050000 	andeq	r0, r5, r0
     930:	0000295f 	andeq	r2, r0, pc, asr r9
     934:	32760005 	rsbscc	r0, r6, #5
     938:	00060000 	andeq	r0, r6, r0
     93c:	00004af1 	strdeq	r4, [r0], -r1
     940:	2ffd0006 	svccs	0x00fd0006
     944:	00060000 	andeq	r0, r6, r0
     948:	00006a3c 	andeq	r6, r0, ip, lsr sl
     94c:	608c0005 	addvs	r0, ip, r5
     950:	00060000 	andeq	r0, r6, r0
     954:	00004722 	andeq	r4, r0, r2, lsr #14
     958:	5f0d0006 	svcpl	0x000d0006
     95c:	00060000 	andeq	r0, r6, r0
     960:	000062c9 	andeq	r6, r0, r9, asr #5
     964:	299b0006 	ldmibcs	fp, {r1, r2}
     968:	00050000 	andeq	r0, r5, r0
     96c:	00004851 	andeq	r4, r0, r1, asr r8
     970:	38d10006 	ldmcc	r1, {r1, r2}^
     974:	00060000 	andeq	r0, r6, r0
     978:	00000e60 	andeq	r0, r0, r0, ror #28
     97c:	05970006 	ldreq	r0, [r7, #6]
     980:	00060000 	andeq	r0, r6, r0
     984:	00005786 	andeq	r5, r0, r6, lsl #15
     988:	2c020006 	stccs	0, cr0, [r2], {6}
     98c:	00060000 	andeq	r0, r6, r0
     990:	0000355a 	andeq	r3, r0, sl, asr r5
     994:	40be0006 	adcsmi	r0, lr, r6
     998:	00050000 	andeq	r0, r5, r0
     99c:	000068f0 	strdeq	r6, [r0], -r0
     9a0:	29740005 	ldmdbcs	r4!, {r0, r2}^
     9a4:	00060000 	andeq	r0, r6, r0
     9a8:	000054c5 	andeq	r5, r0, r5, asr #9
     9ac:	5d840005 	stcpl	0, cr0, [r4, #20]
     9b0:	00050000 	andeq	r0, r5, r0
     9b4:	00004525 	andeq	r4, r0, r5, lsr #10
     9b8:	29c10005 	stmibcs	r1, {r0, r2}^
     9bc:	00060000 	andeq	r0, r6, r0
     9c0:	000037b8 			; <UNDEFINED> instruction: 0x000037b8
     9c4:	16e30005 	strbtne	r0, [r3], r5
     9c8:	00050000 	andeq	r0, r5, r0
     9cc:	00004583 	andeq	r4, r0, r3, lsl #11
     9d0:	68860006 	stmvs	r6, {r1, r2}
     9d4:	00050000 	andeq	r0, r5, r0
     9d8:	00003517 	andeq	r3, r0, r7, lsl r5
     9dc:	3ea50005 	cdpcc	0, 10, cr0, cr5, cr5, {0}
     9e0:	00050000 	andeq	r0, r5, r0
     9e4:	00006451 	andeq	r6, r0, r1, asr r4
     9e8:	670f0005 	strvs	r0, [pc, -r5]
     9ec:	00050000 	andeq	r0, r5, r0
     9f0:	00001b7b 	andeq	r1, r0, fp, ror fp
     9f4:	53630005 	cmnpl	r3, #5
     9f8:	00060000 	andeq	r0, r6, r0
     9fc:	000023ff 	strdeq	r2, [r0], -pc	; <UNPREDICTABLE>
     a00:	47360005 	ldrmi	r0, [r6, -r5]!
     a04:	00050000 	andeq	r0, r5, r0
     a08:	00006733 	andeq	r6, r0, r3, lsr r7
     a0c:	0dbf0005 	ldceq	0, cr0, [pc, #20]!	; a28 <_Min_Stack_Size+0x628>
     a10:	00060000 	andeq	r0, r6, r0
     a14:	00003618 	andeq	r3, r0, r8, lsl r6
     a18:	64a80005 	strtvs	r0, [r8], #5
     a1c:	00060000 	andeq	r0, r6, r0
     a20:	00002c3f 	andeq	r2, r0, pc, lsr ip
     a24:	45dc0006 	ldrbmi	r0, [ip, #6]
     a28:	00060000 	andeq	r0, r6, r0
     a2c:	00004187 	andeq	r4, r0, r7, lsl #3
     a30:	55d90006 	ldrbpl	r0, [r9, #6]
     a34:	00060000 	andeq	r0, r6, r0
     a38:	000012bb 			; <UNDEFINED> instruction: 0x000012bb
     a3c:	26d90006 	ldrbcs	r0, [r9], r6
     a40:	00050000 	andeq	r0, r5, r0
     a44:	0000157d 	andeq	r1, r0, sp, ror r5
     a48:	11ba0006 			; <UNDEFINED> instruction: 0x11ba0006
     a4c:	00060000 	andeq	r0, r6, r0
     a50:	00001f18 	andeq	r1, r0, r8, lsl pc
     a54:	3d380006 	ldccc	0, cr0, [r8, #-24]!	; 0xffffffe8
     a58:	00050000 	andeq	r0, r5, r0
     a5c:	000011e2 	andeq	r1, r0, r2, ror #3
     a60:	3fdd0005 	svccc	0x00dd0005
     a64:	00050000 	andeq	r0, r5, r0
     a68:	0000630d 	andeq	r6, r0, sp, lsl #6
     a6c:	53330005 	teqpl	r3, #5
     a70:	00060000 	andeq	r0, r6, r0
     a74:	00001e2d 	andeq	r1, r0, sp, lsr #28
     a78:	25990005 	ldrcs	r0, [r9, #5]
     a7c:	00050000 	andeq	r0, r5, r0
     a80:	0000428a 	andeq	r4, r0, sl, lsl #5
     a84:	628a0005 	addvs	r0, sl, #5
     a88:	00060000 	andeq	r0, r6, r0
     a8c:	00005af2 	strdeq	r5, [r0], -r2
     a90:	09c40005 	stmibeq	r4, {r0, r2}^
     a94:	00060000 	andeq	r0, r6, r0
     a98:	000058dc 	ldrdeq	r5, [r0], -ip
     a9c:	6cb10006 	ldcvs	0, cr0, [r1], #24
     aa0:	00060000 	andeq	r0, r6, r0
     aa4:	0000243f 	andeq	r2, r0, pc, lsr r4
     aa8:	673f0006 	ldrvs	r0, [pc, -r6]!
     aac:	00060000 	andeq	r0, r6, r0
     ab0:	00002eea 	andeq	r2, r0, sl, ror #29
     ab4:	50760006 	rsbspl	r0, r6, r6
     ab8:	00050000 	andeq	r0, r5, r0
     abc:	00002e09 	andeq	r2, r0, r9, lsl #28
     ac0:	53590005 	cmppl	r9, #5
     ac4:	00050000 	andeq	r0, r5, r0
     ac8:	00005c45 	andeq	r5, r0, r5, asr #24
     acc:	0f130005 	svceq	0x00130005
     ad0:	00050000 	andeq	r0, r5, r0
     ad4:	000046af 	andeq	r4, r0, pc, lsr #13
     ad8:	21310005 	teqcs	r1, r5
     adc:	00050000 	andeq	r0, r5, r0
     ae0:	00004162 	andeq	r4, r0, r2, ror #2
     ae4:	2d250005 	stccs	0, cr0, [r5, #-20]!	; 0xffffffec
     ae8:	13030000 	movwne	r0, #12288	; 0x3000
     aec:	281b0502 	ldmdacs	fp, {r1, r8, sl}
     af0:	03000053 	movweq	r0, #83	; 0x53
     af4:	0805031d 	stmdaeq	r5, {r0, r2, r3, r4, r8, r9}
     af8:	00003d80 	andeq	r3, r0, r0, lsl #27
     afc:	05040a03 	streq	r0, [r4, #-2563]	; 0xfffff5fd
     b00:	000d9807 	andeq	r9, sp, r7, lsl #16
     b04:	050a0300 	streq	r0, [sl, #-768]	; 0xfffffd00
     b08:	000bea07 	andeq	lr, fp, r7, lsl #20
     b0c:	0c070400 	cfstrseq	mvf0, [r7], {-0}
     b10:	0400000c 	streq	r0, [r0], #-12
     b14:	05060b03 	streq	r0, [r6, #-2819]	; 0xfffff4fd
     b18:	005cee02 	subseq	lr, ip, r2, lsl #28
     b1c:	07040300 	streq	r0, [r4, -r0, lsl #6]
     b20:	000c6707 	andeq	r6, ip, r7, lsl #14
     b24:	05030400 	streq	r0, [r3, #-1024]	; 0xfffffc00
     b28:	0c910708 	ldceq	7, cr0, [r1], {8}
     b2c:	07040000 	streq	r0, [r4, -r0]
     b30:	00000d25 	andeq	r0, r0, r5, lsr #26
     b34:	0d680704 	stcleq	7, cr0, [r8, #-16]!
     b38:	07040000 	streq	r0, [r4, -r0]
     b3c:	00000d9c 	muleq	r0, ip, sp
     b40:	05092303 	streq	r2, [r9, #-771]	; 0xfffffcfd
     b44:	0062202b 	rsbeq	r2, r2, fp, lsr #32
     b48:	0a2d0300 	beq	b41750 <_Min_Stack_Size+0xb41350>
     b4c:	000db207 	andeq	fp, sp, r7, lsl #4
     b50:	2f030400 	svccs	0x00030400
     b54:	0e09070b 	cdpeq	7, 0, cr0, cr9, cr11, {0}
     b58:	07040000 	streq	r0, [r4, -r0]
     b5c:	00000ea7 	andeq	r0, r0, r7, lsr #29
     b60:	0b240304 	bleq	901778 <_Min_Stack_Size+0x901378>
     b64:	00121707 	andseq	r1, r2, r7, lsl #14
     b68:	27050400 	strcs	r0, [r5, -r0, lsl #8]
     b6c:	00000a0c 	andeq	r0, r0, ip, lsl #20
     b70:	070c2803 	streq	r2, [ip, -r3, lsl #16]
     b74:	00001329 	andeq	r1, r0, r9, lsr #6
     b78:	eb2f0504 	bl	bc1f90 <_Min_Stack_Size+0xbc1b90>
     b7c:	03000024 	movweq	r0, #36	; 0x24
     b80:	0b050d3c 	bleq	144078 <_Min_Stack_Size+0x143c78>
     b84:	00004045 	andeq	r4, r0, r5, asr #32
     b88:	04030d03 	streq	r0, [r3], #-3331	; 0xfffff2fd
     b8c:	040b0e03 	streq	r0, [fp], #-3587	; 0xfffff1fd
     b90:	070e1003 	streq	r1, [lr, -r3]
     b94:	00001339 	andeq	r1, r0, r9, lsr r3
     b98:	070b1803 	streq	r1, [fp, -r3, lsl #16]
     b9c:	0000134f 	andeq	r1, r0, pc, asr #6
     ba0:	0f1b0304 	svceq	0x001b0304
     ba4:	43c60605 	bicmi	r0, r6, #5242880	; 0x500000
     ba8:	07040000 	streq	r0, [r4, -r0]
     bac:	00001399 	muleq	r0, r9, r3
     bb0:	13cd0704 	bicne	r0, sp, #4, 14	; 0x100000
     bb4:	23030000 	movwcs	r0, #12288	; 0x3000
     bb8:	13dd0710 	bicsne	r0, sp, #16, 14	; 0x400000
     bbc:	07040000 	streq	r0, [r4, -r0]
     bc0:	00001435 	andeq	r1, r0, r5, lsr r4
     bc4:	1103ce03 	tstne	r3, r3, lsl #28
     bc8:	0014c307 	andseq	ip, r4, r7, lsl #6
     bcc:	df070400 	svcle	0x00070400
     bd0:	04000014 	streq	r0, [r0], #-20	; 0xffffffec
     bd4:	00166407 	andseq	r6, r6, r7, lsl #8
     bd8:	12550300 	subsne	r0, r5, #0, 6
     bdc:	00167a07 	andseq	r7, r6, r7, lsl #20
     be0:	90070400 	andls	r0, r7, r0, lsl #8
     be4:	04000016 	streq	r0, [r0], #-22	; 0xffffffea
     be8:	00050004 	andeq	r0, r5, r4
     bec:	80040500 	andhi	r0, r4, r0, lsl #10
     bf0:	05000034 	streq	r0, [r0, #-52]	; 0xffffffcc
     bf4:	0000fe06 	andeq	pc, r0, r6, lsl #28
     bf8:	55070500 	strpl	r0, [r7, #-1280]	; 0xfffffb00
     bfc:	05000014 	streq	r0, [r0, #-20]	; 0xffffffec
     c00:	003f7108 	eorseq	r7, pc, r8, lsl #2
     c04:	8a090500 	bhi	24200c <_Min_Stack_Size+0x241c0c>
     c08:	0000004b 	andeq	r0, r0, fp, asr #32
     c0c:	05000005 	streq	r0, [r0, #-5]
     c10:	0034cb1b 	eorseq	ip, r4, fp, lsl fp
     c14:	7b270500 	blvc	9c201c <_Min_Stack_Size+0x9c1c1c>
     c18:	05000037 	streq	r0, [r0, #-55]	; 0xffffffc9
     c1c:	0053422b 	subseq	r4, r3, fp, lsr #4
     c20:	ff2e0500 			; <UNDEFINED> instruction: 0xff2e0500
     c24:	0500001a 	streq	r0, [r0, #-26]	; 0xffffffe6
     c28:	098a02e3 	stmibeq	sl, {r0, r1, r5, r6, r7, r9}
     c2c:	e6050000 	str	r0, [r5], -r0
     c30:	005aaa02 	subseq	sl, sl, r2, lsl #20
     c34:	02ec0500 	rsceq	r0, ip, #0, 10
     c38:	00002123 	andeq	r2, r0, r3, lsr #2
     c3c:	ad02ef05 	stcge	15, cr14, [r2, #-20]	; 0xffffffec
     c40:	0500006b 	streq	r0, [r0, #-107]	; 0xffffff95
     c44:	0f0402f2 	svceq	0x000402f2
     c48:	f7050000 			; <UNDEFINED> instruction: 0xf7050000
     c4c:	00649202 	rsbeq	r9, r4, r2, lsl #4
     c50:	02fa0500 	rscseq	r0, sl, #0, 10
     c54:	00005be1 	andeq	r5, r0, r1, ror #23
     c58:	b4039305 	strlt	r9, [r3], #-773	; 0xfffffcfb
     c5c:	05000038 	streq	r0, [r0, #-56]	; 0xffffffc8
     c60:	337e039d 	cmncc	lr, #1946157058	; 0x74000002
     c64:	05000000 	streq	r0, [r0, #-0]
     c68:	4d050000 	stcmi	0, cr0, [r5, #-0]
     c6c:	000043d9 	ldrdeq	r4, [r0], -r9
     c70:	65e45b05 	strbvs	r5, [r4, #2821]!	; 0xb05
     c74:	62050000 	andvs	r0, r5, #0
     c78:	00001cb8 			; <UNDEFINED> instruction: 0x00001cb8
     c7c:	3e926305 	cdpcc	3, 9, cr6, cr2, cr5, {0}
     c80:	87050000 	strhi	r0, [r5, -r0]
     c84:	00434404 	subeq	r4, r3, r4, lsl #8
     c88:	048a0500 	streq	r0, [sl], #1280	; 0x500
     c8c:	00002517 	andeq	r2, r0, r7, lsl r5
     c90:	00000500 	andeq	r0, r0, r0, lsl #10
     c94:	1bf01605 	blne	ffc064b0 <_estack+0xdfbe64b0>
     c98:	21050000 	mrscs	r0, (UNDEF: 5)
     c9c:	00000e72 	andeq	r0, r0, r2, ror lr
     ca0:	5ea82805 	cdppl	8, 10, cr2, cr8, cr5, {0}
     ca4:	88060000 	stmdahi	r6, {}	; <UNPREDICTABLE>
     ca8:	00047101 	andeq	r7, r4, r1, lsl #2
     cac:	01890500 	orreq	r0, r9, r0, lsl #10
     cb0:	00002f1c 	andeq	r2, r0, ip, lsl pc
     cb4:	79018d06 	stmdbvc	r1, {r1, r2, r8, sl, fp, pc}
     cb8:	0500002c 	streq	r0, [r0, #-44]	; 0xffffffd4
     cbc:	64b3018e 	ldrtvs	r0, [r3], #398	; 0x18e
     cc0:	8f060000 	svchi	0x00060000
     cc4:	006c0601 	rsbeq	r0, ip, r1, lsl #12
     cc8:	01900500 	orrseq	r0, r0, r0, lsl #10
     ccc:	000012e0 	andeq	r1, r0, r0, ror #5
     cd0:	fe01a306 	cdp2	3, 0, cr10, cr1, cr6, {0}
     cd4:	05000028 	streq	r0, [r0, #-40]	; 0xffffffd8
     cd8:	3cc001a4 	stfcce	f0, [r0], {164}	; 0xa4
     cdc:	81050000 	mrshi	r0, (UNDEF: 5)
     ce0:	0044af02 	subeq	sl, r4, r2, lsl #30
     ce4:	02870500 	addeq	r0, r7, #0, 10
     ce8:	00004bd5 	ldrdeq	r4, [r0], -r5
     cec:	28028f05 	stmdacs	r2, {r0, r2, r8, r9, sl, fp, pc}
     cf0:	0500004d 	streq	r0, [r0, #-77]	; 0xffffffb3
     cf4:	45c70297 	strbmi	r0, [r7, #663]	; 0x297
     cf8:	a2050000 	andge	r0, r5, #0
     cfc:	00143f02 	andseq	r3, r4, r2, lsl #30
     d00:	02a60500 	adceq	r0, r6, #0, 10
     d04:	000024da 	ldrdeq	r2, [r0], -sl
     d08:	0002ac05 	andeq	sl, r2, r5, lsl #24
     d0c:	05000005 	streq	r0, [r0, #-5]
     d10:	008802bc 			; <UNDEFINED> instruction: 0x008802bc
     d14:	cc050000 	stcgt	0, cr0, [r5], {-0}
     d18:	005d9b02 	subseq	r9, sp, r2, lsl #22
     d1c:	02de0500 	sbcseq	r0, lr, #0, 10
     d20:	00005d6e 	andeq	r5, r0, lr, ror #26
     d24:	00000500 	andeq	r0, r0, r0, lsl #10
     d28:	4101e005 	tstmi	r1, r5
     d2c:	06000045 	streq	r0, [r0], -r5, asr #32
     d30:	818401e6 	orrhi	r0, r4, r6, ror #3
     d34:	ea050000 	b	140d3c <_Min_Stack_Size+0x14093c>
     d38:	0045b101 	subeq	fp, r5, r1, lsl #2
     d3c:	01f80500 	mvnseq	r0, r0, lsl #10
     d40:	00004317 	andeq	r4, r0, r7, lsl r3
     d44:	7001fc05 	andvc	pc, r1, r5, lsl #24
     d48:	05000043 	streq	r0, [r0, #-67]	; 0xffffffbd
     d4c:	193c0283 	ldmdbne	ip!, {r0, r1, r7, r9}
     d50:	89050000 	stmdbhi	r5, {}	; <UNPREDICTABLE>
     d54:	00139702 	andseq	r9, r3, r2, lsl #14
     d58:	02960500 	addseq	r0, r6, #0, 10
     d5c:	000061d2 	ldrdeq	r6, [r0], -r2
     d60:	e402a205 	str	sl, [r2], #-517	; 0xfffffdfb
     d64:	0000002d 	andeq	r0, r0, sp, lsr #32
     d68:	05000005 	streq	r0, [r0, #-5]
     d6c:	0044df1f 	subeq	sp, r4, pc, lsl pc
     d70:	93200500 	nopls	{0}	; <UNPREDICTABLE>
     d74:	05000022 	streq	r0, [r0, #-34]	; 0xffffffde
     d78:	003d4621 	eorseq	r4, sp, r1, lsr #12
     d7c:	0c250500 	cfstr32eq	mvfx0, [r5], #-0
     d80:	05000002 	streq	r0, [r0, #-2]
     d84:	005aca2b 	subseq	ip, sl, fp, lsr #20
     d88:	6e450500 	cdpvs	5, 4, cr0, cr5, cr0, {0}
     d8c:	0500000c 	streq	r0, [r0, #-12]
     d90:	0010ec49 	andseq	lr, r0, r9, asr #24
     d94:	694a0500 	stmdbvs	sl, {r8, sl}^
     d98:	00000056 	andeq	r0, r0, r6, asr r0
     d9c:	05000005 	streq	r0, [r0, #-5]
     da0:	00458d1f 	subeq	r8, r5, pc, lsl sp
     da4:	10210500 	eorne	r0, r1, r0, lsl #10
     da8:	0500001e 	streq	r0, [r0, #-30]	; 0xffffffe2
     dac:	002f0f22 	eoreq	r0, pc, r2, lsr #30
     db0:	00050000 	andeq	r0, r5, r0
     db4:	3f060500 	svccc	0x00060500
     db8:	05000046 	streq	r0, [r0, #-70]	; 0xffffffba
     dbc:	003cd10f 	eorseq	sp, ip, pc, lsl #2
     dc0:	2b1a0500 	blcs	6821c8 <_Min_Stack_Size+0x681dc8>
     dc4:	0500004f 	streq	r0, [r0, #-79]	; 0xffffffb1
     dc8:	005c8121 	subseq	r8, ip, r1, lsr #2
     dcc:	642f0500 	strtvs	r0, [pc], #-1280	; dd4 <_Min_Stack_Size+0x9d4>
     dd0:	0500002b 	streq	r0, [r0, #-43]	; 0xffffffd5
     dd4:	001f363d 	andseq	r3, pc, sp, lsr r6	; <UNPREDICTABLE>
     dd8:	43530500 	cmpmi	r3, #0, 10
     ddc:	05000037 	streq	r0, [r0, #-55]	; 0xffffffc9
     de0:	004a206d 	subeq	r2, sl, sp, rrx
     de4:	018c0500 	orreq	r0, ip, r0, lsl #10
     de8:	00004270 	andeq	r4, r0, r0, ror r2
     dec:	a801a605 	stmdage	r1, {r0, r2, r9, sl, sp, pc}
     df0:	05000010 	streq	r0, [r0, #-16]
     df4:	55be01bc 	ldrpl	r0, [lr, #444]!	; 0x1bc
     df8:	ce050000 	cdpgt	0, 0, cr0, cr5, cr0, {0}
     dfc:	00388201 	eorseq	r8, r8, r1, lsl #4
     e00:	01f40600 	mvnseq	r0, r0, lsl #12
     e04:	00004a1a 	andeq	r4, r0, sl, lsl sl
     e08:	00000500 	andeq	r0, r0, r0, lsl #10
     e0c:	2501b905 	strcs	fp, [r1, #-2309]	; 0xfffff6fb
     e10:	05000011 	streq	r0, [r0, #-17]	; 0xffffffef
     e14:	09dc01ba 	ldmibeq	ip, {r1, r3, r4, r5, r7, r8}^
     e18:	bb050000 	bllt	140e20 <_Min_Stack_Size+0x140a20>
     e1c:	00632101 	rsbeq	r2, r3, r1, lsl #2
     e20:	01bc0500 			; <UNDEFINED> instruction: 0x01bc0500
     e24:	00000ef5 	strdeq	r0, [r0], -r5
     e28:	d201bd05 	andle	fp, r1, #320	; 0x140
     e2c:	0500002c 	streq	r0, [r0, #-44]	; 0xffffffd4
     e30:	22e201be 	rsccs	r0, r2, #-2147483601	; 0x8000002f
     e34:	bf050000 	svclt	0x00050000
     e38:	0027fe01 	eoreq	pc, r7, r1, lsl #28
     e3c:	01c00500 	biceq	r0, r0, r0, lsl #10
     e40:	00005185 	andeq	r5, r0, r5, lsl #3
     e44:	8101c105 	tsthi	r1, r5, lsl #2
     e48:	05000051 	streq	r0, [r0, #-81]	; 0xffffffaf
     e4c:	17f001c2 	ldrbne	r0, [r0, r2, asr #3]!
     e50:	c3050000 	movwgt	r0, #20480	; 0x5000
     e54:	004d0801 	subeq	r0, sp, r1, lsl #16
     e58:	01c40500 	biceq	r0, r4, r0, lsl #10
     e5c:	000017ec 	andeq	r1, r0, ip, ror #15
     e60:	8701c505 	strhi	ip, [r1, -r5, lsl #10]
     e64:	05000012 	streq	r0, [r0, #-18]	; 0xffffffee
     e68:	19b101c6 	ldmibne	r1!, {r1, r2, r6, r7, r8}
     e6c:	c7050000 	strgt	r0, [r5, -r0]
     e70:	00184201 	andseq	r4, r8, r1, lsl #4
     e74:	01c80500 	biceq	r0, r8, r0, lsl #10
     e78:	0000631d 	andeq	r6, r0, sp, lsl r3
     e7c:	3f01c905 	svccc	0x0001c905
     e80:	05000025 	streq	r0, [r0, #-37]	; 0xffffffdb
     e84:	0b7e01d0 	bleq	1f815cc <_Min_Stack_Size+0x1f811cc>
     e88:	ed060000 	stc	0, cr0, [r6, #-0]
     e8c:	0034e301 	eorseq	lr, r4, r1, lsl #6
     e90:	038f0600 	orreq	r0, pc, #0, 12
     e94:	0000284c 	andeq	r2, r0, ip, asr #16
     e98:	5b039405 	blpl	e5eb4 <_Min_Stack_Size+0xe5ab4>
     e9c:	06000027 	streq	r0, [r0], -r7, lsr #32
     ea0:	2845039a 	stmdacs	r5, {r1, r3, r4, r7, r8, r9}^
     ea4:	05000000 	streq	r0, [r0, #-0]
     ea8:	31050000 	mrscc	r0, (UNDEF: 5)
     eac:	000018e0 	andeq	r1, r0, r0, ror #17
     eb0:	4c223205 	sfmmi	f3, 4, [r2], #-20	; 0xffffffec
     eb4:	33050000 	movwcc	r0, #20480	; 0x5000
     eb8:	000038c8 	andeq	r3, r0, r8, asr #17
     ebc:	14983605 	ldrne	r3, [r8], #1541	; 0x605
     ec0:	39050000 	stmdbcc	r5, {}	; <UNPREDICTABLE>
     ec4:	00001591 	muleq	r0, r1, r5
     ec8:	666a3a05 	strbtvs	r3, [sl], -r5, lsl #20
     ecc:	3c050000 	stccc	0, cr0, [r5], {-0}
     ed0:	00002cfd 	strdeq	r2, [r0], -sp
     ed4:	23eb3d05 	mvncs	r3, #320	; 0x140
     ed8:	3e050000 	cdpcc	0, 0, cr0, cr5, cr0, {0}
     edc:	000017c9 	andeq	r1, r0, r9, asr #15
     ee0:	5ccb3f05 	stclpl	15, cr3, [fp], {5}
     ee4:	42050000 	andmi	r0, r5, #0
     ee8:	00000b88 	andeq	r0, r0, r8, lsl #23
     eec:	08c54305 	stmiaeq	r5, {r0, r2, r8, r9, lr}^
     ef0:	44050000 	strmi	r0, [r5], #-0
     ef4:	0000565d 	andeq	r5, r0, sp, asr r6
     ef8:	0d674e05 	stcleq	14, cr4, [r7, #-20]!	; 0xffffffec
     efc:	51050000 	mrspl	r0, (UNDEF: 5)
     f00:	00001f5e 	andeq	r1, r0, lr, asr pc
     f04:	4aa25e05 	bmi	fe898720 <_estack+0xde878720>
     f08:	5f050000 	svcpl	0x00050000
     f0c:	000058b6 			; <UNDEFINED> instruction: 0x000058b6
     f10:	25c66b05 	strbcs	r6, [r6, #2821]	; 0xb05
     f14:	6c050000 	stcvs	0, cr0, [r5], {-0}
     f18:	000031c8 	andeq	r3, r0, r8, asr #3
     f1c:	04817005 	streq	r7, [r1], #5
     f20:	71050000 	mrsvc	r0, (UNDEF: 5)
     f24:	00000000 	andeq	r0, r0, r0
     f28:	58547305 	ldmdapl	r4, {r0, r2, r8, r9, ip, sp, lr}^
     f2c:	75050000 	strvc	r0, [r5, #-0]
     f30:	00000e2e 	andeq	r0, r0, lr, lsr #28
     f34:	24227805 	strtcs	r7, [r2], #-2053	; 0xfffff7fb
     f38:	79050000 	stmdbvc	r5, {}	; <UNPREDICTABLE>
     f3c:	00000a62 	andeq	r0, r0, r2, ror #20
     f40:	626d7a05 	rsbvs	r7, sp, #20480	; 0x5000
     f44:	7d050000 	stcvc	0, cr0, [r5, #-0]
     f48:	00004ad2 	ldrdeq	r4, [r0], -r2
     f4c:	a2018205 	andge	r8, r1, #1342177280	; 0x50000000
     f50:	05000067 	streq	r0, [r0, #-103]	; 0xffffff99
     f54:	46820184 	strmi	r0, [r2], r4, lsl #3
     f58:	85050000 	strhi	r0, [r5, #-0]
     f5c:	0018aa01 	andseq	sl, r8, r1, lsl #20
     f60:	01870500 	orreq	r0, r7, r0, lsl #10
     f64:	00003e76 	andeq	r3, r0, r6, ror lr
     f68:	0b018a05 	bleq	63784 <_Min_Stack_Size+0x63384>
     f6c:	0500004c 	streq	r0, [r0, #-76]	; 0xffffffb4
     f70:	0c08018b 	stfeqs	f0, [r8], {139}	; 0x8b
     f74:	8c050000 	stchi	0, cr0, [r5], {-0}
     f78:	0059d301 	subseq	sp, r9, r1, lsl #6
     f7c:	018e0500 	orreq	r0, lr, r0, lsl #10
     f80:	00003181 	andeq	r3, r0, r1, lsl #3
     f84:	2a018f05 	bcs	64ba0 <_Min_Stack_Size+0x647a0>
     f88:	05000063 	streq	r0, [r0, #-99]	; 0xffffff9d
     f8c:	63c10191 	bicvs	r0, r1, #1073741860	; 0x40000024
     f90:	93050000 	movwls	r0, #20480	; 0x5000
     f94:	0012f801 	andseq	pc, r2, r1, lsl #16
     f98:	01a40500 			; <UNDEFINED> instruction: 0x01a40500
     f9c:	00001b88 	andeq	r1, r0, r8, lsl #23
     fa0:	f201a505 	vrshl.s8	d10, d5, d1
     fa4:	0500000b 	streq	r0, [r0, #-11]
     fa8:	045401a6 	ldrbeq	r0, [r4], #-422	; 0xfffffe5a
     fac:	a7050000 	strge	r0, [r5, -r0]
     fb0:	0047ac01 	subeq	sl, r7, r1, lsl #24
     fb4:	01a80500 			; <UNDEFINED> instruction: 0x01a80500
     fb8:	000023d2 	ldrdeq	r2, [r0], -r2	; <UNPREDICTABLE>
     fbc:	7901aa05 	stmdbvc	r1, {r0, r2, r9, fp, sp, pc}
     fc0:	05000012 	streq	r0, [r0, #-18]	; 0xffffffee
     fc4:	4e5501ab 	rdfmidp	f0, f5, #3.0
     fc8:	ac050000 	stcge	0, cr0, [r5], {-0}
     fcc:	0043b201 	subeq	fp, r3, r1, lsl #4
     fd0:	01d90500 	bicseq	r0, r9, r0, lsl #10
     fd4:	00001e7b 	andeq	r1, r0, fp, ror lr
     fd8:	1001e605 	andne	lr, r1, r5, lsl #12
     fdc:	05000049 	streq	r0, [r0, #-73]	; 0xffffffb7
     fe0:	303801e7 	eorscc	r0, r8, r7, ror #3
     fe4:	e8050000 	stmda	r5, {}	; <UNPREDICTABLE>
     fe8:	0060f801 	rsbeq	pc, r0, r1, lsl #16
     fec:	01e90500 	mvneq	r0, r0, lsl #10
     ff0:	00001eba 			; <UNDEFINED> instruction: 0x00001eba
     ff4:	fa01ea05 	blx	7b810 <_Min_Stack_Size+0x7b410>
     ff8:	0500006a 	streq	r0, [r0, #-106]	; 0xffffff96
     ffc:	082a01eb 	stmdaeq	sl!, {r0, r1, r3, r5, r6, r7, r8}
    1000:	ec050000 	stc	0, cr0, [r5], {-0}
    1004:	002a4401 	eoreq	r4, sl, r1, lsl #8
    1008:	01ef0500 	mvneq	r0, r0, lsl #10
    100c:	00004c94 	muleq	r0, r4, ip
    1010:	1f01f005 	svcne	0x0001f005
    1014:	0500001a 	streq	r0, [r0, #-26]	; 0xffffffe6
    1018:	16a101f6 			; <UNDEFINED> instruction: 0x16a101f6
    101c:	d2050000 	andle	r0, r5, #0
    1020:	001edb02 	andseq	sp, lr, r2, lsl #22
    1024:	02e40500 	rsceq	r0, r4, #0, 10
    1028:	00002df0 	strdeq	r2, [r0], -r0
    102c:	ed02ea05 	vstr	s28, [r2, #-20]	; 0xffffffec
    1030:	05000044 	streq	r0, [r0, #-68]	; 0xffffffbc
    1034:	62ec02eb 	rscvs	r0, ip, #-1342177266	; 0xb000000e
    1038:	f2050000 	vhadd.s8	d0, d5, d0
    103c:	0050ac02 	subseq	sl, r0, r2, lsl #24
    1040:	02f80500 	rscseq	r0, r8, #0, 10
    1044:	00001c01 	andeq	r1, r0, r1, lsl #24
    1048:	af02fe05 	svcge	0x0002fe05
    104c:	05000068 	streq	r0, [r0, #-104]	; 0xffffff98
    1050:	2c1402ff 	lfmcs	f0, 4, [r4], {255}	; 0xff
    1054:	86050000 	strhi	r0, [r5], -r0
    1058:	005a6d03 	subseq	r6, sl, r3, lsl #26
    105c:	03870500 	orreq	r0, r7, #0, 10
    1060:	00000ad5 	ldrdeq	r0, [r0], -r5
    1064:	f4038e05 			; <UNDEFINED> instruction: 0xf4038e05
    1068:	05000021 	streq	r0, [r0, #-33]	; 0xffffffdf
    106c:	5fa50394 	svcpl	0x00a50394
    1070:	a5050000 	strge	r0, [r5, #-0]
    1074:	00272903 	eoreq	r2, r7, r3, lsl #18
    1078:	03b20500 			; <UNDEFINED> instruction: 0x03b20500
    107c:	00006396 	muleq	r0, r6, r3
    1080:	0c03d405 	cfstrseq	mvf13, [r3], {5}
    1084:	05000017 	streq	r0, [r0, #-23]	; 0xffffffe9
    1088:	381f03d5 	ldmdacc	pc, {r0, r2, r4, r6, r7, r8, r9}	; <UNPREDICTABLE>
    108c:	dc050000 	stcle	0, cr0, [r5], {-0}
    1090:	002ebc03 	eoreq	fp, lr, r3, lsl #24
    1094:	03dd0500 	bicseq	r0, sp, #0, 10
    1098:	00002061 	andeq	r2, r0, r1, rrx
    109c:	f203e005 	vhadd.s8	d14, d3, d5
    10a0:	0500001c 	streq	r0, [r0, #-28]	; 0xffffffe4
    10a4:	2bbd03ea 	blcs	fef42054 <_estack+0xdef22054>
    10a8:	eb050000 	bl	1410b0 <_Min_Stack_Size+0x140cb0>
    10ac:	005bf903 	subseq	pc, fp, r3, lsl #18
    10b0:	03f50500 	mvnseq	r0, #0, 10
    10b4:	000050f5 	strdeq	r5, [r0], -r5	; <UNPREDICTABLE>
    10b8:	fe048b05 	vseleq.f64	d8, d4, d5
    10bc:	05000059 	streq	r0, [r0, #-89]	; 0xffffffa7
    10c0:	6175048d 	cmnvs	r5, sp, lsl #9
    10c4:	8f050000 	svchi	0x00050000
    10c8:	00676404 	rsbeq	r6, r7, r4, lsl #8
    10cc:	04900500 	ldreq	r0, [r0], #1280	; 0x500
    10d0:	00005dd1 	ldrdeq	r5, [r0], -r1
    10d4:	d9049205 	stmdble	r4, {r0, r2, r9, ip, pc}
    10d8:	05000069 	streq	r0, [r0, #-105]	; 0xffffff97
    10dc:	48dd049c 	ldmmi	sp, {r2, r3, r4, r7, sl}^
    10e0:	a0050000 	andge	r0, r5, r0
    10e4:	005f2104 	subseq	r2, pc, r4, lsl #2
    10e8:	04a40500 	strteq	r0, [r4], #1280	; 0x500
    10ec:	000063dd 	ldrdeq	r6, [r0], -sp
    10f0:	ae04a705 	cdpge	7, 0, cr10, cr4, cr5, {0}
    10f4:	05000033 	streq	r0, [r0, #-51]	; 0xffffffcd
    10f8:	598704ab 	stmibpl	r7, {r0, r1, r3, r5, r7, sl}
    10fc:	ad050000 	stcge	0, cr0, [r5, #-0]
    1100:	0019d104 	andseq	sp, r9, r4, lsl #2
    1104:	04d00500 	ldrbeq	r0, [r0], #1280	; 0x500
    1108:	000045fa 	strdeq	r4, [r0], -sl
    110c:	6d04d405 	cfstrsvs	mvf13, [r4, #-20]	; 0xffffffec
    1110:	05000057 	streq	r0, [r0, #-87]	; 0xffffffa9
    1114:	04c504d8 	strbeq	r0, [r5], #1240	; 0x4d8
    1118:	dc050000 	stcle	0, cr0, [r5], {-0}
    111c:	00209704 	eoreq	r9, r0, r4, lsl #14
    1120:	04e00500 	strbteq	r0, [r0], #1280	; 0x500
    1124:	00004822 	andeq	r4, r0, r2, lsr #16
    1128:	b304e405 	movwlt	lr, #17413	; 0x4405
    112c:	0500001b 	streq	r0, [r0, #-27]	; 0xffffffe5
    1130:	5d1e04e8 	cfldrspl	mvf0, [lr, #-928]	; 0xfffffc60
    1134:	ec050000 	stc	0, cr0, [r5], {-0}
    1138:	006a4f04 	rsbeq	r4, sl, r4, lsl #30
    113c:	04f30500 	ldrbteq	r0, [r3], #1280	; 0x500
    1140:	00000e56 	andeq	r0, r0, r6, asr lr
    1144:	4f04f405 	svcmi	0x0004f405
    1148:	05000013 	streq	r0, [r0, #-19]	; 0xffffffed
    114c:	239804f5 	orrscs	r0, r8, #-184549376	; 0xf5000000
    1150:	f6050000 			; <UNDEFINED> instruction: 0xf6050000
    1154:	00307d04 	eorseq	r7, r0, r4, lsl #26
    1158:	04f70500 	ldrbteq	r0, [r7], #1280	; 0x500
    115c:	0000379e 	muleq	r0, lr, r7
    1160:	7d058c05 	stcvc	12, cr8, [r5, #-20]	; 0xffffffec
    1164:	05000047 	streq	r0, [r0, #-71]	; 0xffffffb9
    1168:	6819058d 	ldmdavs	r9, {r0, r2, r3, r7, r8, sl}
    116c:	9f050000 	svcls	0x00050000
    1170:	005a9605 	subseq	r9, sl, r5, lsl #12
    1174:	05a50500 	streq	r0, [r5, #1280]!	; 0x500
    1178:	00005877 	andeq	r5, r0, r7, ror r8
    117c:	1b05a805 	blne	16b198 <_Min_Stack_Size+0x16ad98>
    1180:	0500000f 	streq	r0, [r0, #-15]
    1184:	60b105aa 	adcsvs	r0, r1, sl, lsr #11
    1188:	ae050000 	cdpge	0, 0, cr0, cr5, cr0, {0}
    118c:	00230e05 	eoreq	r0, r3, r5, lsl #28
    1190:	05b00500 	ldreq	r0, [r0, #1280]!	; 0x500
    1194:	00004fd4 	ldrdeq	r4, [r0], -r4	; <UNPREDICTABLE>
    1198:	da05b405 	ble	16e1b4 <_Min_Stack_Size+0x16ddb4>
    119c:	05000042 	streq	r0, [r0, #-66]	; 0xffffffbe
    11a0:	153005b7 	ldrne	r0, [r0, #-1463]!	; 0xfffffa49
    11a4:	b9050000 	stmdblt	r5, {}	; <UNPREDICTABLE>
    11a8:	006b5605 	rsbeq	r5, fp, r5, lsl #12
    11ac:	05bd0500 	ldreq	r0, [sp, #1280]!	; 0x500
    11b0:	0000654d 	andeq	r6, r0, sp, asr #10
    11b4:	4805bf05 	stmdami	r5, {r0, r2, r8, r9, sl, fp, ip, sp, pc}
    11b8:	05000022 	streq	r0, [r0, #-34]	; 0xffffffde
    11bc:	41de05c1 	bicsmi	r0, lr, r1, asr #11
    11c0:	c5050000 	strgt	r0, [r5, #-0]
    11c4:	0015b705 	andseq	fp, r5, r5, lsl #14
    11c8:	05d60500 	ldrbeq	r0, [r6, #1280]	; 0x500
    11cc:	00000d05 	andeq	r0, r0, r5, lsl #26
    11d0:	4e05d705 	cdpmi	7, 0, cr13, cr5, cr5, {0}
    11d4:	0500000b 	streq	r0, [r0, #-11]
    11d8:	6c6305d8 	cfstr64vs	mvdx0, [r3], #-864	; 0xfffffca0
    11dc:	dc050000 	stcle	0, cr0, [r5], {-0}
    11e0:	0048ae05 	subeq	sl, r8, r5, lsl #28
    11e4:	05dd0500 	ldrbeq	r0, [sp, #1280]	; 0x500
    11e8:	00005916 	andeq	r5, r0, r6, lsl r9
    11ec:	3305e205 	movwcc	lr, #20997	; 0x5205
    11f0:	05000000 	streq	r0, [r0, #-0]
    11f4:	039a05e6 	orrseq	r0, sl, #964689920	; 0x39800000
    11f8:	ea050000 	b	141200 <_Min_Stack_Size+0x140e00>
    11fc:	00090305 	andeq	r0, r9, r5, lsl #6
    1200:	05ee0500 	strbeq	r0, [lr, #1280]!	; 0x500
    1204:	000014e7 	andeq	r1, r0, r7, ror #9
    1208:	1005ef05 	andne	lr, r5, r5, lsl #30
    120c:	0500000b 	streq	r0, [r0, #-11]
    1210:	545105f0 	ldrbpl	r0, [r1], #-1520	; 0xfffffa10
    1214:	05000000 	streq	r0, [r0, #-0]
    1218:	27050000 	strcs	r0, [r5, -r0]
    121c:	000032fe 	strdeq	r3, [r0], -lr
    1220:	694d2805 	stmdbvs	sp, {r0, r2, fp, sp}^
    1224:	2a050000 	bcs	14122c <_Min_Stack_Size+0x140e2c>
    1228:	000032f9 	strdeq	r3, [r0], -r9
    122c:	76018405 	strvc	r8, [r1], -r5, lsl #8
    1230:	05000046 	streq	r0, [r0, #-70]	; 0xffffffba
    1234:	32190185 	andscc	r0, r9, #1073741857	; 0x40000021
    1238:	86050000 	strhi	r0, [r5], -r0
    123c:	00414701 	subeq	r4, r1, r1, lsl #14
    1240:	01870500 	orreq	r0, r7, r0, lsl #10
    1244:	00004d4a 	andeq	r4, r0, sl, asr #26
    1248:	41018805 	tstmi	r1, r5, lsl #16
    124c:	0500000b 	streq	r0, [r0, #-11]
    1250:	0b3d0189 	bleq	f4187c <_Min_Stack_Size+0xf4147c>
    1254:	8a050000 	bhi	14125c <_Min_Stack_Size+0x140e5c>
    1258:	00312401 	eorseq	r2, r1, r1, lsl #8
    125c:	018b0500 	orreq	r0, fp, r0, lsl #10
    1260:	00004672 	andeq	r4, r0, r2, ror r6
    1264:	5b018c05 	blpl	64280 <_Min_Stack_Size+0x63e80>
    1268:	05000042 	streq	r0, [r0, #-66]	; 0xffffffbe
    126c:	6891018d 	ldmvs	r1, {r0, r2, r3, r7, r8}
    1270:	9e060000 	cdpls	0, 0, cr0, cr6, cr0, {0}
    1274:	005c5901 	subseq	r5, ip, r1, lsl #18
    1278:	01ed0600 	mvneq	r0, r0, lsl #12
    127c:	000034e3 	andeq	r3, r0, r3, ror #9
    1280:	d6028b05 	strle	r8, [r2], -r5, lsl #22
    1284:	05000016 	streq	r0, [r0, #-22]	; 0xffffffea
    1288:	5d61028c 	sfmpl	f0, 2, [r1, #-560]!	; 0xfffffdd0
    128c:	8d050000 	stchi	0, cr0, [r5, #-0]
    1290:	0042d002 	subeq	sp, r2, r2
    1294:	028e0500 	addeq	r0, lr, #0, 10
    1298:	00003390 	muleq	r0, r0, r3
    129c:	3a028f05 	bcc	a4eb8 <_Min_Stack_Size+0xa4ab8>
    12a0:	05000052 	streq	r0, [r0, #-82]	; 0xffffffae
    12a4:	36f70290 	usatcc	r0, #23, r0, lsl #5
    12a8:	91050000 	mrsls	r0, (UNDEF: 5)
    12ac:	00261d02 	eoreq	r1, r6, r2, lsl #26
    12b0:	02920500 	addseq	r0, r2, #0, 10
    12b4:	00002619 	andeq	r2, r0, r9, lsl r6
    12b8:	07029305 	streq	r9, [r2, -r5, lsl #6]
    12bc:	0500004a 	streq	r0, [r0, #-74]	; 0xffffffb6
    12c0:	4f980294 	svcmi	0x00980294
    12c4:	95050000 	strls	r0, [r5, #-0]
    12c8:	0052f102 	subseq	pc, r2, r2, lsl #2
    12cc:	02960500 	addseq	r0, r6, #0, 10
    12d0:	00000bc4 	andeq	r0, r0, r4, asr #23
    12d4:	ec029705 	stc	7, cr9, [r2], {5}
    12d8:	05000052 	streq	r0, [r0, #-82]	; 0xffffffae
    12dc:	42cc0298 	sbcmi	r0, ip, #152, 4	; 0x80000009
    12e0:	99050000 	stmdbls	r5, {}	; <UNPREDICTABLE>
    12e4:	00403202 	subeq	r3, r0, r2, lsl #4
    12e8:	029a0500 	addseq	r0, sl, #0, 10
    12ec:	00005ed5 	ldrdeq	r5, [r0], -r5	; <UNPREDICTABLE>
    12f0:	8802a706 	stmdahi	r2, {r1, r2, r8, r9, sl, sp, pc}
    12f4:	06000063 	streq	r0, [r0], -r3, rrx
    12f8:	0aad02dd 	beq	feb41e74 <_estack+0xdeb21e74>
    12fc:	8f060000 	svchi	0x00060000
    1300:	00284c03 	eoreq	r4, r8, r3, lsl #24
    1304:	03940500 	orrseq	r0, r4, #0, 10
    1308:	0000275b 	andeq	r2, r0, fp, asr r7
    130c:	45039a06 	strmi	r9, [r3, #-2566]	; 0xfffff5fa
    1310:	06000028 	streq	r0, [r0], -r8, lsr #32
    1314:	68a6039f 	stmiavs	r6!, {r0, r1, r2, r3, r4, r7, r8, r9}
    1318:	a0050000 	andge	r0, r5, r0
    131c:	002f8103 	eoreq	r8, pc, r3, lsl #2
    1320:	03a50500 			; <UNDEFINED> instruction: 0x03a50500
    1324:	000055a0 	andeq	r5, r0, r0, lsr #11
    1328:	00000500 	andeq	r0, r0, r0, lsl #10
    132c:	68392206 	ldmdavs	r9!, {r1, r2, r9, sp}
    1330:	27050000 	strcs	r0, [r5, -r0]
    1334:	00002589 	andeq	r2, r0, r9, lsl #11
    1338:	00000500 	andeq	r0, r0, r0, lsl #10
    133c:	61f91405 	mvnsvs	r1, r5, lsl #8
    1340:	16050000 	strne	r0, [r5], -r0
    1344:	00001e10 	andeq	r1, r0, r0, lsl lr
    1348:	64f41705 	ldrbtvs	r1, [r4], #1797	; 0x705
    134c:	05000000 	streq	r0, [r0, #-0]
    1350:	9e060000 	cdpls	0, 0, cr0, cr6, cr0, {0}
    1354:	005c5901 	subseq	r5, ip, r1, lsl #18
    1358:	01ed0600 	mvneq	r0, r0, lsl #12
    135c:	000034e3 	andeq	r3, r0, r3, ror #9
    1360:	ad02dd06 	stcge	13, cr13, [r2, #-24]	; 0xffffffe8
    1364:	0500000a 	streq	r0, [r0, #-10]
    1368:	1de302e2 	sfmne	f0, 2, [r3, #904]!	; 0x388
    136c:	e9060000 	stmdb	r6, {}	; <UNPREDICTABLE>
    1370:	0019c302 	andseq	ip, r9, r2, lsl #6
    1374:	038f0600 	orreq	r0, pc, #0, 12
    1378:	0000284c 	andeq	r2, r0, ip, asr #16
    137c:	5b039405 	blpl	e6398 <_Min_Stack_Size+0xe5f98>
    1380:	06000027 	streq	r0, [r0], -r7, lsr #32
    1384:	2845039a 	stmdacs	r5, {r1, r3, r4, r7, r8, r9}^
    1388:	9f060000 	svcls	0x00060000
    138c:	0068a603 	rsbeq	sl, r8, r3, lsl #12
    1390:	03a00500 	moveq	r0, #0, 10
    1394:	00002f81 	andeq	r2, r0, r1, lsl #31
    1398:	00000500 	andeq	r0, r0, r0, lsl #10
    139c:	4c027f06 	stcmi	15, cr7, [r2], {6}
    13a0:	92050000 	andls	r0, r5, #0
    13a4:	0029b101 	eoreq	fp, r9, r1, lsl #2
    13a8:	01940600 	orrseq	r0, r4, r0, lsl #12
    13ac:	00005900 	andeq	r5, r0, r0, lsl #18
    13b0:	e101b305 	tst	r1, r5, lsl #6
    13b4:	05000013 	streq	r0, [r0, #-19]	; 0xffffffed
    13b8:	13f901bb 	mvnsne	r0, #-1073741778	; 0xc000002e
    13bc:	c0050000 	andgt	r0, r5, r0
    13c0:	0052b401 	subseq	fp, r2, r1, lsl #8
    13c4:	01c90500 	biceq	r0, r9, r0, lsl #10
    13c8:	00000a2f 	andeq	r0, r0, pc, lsr #20
    13cc:	00000500 	andeq	r0, r0, r0, lsl #10
    13d0:	5cc31205 	sfmpl	f1, 2, [r3], {5}
    13d4:	16050000 	strne	r0, [r5], -r0
    13d8:	000055b2 			; <UNDEFINED> instruction: 0x000055b2
    13dc:	00000500 	andeq	r0, r0, r0, lsl #10
    13e0:	6b9d0205 	blvs	fe741bfc <_estack+0xde721bfc>
    13e4:	23050000 	movwcs	r0, #20480	; 0x5000
    13e8:	00005e8e 	andeq	r5, r0, lr, lsl #29
    13ec:	2ae42505 	bcs	ff90a808 <_estack+0xdf8ea808>
    13f0:	27050000 	strcs	r0, [r5, -r0]
    13f4:	000053be 			; <UNDEFINED> instruction: 0x000053be
    13f8:	0fc02a05 	svceq	0x00c02a05
    13fc:	2c050000 	stccs	0, cr0, [r5], {-0}
    1400:	00006a97 	muleq	r0, r7, sl
    1404:	67db2e05 	ldrbvs	r2, [fp, r5, lsl #28]
    1408:	30050000 	andcc	r0, r5, r0
    140c:	000043ef 	andeq	r4, r0, pc, ror #7
    1410:	4ba23205 	blmi	fe88dc2c <_estack+0xde86dc2c>
    1414:	34050000 	strcc	r0, [r5], #-0
    1418:	00006906 	andeq	r6, r0, r6, lsl #18
    141c:	4f5d3605 	svcmi	0x005d3605
    1420:	38050000 	stmdacc	r5, {}	; <UNPREDICTABLE>
    1424:	000020c6 	andeq	r2, r0, r6, asr #1
    1428:	0f7a3b05 	svceq	0x007a3b05
    142c:	3d050000 	stccc	0, cr0, [r5, #-0]
    1430:	00001757 	andeq	r1, r0, r7, asr r7
    1434:	00000500 	andeq	r0, r0, r0, lsl #10
    1438:	43924e05 	orrsmi	r4, r2, #5, 28	; 0x50
    143c:	61050000 	mrsvs	r0, (UNDEF: 5)
    1440:	0000266e 	andeq	r2, r0, lr, ror #12
    1444:	09019205 	stmdbeq	r1, {r0, r2, r9, ip, pc}
    1448:	05000033 	streq	r0, [r0, #-51]	; 0xffffffcd
    144c:	553502ab 	ldrpl	r0, [r5, #-683]!	; 0xfffffd55
    1450:	ac050000 	stcge	0, cr0, [r5], {-0}
    1454:	0030ec02 	eorseq	lr, r0, r2, lsl #24
    1458:	02ad0500 	adceq	r0, sp, #0, 10
    145c:	0000437a 	andeq	r4, r0, sl, ror r3
    1460:	2f02ae05 	svccs	0x0002ae05
    1464:	05000062 	streq	r0, [r0, #-98]	; 0xffffff9e
    1468:	54e202af 	strbtpl	r0, [r2], #687	; 0x2af
    146c:	b0050000 	andlt	r0, r5, r0
    1470:	0040a602 	subeq	sl, r0, r2, lsl #12
    1474:	02b10500 	adcseq	r0, r1, #0, 10
    1478:	000068db 	ldrdeq	r6, [r0], -fp
    147c:	5a02bd05 	bpl	b0898 <_Min_Stack_Size+0xb0498>
    1480:	05000013 	streq	r0, [r0, #-19]	; 0xffffffed
    1484:	6bef02be 	blvs	ffbc1f84 <_estack+0xdfba1f84>
    1488:	bf050000 	svclt	0x00050000
    148c:	00036702 	andeq	r6, r3, r2, lsl #14
    1490:	02ca0500 	sbceq	r0, sl, #0, 10
    1494:	00001b9b 	muleq	r0, fp, fp
    1498:	6302cb05 	movwvs	ip, #11013	; 0x2b05
    149c:	0500001e 	streq	r0, [r0, #-30]	; 0xffffffe2
    14a0:	5e3202cc 	cdppl	2, 3, cr0, cr2, cr12, {6}
    14a4:	cd050000 	stcgt	0, cr0, [r5, #-0]
    14a8:	00589c02 	subseq	r9, r8, r2, lsl #24
    14ac:	02ce0500 	sbceq	r0, lr, #0, 10
    14b0:	0000372b 	andeq	r3, r0, fp, lsr #14
    14b4:	7103ac05 	tstvc	r3, r5, lsl #24
    14b8:	0500001f 	streq	r0, [r0, #-31]	; 0xffffffe1
    14bc:	3daf03c6 	stccc	3, cr0, [pc, #792]!	; 17dc <_Min_Stack_Size+0x13dc>
    14c0:	05000000 	streq	r0, [r0, #-0]
    14c4:	0b060000 	bleq	1814cc <_Min_Stack_Size+0x1810cc>
    14c8:	000053b7 			; <UNDEFINED> instruction: 0x000053b7
    14cc:	1b131005 	blne	4c54e8 <_Min_Stack_Size+0x4c50e8>
    14d0:	1a050000 	bne	1414d8 <_Min_Stack_Size+0x1410d8>
    14d4:	0000384f 	andeq	r3, r0, pc, asr #16
    14d8:	53a12d05 			; <UNDEFINED> instruction: 0x53a12d05
    14dc:	05000000 	streq	r0, [r0, #-0]
    14e0:	cf050000 	svcgt	0x00050000
    14e4:	0046b703 	subeq	fp, r6, r3, lsl #14
    14e8:	03d90500 	bicseq	r0, r9, #0, 10
    14ec:	00005fcd 	andeq	r5, r0, sp, asr #31
    14f0:	2a03e205 	bcs	f9d0c <_Min_Stack_Size+0xf990c>
    14f4:	0500002e 	streq	r0, [r0, #-46]	; 0xffffffd2
    14f8:	51aa03e6 			; <UNDEFINED> instruction: 0x51aa03e6
    14fc:	eb050000 	bl	141504 <_Min_Stack_Size+0x141104>
    1500:	00069303 	andeq	r9, r6, r3, lsl #6
    1504:	03f60500 	mvnseq	r0, #0, 10
    1508:	00005b6c 	andeq	r5, r0, ip, ror #22
    150c:	6f03f905 	svcvs	0x0003f905
    1510:	05000002 	streq	r0, [r0, #-2]
    1514:	38e503ff 	stmiacc	r5!, {r0, r1, r2, r3, r4, r5, r6, r7, r8, r9}^
    1518:	82050000 	andhi	r0, r5, #0
    151c:	00328a04 	eorseq	r8, r2, r4, lsl #20
    1520:	04880500 	streq	r0, [r8], #1280	; 0x500
    1524:	00003758 	andeq	r3, r0, r8, asr r7
    1528:	4d048a05 	vstrmi	s16, [r4, #-20]	; 0xffffffec
    152c:	05000039 	streq	r0, [r0, #-57]	; 0xffffffc7
    1530:	40d204a1 	sbcsmi	r0, r2, r1, lsr #9
    1534:	a4050000 	strge	r0, [r5], #-0
    1538:	004eb304 	subeq	fp, lr, r4, lsl #6
    153c:	04a70500 	strteq	r0, [r7], #1280	; 0x500
    1540:	00001c7c 	andeq	r1, r0, ip, ror ip
    1544:	2104a805 	tstcs	r4, r5, lsl #16
    1548:	05000050 	streq	r0, [r0, #-80]	; 0xffffffb0
    154c:	141204a9 	ldrne	r0, [r2], #-1193	; 0xfffffb57
    1550:	aa050000 	bge	141558 <_Min_Stack_Size+0x141158>
    1554:	0036b304 	eorseq	fp, r6, r4, lsl #6
    1558:	04ab0500 	strteq	r0, [fp], #1280	; 0x500
    155c:	00000168 	andeq	r0, r0, r8, ror #2
    1560:	b804ac05 	stmdalt	r4, {r0, r2, sl, fp, sp, pc}
    1564:	05000065 	streq	r0, [r0, #-101]	; 0xffffff9b
    1568:	663a04ad 	ldrtvs	r0, [sl], -sp, lsr #9
    156c:	ae050000 	cdpge	0, 0, cr0, cr5, cr0, {0}
    1570:	00229f04 	eoreq	r9, r2, r4, lsl #30
    1574:	04af0500 	strteq	r0, [pc], #1280	; 157c <_Min_Stack_Size+0x117c>
    1578:	00005284 	andeq	r5, r0, r4, lsl #5
    157c:	eb04b005 	bl	12d598 <_Min_Stack_Size+0x12d198>
    1580:	05000031 	streq	r0, [r0, #-49]	; 0xffffffcf
    1584:	2cab04b1 	cfstrscs	mvf0, [fp], #708	; 0x2c4
    1588:	b2050000 	andlt	r0, r5, #0
    158c:	0028ad04 	eoreq	sl, r8, r4, lsl #26
    1590:	04b30500 	ldrteq	r0, [r3], #1280	; 0x500
    1594:	000057e3 	andeq	r5, r0, r3, ror #15
    1598:	6104b405 	tstvs	r4, r5, lsl #8
    159c:	05000023 	streq	r0, [r0, #-35]	; 0xffffffdd
    15a0:	41a704b5 			; <UNDEFINED> instruction: 0x41a704b5
    15a4:	b6050000 	strlt	r0, [r5], -r0
    15a8:	003ec104 	eorseq	ip, lr, r4, lsl #2
    15ac:	04b70500 	ldrteq	r0, [r7], #1280	; 0x500
    15b0:	000026f0 	strdeq	r2, [r0], -r0
    15b4:	5a04b805 	bpl	12f5d0 <_Min_Stack_Size+0x12f1d0>
    15b8:	05000005 	streq	r0, [r0, #-5]
    15bc:	333304b9 	teqcc	r3, #-1191182336	; 0xb9000000
    15c0:	ba050000 	blt	1415c8 <_Min_Stack_Size+0x1411c8>
    15c4:	00088004 	andeq	r8, r8, r4
    15c8:	04bb0500 	ldrteq	r0, [fp], #1280	; 0x500
    15cc:	000057a0 	andeq	r5, r0, r0, lsr #15
    15d0:	5a04bc05 	bpl	1305ec <_Min_Stack_Size+0x1301ec>
    15d4:	0500004c 	streq	r0, [r0, #-76]	; 0xffffffb4
    15d8:	2d3504bd 	cfldrscs	mvf0, [r5, #-756]!	; 0xfffffd0c
    15dc:	be050000 	cdplt	0, 0, cr0, cr5, cr0, {0}
    15e0:	00594b04 	subseq	r4, r9, r4, lsl #22
    15e4:	06830500 	streq	r0, [r3], r0, lsl #10
    15e8:	00003138 	andeq	r3, r0, r8, lsr r1
    15ec:	47068405 	strmi	r8, [r6, -r5, lsl #8]
    15f0:	05000062 	streq	r0, [r0, #-98]	; 0xffffff9e
    15f4:	4e760685 	cdpmi	6, 7, cr0, cr6, cr5, {4}
    15f8:	86050000 	strhi	r0, [r5], -r0
    15fc:	00448306 	subeq	r8, r4, r6, lsl #6
    1600:	06870500 	streq	r0, [r7], r0, lsl #10
    1604:	00002c87 	andeq	r2, r0, r7, lsl #25
    1608:	44068805 	strmi	r8, [r6], #-2053	; 0xfffff7fb
    160c:	05000021 	streq	r0, [r0, #-33]	; 0xffffffdf
    1610:	36620689 	strbtcc	r0, [r2], -r9, lsl #13
    1614:	8a050000 	bhi	14161c <_Min_Stack_Size+0x14121c>
    1618:	0027d406 	eoreq	sp, r7, r6, lsl #8
    161c:	068b0500 	streq	r0, [fp], r0, lsl #10
    1620:	00002173 	andeq	r2, r0, r3, ror r1
    1624:	6c068c05 	stcvs	12, cr8, [r6], {5}
    1628:	05000064 	streq	r0, [r0, #-100]	; 0xffffff9c
    162c:	3534068d 	ldrcc	r0, [r4, #-1677]!	; 0xfffff973
    1630:	8f050000 	svchi	0x00050000
    1634:	0047ca06 	subeq	ip, r7, r6, lsl #20
    1638:	069a0500 	ldreq	r0, [sl], r0, lsl #10
    163c:	00005b07 	andeq	r5, r0, r7, lsl #22
    1640:	5306a005 	movwpl	sl, #24581	; 0x6005
    1644:	05000026 	streq	r0, [r0, #-38]	; 0xffffffda
    1648:	1f4b06ad 	svcne	0x004b06ad
    164c:	b0050000 	andlt	r0, r5, r0
    1650:	005dab06 	subseq	sl, sp, r6, lsl #22
    1654:	06b20500 	ldrteq	r0, [r2], r0, lsl #10
    1658:	00003f2e 	andeq	r3, r0, lr, lsr #30
    165c:	7d079305 	stcvc	3, cr9, [r7, #-20]	; 0xffffffec
    1660:	00000003 	andeq	r0, r0, r3
    1664:	05000005 	streq	r0, [r0, #-5]
    1668:	001b6b43 	andseq	r6, fp, r3, asr #22
    166c:	1e4d0500 	cdpne	5, 4, cr0, cr13, cr0, {0}
    1670:	0500000a 	streq	r0, [r0, #-10]
    1674:	00554d52 	subseq	r4, r5, r2, asr sp
    1678:	00050000 	andeq	r0, r5, r0
    167c:	13020500 	movwne	r0, #9472	; 0x2500
    1680:	05000031 	streq	r0, [r0, #-49]	; 0xffffffcf
    1684:	00164c0d 	andseq	r4, r6, sp, lsl #24
    1688:	6e150500 	cfmul32vs	mvfx0, mvfx5, mvfx0
    168c:	0000001a 	andeq	r0, r0, sl, lsl r0
    1690:	05000005 	streq	r0, [r0, #-5]
    1694:	002f4457 	eoreq	r4, pc, r7, asr r4	; <UNPREDICTABLE>
    1698:	f9580500 			; <UNDEFINED> instruction: 0xf9580500
    169c:	05000049 	streq	r0, [r0, #-73]	; 0xffffffb7
    16a0:	004e3659 	subeq	r3, lr, r9, asr r6
    16a4:	df5a0500 	svcle	0x005a0500
    16a8:	05000062 	streq	r0, [r0, #-98]	; 0xffffff9e
    16ac:	0023015c 	eoreq	r0, r3, ip, asr r1
    16b0:	b35d0500 	cmplt	sp, #0, 10
    16b4:	0500003e 	streq	r0, [r0, #-62]	; 0xffffffc2
    16b8:	0025b15e 	eoreq	fp, r5, lr, asr r1
    16bc:	9f5f0500 	svcls	0x005f0500
    16c0:	0500000c 	streq	r0, [r0, #-12]
    16c4:	00451760 	subeq	r1, r5, r0, ror #14
    16c8:	91610500 	cmnls	r1, r0, lsl #10
    16cc:	0500000c 	streq	r0, [r0, #-12]
    16d0:	00686362 	rsbeq	r6, r8, r2, ror #6
    16d4:	14630500 	strbtne	r0, [r3], #-1280	; 0xfffffb00
    16d8:	05000024 	streq	r0, [r0, #-36]	; 0xffffffdc
    16dc:	001d3c64 	andseq	r3, sp, r4, ror #24
    16e0:	93650500 	cmnls	r5, #0, 10
    16e4:	05000053 	streq	r0, [r0, #-83]	; 0xffffffad
    16e8:	00211569 	eoreq	r1, r1, r9, ror #10
    16ec:	516c0500 	cmnpl	ip, r0, lsl #10
    16f0:	05000028 	streq	r0, [r0, #-40]	; 0xffffffd8
    16f4:	00548f6d 	subseq	r8, r4, sp, ror #30
    16f8:	17780500 	ldrbne	r0, [r8, -r0, lsl #10]!
    16fc:	05000000 	streq	r0, [r0, #-0]
    1700:	00099979 	andeq	r9, r9, r9, ror r9
    1704:	4d7a0500 	cfldr64mi	mvdx0, [sl, #-0]
    1708:	05000047 	streq	r0, [r0, #-71]	; 0xffffffb9
    170c:	003d8e7c 	eorseq	r8, sp, ip, ror lr
    1710:	01810500 	orreq	r0, r1, r0, lsl #10
    1714:	000008d2 	ldrdeq	r0, [r0], -r2
    1718:	09018705 	stmdbeq	r1, {r0, r2, r8, r9, sl, pc}
    171c:	05000059 	streq	r0, [r0, #-89]	; 0xffffffa7
    1720:	3584018d 	strcc	r0, [r4, #397]	; 0x18d
    1724:	93050000 	movwls	r0, #20480	; 0x5000
    1728:	000d3201 	andeq	r3, sp, r1, lsl #4
    172c:	01970500 	orrseq	r0, r7, r0, lsl #10
    1730:	000035c7 	andeq	r3, r0, r7, asr #11
    1734:	1b019b05 	blne	68350 <_Min_Stack_Size+0x67f50>
    1738:	05000003 	streq	r0, [r0, #-3]
    173c:	138c019e 	orrne	r0, ip, #-2147483609	; 0x80000027
    1740:	a1050000 	mrsge	r0, (UNDEF: 5)
    1744:	004f3f01 	subeq	r3, pc, r1, lsl #30
    1748:	01a40500 			; <UNDEFINED> instruction: 0x01a40500
    174c:	000050ea 	andeq	r5, r0, sl, ror #1
    1750:	8f01a605 	svchi	0x0001a605
    1754:	05000051 	streq	r0, [r0, #-81]	; 0xffffffaf
    1758:	6b3901a7 	blvs	e41dfc <_Min_Stack_Size+0xe419fc>
    175c:	a8050000 	stmdage	r5, {}	; <UNPREDICTABLE>
    1760:	0022c501 	eoreq	ip, r2, r1, lsl #10
    1764:	01aa0500 			; <UNDEFINED> instruction: 0x01aa0500
    1768:	0000173b 	andeq	r1, r0, fp, lsr r7
    176c:	2501ab05 	strcs	sl, [r1, #-2821]	; 0xfffff4fb
    1770:	05000034 	streq	r0, [r0, #-52]	; 0xffffffcc
    1774:	444d01ac 	strbmi	r0, [sp], #-428	; 0xfffffe54
    1778:	b4050000 	strlt	r0, [r5], #-0
    177c:	0035af01 	eorseq	sl, r5, r1, lsl #30
    1780:	04ef0500 	strbteq	r0, [pc], #1280	; 1788 <_Min_Stack_Size+0x1388>
    1784:	00005244 	andeq	r5, r0, r4, asr #4
    1788:	6004f005 	andvs	pc, r4, r5
    178c:	05000055 	streq	r0, [r0, #-85]	; 0xffffffab
    1790:	19580592 	ldmdbne	r8, {r1, r4, r7, r8, sl}^
    1794:	af050000 	svcge	0x00050000
    1798:	00042505 	andeq	r2, r4, r5, lsl #10
    179c:	05d30500 	ldrbeq	r0, [r3, #1280]	; 0x500
    17a0:	00003d50 	andeq	r3, r0, r0, asr sp
    17a4:	9105d405 	tstls	r5, r5, lsl #8
    17a8:	0500005c 	streq	r0, [r0, #-92]	; 0xffffffa4
    17ac:	012f05d5 	ldrdeq	r0, [pc, -r5]!
    17b0:	d6050000 	strle	r0, [r5], -r0
    17b4:	00659e05 	rsbeq	r9, r5, r5, lsl #28
    17b8:	06830500 	streq	r0, [r3], r0, lsl #10
    17bc:	00001224 	andeq	r1, r0, r4, lsr #4
    17c0:	2f068405 	svccs	0x00068405
    17c4:	0500004c 	streq	r0, [r0, #-76]	; 0xffffffb4
    17c8:	276c068a 	strbcs	r0, [ip, -sl, lsl #13]!
    17cc:	92050000 	andls	r0, r5, #0
    17d0:	003f6406 	eorseq	r6, pc, r6, lsl #8
    17d4:	00050000 	andeq	r0, r5, r0
    17d8:	00053302 	andeq	r3, r5, r2, lsl #6
    17dc:	01000300 	mrseq	r0, LR_irq
    17e0:	60a60005 	adcvs	r0, r6, r5
    17e4:	00050000 	andeq	r0, r5, r0
    17e8:	0000290d 	andeq	r2, r0, sp, lsl #18
    17ec:	40940005 	addsmi	r0, r4, r5
    17f0:	00050000 	andeq	r0, r5, r0
    17f4:	00001853 	andeq	r1, r0, r3, asr r8
    17f8:	09630005 	stmdbeq	r3!, {r0, r2}^
    17fc:	00050000 	andeq	r0, r5, r0
    1800:	00003327 	andeq	r3, r0, r7, lsr #6
    1804:	547e0005 	ldrbtpl	r0, [lr], #-5
    1808:	00050000 	andeq	r0, r5, r0
    180c:	00001614 	andeq	r1, r0, r4, lsl r6
    1810:	18020005 	stmdane	r2, {r0, r2}
    1814:	00050000 	andeq	r0, r5, r0
    1818:	00005ab7 			; <UNDEFINED> instruction: 0x00005ab7
    181c:	19290005 	stmdbne	r9!, {r0, r2}
    1820:	00050000 	andeq	r0, r5, r0
    1824:	00002988 	andeq	r2, r0, r8, lsl #19
    1828:	30ad0005 	adccc	r0, sp, r5
    182c:	00050000 	andeq	r0, r5, r0
    1830:	00006ad9 	ldrdeq	r6, [r0], -r9
    1834:	2a710005 	bcs	1c41850 <_Min_Stack_Size+0x1c41450>
    1838:	00050000 	andeq	r0, r5, r0
    183c:	00004e9c 	muleq	r0, ip, lr
    1840:	48850005 	stmmi	r5, {r0, r2}
    1844:	00050000 	andeq	r0, r5, r0
    1848:	000017b7 			; <UNDEFINED> instruction: 0x000017b7
    184c:	04970005 	ldreq	r0, [r7], #5
    1850:	00050000 	andeq	r0, r5, r0
    1854:	00004f4a 	andeq	r4, r0, sl, asr #30
    1858:	18650005 	stmdane	r5!, {r0, r2}^
    185c:	00050000 	andeq	r0, r5, r0
    1860:	000013b4 			; <UNDEFINED> instruction: 0x000013b4
    1864:	1c2b0005 	stcne	0, cr0, [fp], #-20	; 0xffffffec
    1868:	00050000 	andeq	r0, r5, r0
    186c:	000057cf 	andeq	r5, r0, pc, asr #15
    1870:	37fb0005 	ldrbcc	r0, [fp, r5]!
    1874:	00050000 	andeq	r0, r5, r0
    1878:	0000465a 	andeq	r4, r0, sl, asr r6
    187c:	4be50005 	blmi	ff941898 <_estack+0xdf921898>
    1880:	00050000 	andeq	r0, r5, r0
    1884:	00000c45 	andeq	r0, r0, r5, asr #24
    1888:	05bf0005 	ldreq	r0, [pc, #5]!	; 1895 <_Min_Stack_Size+0x1495>
    188c:	00050000 	andeq	r0, r5, r0
    1890:	00003ce6 	andeq	r3, r0, r6, ror #25
    1894:	429f0005 	addsmi	r0, pc, #5
    1898:	00050000 	andeq	r0, r5, r0
    189c:	00001167 	andeq	r1, r0, r7, ror #2
    18a0:	14620005 	strbtne	r0, [r2], #-5
    18a4:	00050000 	andeq	r0, r5, r0
    18a8:	0000124b 	andeq	r1, r0, fp, asr #4
    18ac:	05d90005 	ldrbeq	r0, [r9, #5]
    18b0:	00050000 	andeq	r0, r5, r0
    18b4:	00004cf3 	strdeq	r4, [r0], -r3
    18b8:	1c600005 	stclne	0, cr0, [r0], #-20	; 0xffffffec
    18bc:	00050000 	andeq	r0, r5, r0
    18c0:	0000416c 	andeq	r4, r0, ip, ror #2
    18c4:	54fa0005 	ldrbtpl	r0, [sl], #5
    18c8:	00050000 	andeq	r0, r5, r0
    18cc:	0000540c 	andeq	r5, r0, ip, lsl #8
    18d0:	4e130005 	cdpmi	0, 1, cr0, cr3, cr5, {0}
    18d4:	00050000 	andeq	r0, r5, r0
    18d8:	00001299 	muleq	r0, r9, r2
    18dc:	3d970005 	ldccc	0, cr0, [r7, #20]
    18e0:	00050000 	andeq	r0, r5, r0
    18e4:	00000609 	andeq	r0, r0, r9, lsl #12
    18e8:	08110005 	ldmdaeq	r1, {r0, r2}
    18ec:	00050000 	andeq	r0, r5, r0
    18f0:	00005094 	muleq	r0, r4, r0
    18f4:	37cb0005 	strbcc	r0, [fp, r5]
    18f8:	00050000 	andeq	r0, r5, r0
    18fc:	00002459 	andeq	r2, r0, r9, asr r4
    1900:	2c560005 	mrrccs	0, 0, r0, r6, cr5
    1904:	00050000 	andeq	r0, r5, r0
    1908:	000062a7 	andeq	r6, r0, r7, lsr #5
    190c:	58180005 	ldmdapl	r8, {r0, r2}
    1910:	00050000 	andeq	r0, r5, r0
    1914:	0000117c 	andeq	r1, r0, ip, ror r1
    1918:	66860005 	strvs	r0, [r6], r5
    191c:	00050000 	andeq	r0, r5, r0
    1920:	00004b06 	andeq	r4, r0, r6, lsl #22
    1924:	6c8e0005 	stcvs	0, cr0, [lr], {5}
    1928:	00050000 	andeq	r0, r5, r0
    192c:	00004321 	andeq	r4, r0, r1, lsr #6
    1930:	4dc20005 	stclmi	0, cr0, [r2, #20]
    1934:	00050000 	andeq	r0, r5, r0
    1938:	0000549d 	muleq	r0, sp, r4
    193c:	2fd00005 	svccs	0x00d00005
    1940:	00050000 	andeq	r0, r5, r0
    1944:	000010d5 	ldrdeq	r1, [r0], -r5
    1948:	4d660005 	stclmi	0, cr0, [r6, #-20]!	; 0xffffffec
    194c:	00050000 	andeq	r0, r5, r0
    1950:	00003f4c 	andeq	r3, r0, ip, asr #30
    1954:	09a20005 	stmibeq	r2!, {r0, r2}
    1958:	00050000 	andeq	r0, r5, r0
    195c:	00002d7a 	andeq	r2, r0, sl, ror sp
    1960:	64c30005 	strbvs	r0, [r3], #5
    1964:	00050000 	andeq	r0, r5, r0
    1968:	00001820 	andeq	r1, r0, r0, lsr #16
    196c:	1d4a0005 	stclne	0, cr0, [sl, #-20]	; 0xffffffec
    1970:	00050000 	andeq	r0, r5, r0
    1974:	000056d0 	ldrdeq	r5, [r0], -r0
    1978:	56e40005 	strbtpl	r0, [r4], r5
    197c:	00050000 	andeq	r0, r5, r0
    1980:	00002197 	muleq	r0, r7, r1
    1984:	406a0005 	rsbmi	r0, sl, r5
    1988:	00050000 	andeq	r0, r5, r0
    198c:	00001ad5 	ldrdeq	r1, [r0], -r5
    1990:	6c770005 	ldclvs	0, cr0, [r7], #-20	; 0xffffffec
    1994:	00050000 	andeq	r0, r5, r0
    1998:	000058c3 	andeq	r5, r0, r3, asr #17
    199c:	47560005 	ldrbmi	r0, [r6, -r5]
    19a0:	00050000 	andeq	r0, r5, r0
    19a4:	0000040b 	andeq	r0, r0, fp, lsl #8
    19a8:	34600005 	strbtcc	r0, [r0], #-5
    19ac:	00050000 	andeq	r0, r5, r0
    19b0:	0000660a 	andeq	r6, r0, sl, lsl #12
    19b4:	023b0005 	eorseq	r0, fp, #5
    19b8:	00050000 	andeq	r0, r5, r0
    19bc:	000001f1 	strdeq	r0, [r0], -r1
    19c0:	684a0005 	stmdavs	sl, {r0, r2}^
    19c4:	00050000 	andeq	r0, r5, r0
    19c8:	00002d13 	andeq	r2, r0, r3, lsl sp
    19cc:	435e0005 	cmpmi	lr, #5
    19d0:	00050000 	andeq	r0, r5, r0
    19d4:	00004b79 	andeq	r4, r0, r9, ror fp
    19d8:	336c0005 	cmncc	ip, #5
    19dc:	00050000 	andeq	r0, r5, r0
    19e0:	000035d7 	ldrdeq	r3, [r0], -r7
    19e4:	69a80005 	stmibvs	r8!, {r0, r2}
    19e8:	00050000 	andeq	r0, r5, r0
    19ec:	00006342 	andeq	r6, r0, r2, asr #6
    19f0:	0cf00005 	ldcleq	0, cr0, [r0], #20
    19f4:	00050000 	andeq	r0, r5, r0
    19f8:	000010c3 	andeq	r1, r0, r3, asr #1
    19fc:	024b0005 	subeq	r0, fp, #5
    1a00:	00050000 	andeq	r0, r5, r0
    1a04:	00000225 	andeq	r0, r0, r5, lsr #4
    1a08:	6c160005 	ldcvs	0, cr0, [r6], {5}
    1a0c:	00050000 	andeq	r0, r5, r0
    1a10:	0000114f 	andeq	r1, r0, pc, asr #2
    1a14:	05460005 	strbeq	r0, [r6, #-5]
    1a18:	00050000 	andeq	r0, r5, r0
    1a1c:	00005b38 	andeq	r5, r0, r8, lsr fp
    1a20:	25d70005 	ldrbcs	r0, [r7, #5]
    1a24:	00050000 	andeq	r0, r5, r0
    1a28:	00005e4a 	andeq	r5, r0, sl, asr #28
    1a2c:	2ad20005 	bcs	ff481a48 <_estack+0xdf461a48>
    1a30:	00050000 	andeq	r0, r5, r0
    1a34:	00005cd9 	ldrdeq	r5, [r0], -r9
    1a38:	2dca0005 	stclcs	0, cr0, [sl, #20]
    1a3c:	00050000 	andeq	r0, r5, r0
    1a40:	00003253 	andeq	r3, r0, r3, asr r2
    1a44:	1f230005 	svcne	0x00230005
    1a48:	00050000 	andeq	r0, r5, r0
    1a4c:	00001a58 	andeq	r1, r0, r8, asr sl
    1a50:	28e20005 	stmiacs	r2!, {r0, r2}^
    1a54:	00050000 	andeq	r0, r5, r0
    1a58:	00002888 	andeq	r2, r0, r8, lsl #17
    1a5c:	29260005 	stmdbcs	r6!, {r0, r2}
    1a60:	00050000 	andeq	r0, r5, r0
    1a64:	00004865 	andeq	r4, r0, r5, ror #16
    1a68:	66230005 	strtvs	r0, [r3], -r5
    1a6c:	00050000 	andeq	r0, r5, r0
    1a70:	000021ae 	andeq	r2, r0, lr, lsr #3
    1a74:	69bb0005 	ldmibvs	fp!, {r0, r2}
    1a78:	00050000 	andeq	r0, r5, r0
    1a7c:	00002696 	muleq	r0, r6, r6
    1a80:	15100005 	ldrne	r0, [r0, #-5]
    1a84:	00050000 	andeq	r0, r5, r0
    1a88:	00000c21 	andeq	r0, r0, r1, lsr #24
    1a8c:	13c80005 	bicne	r0, r8, #5
    1a90:	00050000 	andeq	r0, r5, r0
    1a94:	00002e93 	muleq	r0, r3, lr
    1a98:	583f0005 	ldmdapl	pc!, {r0, r2}	; <UNPREDICTABLE>
    1a9c:	00050000 	andeq	r0, r5, r0
    1aa0:	00002a84 	andeq	r2, r0, r4, lsl #21
    1aa4:	0cad0005 	stceq	0, cr0, [sp], #20
    1aa8:	00050000 	andeq	r0, r5, r0
    1aac:	00000802 	andeq	r0, r0, r2, lsl #16
    1ab0:	09470005 	stmdbeq	r7, {r0, r2}^
    1ab4:	00050000 	andeq	r0, r5, r0
    1ab8:	00005977 	andeq	r5, r0, r7, ror r9
    1abc:	29f00005 	ldmibcs	r0!, {r0, r2}^
    1ac0:	00050000 	andeq	r0, r5, r0
    1ac4:	000022eb 	andeq	r2, r0, fp, ror #5
    1ac8:	4b240005 	blmi	901ae4 <_Min_Stack_Size+0x9016e4>
    1acc:	00050000 	andeq	r0, r5, r0
    1ad0:	00002fb9 			; <UNDEFINED> instruction: 0x00002fb9
    1ad4:	61410005 	cmpvs	r1, r5
    1ad8:	00050000 	andeq	r0, r5, r0
    1adc:	0000407d 	andeq	r4, r0, sp, ror r0
    1ae0:	4f0d0005 	svcmi	0x000d0005
    1ae4:	00050000 	andeq	r0, r5, r0
    1ae8:	00000da7 	andeq	r0, r0, r7, lsr #27
    1aec:	190b0005 	stmdbne	fp, {r0, r2}
    1af0:	00050000 	andeq	r0, r5, r0
    1af4:	00006208 	andeq	r6, r0, r8, lsl #4
    1af8:	0fee0005 	svceq	0x00ee0005
    1afc:	00050000 	andeq	r0, r5, r0
    1b00:	00000b93 	muleq	r0, r3, fp
    1b04:	0d480005 	stcleq	0, cr0, [r8, #-20]	; 0xffffffec
    1b08:	00050000 	andeq	r0, r5, r0
    1b0c:	00000e0e 	andeq	r0, r0, lr, lsl #28
    1b10:	131b0005 	tstne	fp, #5
    1b14:	00050000 	andeq	r0, r5, r0
    1b18:	000035ee 	andeq	r3, r0, lr, ror #11
    1b1c:	0ded0005 	stcleq	0, cr0, [sp, #20]!
    1b20:	00050000 	andeq	r0, r5, r0
    1b24:	0000362f 	andeq	r3, r0, pc, lsr #12
    1b28:	0a910005 	beq	fe441b44 <_estack+0xde421b44>
    1b2c:	00050000 	andeq	r0, r5, r0
    1b30:	00004197 	muleq	r0, r7, r1
    1b34:	2bea0005 	blcs	ffa81b50 <_estack+0xdfa61b50>
    1b38:	00050000 	andeq	r0, r5, r0
    1b3c:	00004054 	andeq	r4, r0, r4, asr r0
    1b40:	2cdc0005 	ldclcs	0, cr0, [ip], {5}
    1b44:	00050000 	andeq	r0, r5, r0
    1b48:	000026c3 	andeq	r2, r0, r3, asr #13
    1b4c:	35240005 	strcc	r0, [r4, #-5]!
    1b50:	00050000 	andeq	r0, r5, r0
    1b54:	000030d8 	ldrdeq	r3, [r0], -r8
    1b58:	40070005 	andmi	r0, r7, r5
    1b5c:	00050000 	andeq	r0, r5, r0
    1b60:	0000356d 	andeq	r3, r0, sp, ror #10
    1b64:	13730005 	cmnne	r3, #5
    1b68:	00050000 	andeq	r0, r5, r0
    1b6c:	0000133b 	andeq	r1, r0, fp, lsr r3
    1b70:	18ca0005 	stmiane	sl, {r0, r2}^
    1b74:	00050000 	andeq	r0, r5, r0
    1b78:	000014d1 	ldrdeq	r1, [r0], -r1	; <UNPREDICTABLE>
    1b7c:	09e80005 	stmibeq	r8!, {r0, r2}^
    1b80:	00050000 	andeq	r0, r5, r0
    1b84:	000055fe 	strdeq	r5, [r0], -lr
    1b88:	1dec0005 	stclne	0, cr0, [ip, #20]!
    1b8c:	00050000 	andeq	r0, r5, r0
    1b90:	000023ab 	andeq	r2, r0, fp, lsr #7
    1b94:	21c90005 	biccs	r0, r9, r5
    1b98:	00050000 	andeq	r0, r5, r0
    1b9c:	000005f4 	strdeq	r0, [r0], -r4
    1ba0:	2a9d0005 	bcs	fe741bbc <_estack+0xde721bbc>
    1ba4:	00050000 	andeq	r0, r5, r0
    1ba8:	0000446b 	andeq	r4, r0, fp, ror #8
    1bac:	26280005 	strtcs	r0, [r8], -r5
    1bb0:	00050000 	andeq	r0, r5, r0
    1bb4:	0000389d 	muleq	r0, sp, r8
    1bb8:	6c3c0005 	ldcvs	0, cr0, [ip], #-20	; 0xffffffec
    1bbc:	00050000 	andeq	r0, r5, r0
    1bc0:	0000573f 	andeq	r5, r0, pc, lsr r7
    1bc4:	48960005 	ldmmi	r6, {r0, r2}
    1bc8:	00050000 	andeq	r0, r5, r0
    1bcc:	00006b1f 	andeq	r6, r0, pc, lsl fp
    1bd0:	30980005 	addscc	r0, r8, r5
    1bd4:	00050000 	andeq	r0, r5, r0
    1bd8:	000004ae 	andeq	r0, r0, lr, lsr #9
    1bdc:	5c6a0005 	stclpl	0, cr0, [sl], #-20	; 0xffffffec
    1be0:	00050000 	andeq	r0, r5, r0
    1be4:	000066b3 			; <UNDEFINED> instruction: 0x000066b3
    1be8:	3e420005 	cdpcc	0, 4, cr0, cr2, cr5, {0}
    1bec:	00050000 	andeq	r0, r5, r0
    1bf0:	00001030 	andeq	r1, r0, r0, lsr r0
    1bf4:	2a120005 	bcs	481c10 <_Min_Stack_Size+0x481810>
    1bf8:	00050000 	andeq	r0, r5, r0
    1bfc:	00003ef8 	strdeq	r3, [r0], -r8
    1c00:	20b10005 	adcscs	r0, r1, r5
    1c04:	00050000 	andeq	r0, r5, r0
    1c08:	00005b21 	andeq	r5, r0, r1, lsr #22
    1c0c:	56450005 	strbpl	r0, [r5], -r5
    1c10:	00050000 	andeq	r0, r5, r0
    1c14:	00001d25 	andeq	r1, r0, r5, lsr #26
    1c18:	07ed0005 	strbeq	r0, [sp, r5]!
    1c1c:	00050000 	andeq	r0, r5, r0
    1c20:	0000653d 	andeq	r6, r0, sp, lsr r5
    1c24:	067a0005 	ldrbteq	r0, [sl], -r5
    1c28:	00050000 	andeq	r0, r5, r0
    1c2c:	00004432 	andeq	r4, r0, r2, lsr r4
    1c30:	1ae90005 	bne	ffa41c4c <_estack+0xdfa21c4c>
    1c34:	00050000 	andeq	r0, r5, r0
    1c38:	0000671b 	andeq	r6, r0, fp, lsl r7
    1c3c:	00200005 	eoreq	r0, r0, r5
    1c40:	00050000 	andeq	r0, r5, r0
    1c44:	00002ba5 	andeq	r2, r0, r5, lsr #23
    1c48:	34f10005 	ldrbtcc	r0, [r1], #5
    1c4c:	00050000 	andeq	r0, r5, r0
    1c50:	00004614 	andeq	r4, r0, r4, lsl r6
    1c54:	03410005 	movteq	r0, #4101	; 0x1005
    1c58:	00050000 	andeq	r0, r5, r0
    1c5c:	0000300f 	andeq	r3, r0, pc
    1c60:	32260005 	eorcc	r0, r6, #5
    1c64:	00050000 	andeq	r0, r5, r0
    1c68:	00004a35 	andeq	r4, r0, r5, lsr sl
    1c6c:	25480005 	strbcs	r0, [r8, #-5]
    1c70:	00050000 	andeq	r0, r5, r0
    1c74:	00003596 	muleq	r0, r6, r5
    1c78:	4cdb0005 	ldclmi	0, cr0, [fp], {5}
    1c7c:	00050000 	andeq	r0, r5, r0
    1c80:	00002f2e 	andeq	r2, r0, lr, lsr #30
    1c84:	49000005 	stmdbmi	r0, {r0, r2}
    1c88:	00050000 	andeq	r0, r5, r0
    1c8c:	00000abc 			; <UNDEFINED> instruction: 0x00000abc
    1c90:	45960005 	ldrmi	r0, [r6, #5]
    1c94:	00050000 	andeq	r0, r5, r0
    1c98:	000011c7 	andeq	r1, r0, r7, asr #3
    1c9c:	0d1a0005 	ldceq	0, cr0, [sl, #-20]	; 0xffffffec
    1ca0:	00050000 	andeq	r0, r5, r0
    1ca4:	00000662 	andeq	r0, r0, r2, ror #12
    1ca8:	57170005 	ldrpl	r0, [r7, -r5]
    1cac:	00050000 	andeq	r0, r5, r0
    1cb0:	00006bc2 	andeq	r6, r0, r2, asr #23
    1cb4:	06230005 	strteq	r0, [r3], -r5
    1cb8:	00050000 	andeq	r0, r5, r0
    1cbc:	00003d0d 	andeq	r3, r0, sp, lsl #26
    1cc0:	2f520005 	svccs	0x00520005
    1cc4:	00050000 	andeq	r0, r5, r0
    1cc8:	0000615e 	andeq	r6, r0, lr, asr r1
    1ccc:	66f60005 	ldrbtvs	r0, [r6], r5
    1cd0:	00050000 	andeq	r0, r5, r0
    1cd4:	000024fd 	strdeq	r2, [r0], -sp
    1cd8:	0a7e0005 	beq	1f81cf4 <_Min_Stack_Size+0x1f818f4>
    1cdc:	00050000 	andeq	r0, r5, r0
    1ce0:	00001e37 	andeq	r1, r0, r7, lsr lr
    1ce4:	5b560005 	blpl	1581d00 <_Min_Stack_Size+0x1581900>
    1ce8:	00050000 	andeq	r0, r5, r0
    1cec:	000065f9 	strdeq	r6, [r0], -r9
    1cf0:	0cd60005 	ldcleq	0, cr0, [r6], {5}
    1cf4:	00050000 	andeq	r0, r5, r0
    1cf8:	00000b62 	andeq	r0, r0, r2, ror #22
    1cfc:	36e00005 	strbtcc	r0, [r0], r5
    1d00:	00050000 	andeq	r0, r5, r0
    1d04:	0000179e 	muleq	r0, lr, r7
    1d08:	0bab0005 	bleq	feac1d24 <_estack+0xdeaa1d24>
    1d0c:	00050000 	andeq	r0, r5, r0
    1d10:	00000857 	andeq	r0, r0, r7, asr r8
    1d14:	319a0005 	orrscc	r0, sl, r5
    1d18:	00050000 	andeq	r0, r5, r0
    1d1c:	00003702 	andeq	r3, r0, r2, lsl #14
    1d20:	5e620005 	cdppl	0, 6, cr0, cr2, cr5, {0}
    1d24:	00050000 	andeq	r0, r5, r0
    1d28:	00000099 	muleq	r0, r9, r0
    1d2c:	3ff00005 	svccc	0x00f00005
    1d30:	00050000 	andeq	r0, r5, r0
    1d34:	00000116 	andeq	r0, r0, r6, lsl r1
    1d38:	3f840005 	svccc	0x00840005
    1d3c:	00050000 	andeq	r0, r5, r0
    1d40:	00004b60 	andeq	r4, r0, r0, ror #22
    1d44:	69910005 	ldmibvs	r1, {r0, r2}
    1d48:	00050000 	andeq	r0, r5, r0
    1d4c:	00004e43 	andeq	r4, r0, r3, asr #28
    1d50:	03260005 			; <UNDEFINED> instruction: 0x03260005
    1d54:	00050000 	andeq	r0, r5, r0
    1d58:	00005434 	andeq	r5, r0, r4, lsr r4
    1d5c:	29d80005 	ldmibcs	r8, {r0, r2}^
    1d60:	00050000 	andeq	r0, r5, r0
    1d64:	0000256f 	andeq	r2, r0, pc, ror #10
    1d68:	10160005 	andsne	r0, r6, r5
    1d6c:	00050000 	andeq	r0, r5, r0
    1d70:	000052fd 	strdeq	r5, [r0], -sp
    1d74:	45530005 	ldrbmi	r0, [r3, #-5]
    1d78:	00050000 	andeq	r0, r5, r0
    1d7c:	00003688 	andeq	r3, r0, r8, lsl #13
    1d80:	107a0005 	rsbsne	r0, sl, r5
    1d84:	00050000 	andeq	r0, r5, r0
    1d88:	00001878 	andeq	r1, r0, r8, ror r8
    1d8c:	30c00005 	sbccc	r0, r0, r5
    1d90:	00050000 	andeq	r0, r5, r0
    1d94:	00000edb 	ldrdeq	r0, [r0], -fp
    1d98:	105f0005 	subsne	r0, pc, r5
    1d9c:	00050000 	andeq	r0, r5, r0
    1da0:	00002639 	andeq	r2, r0, r9, lsr r6
    1da4:	05340005 	ldreq	r0, [r4, #-5]!
    1da8:	00050000 	andeq	r0, r5, r0
    1dac:	00003cae 	andeq	r3, r0, lr, lsr #25
    1db0:	2b780005 	blcs	1e01dcc <_Min_Stack_Size+0x1e019cc>
    1db4:	00050000 	andeq	r0, r5, r0
    1db8:	00006978 	andeq	r6, r0, r8, ror r9
    1dbc:	0bd60005 	bleq	ff581dd8 <_estack+0xdf561dd8>
    1dc0:	00050000 	andeq	r0, r5, r0
    1dc4:	00002808 	andeq	r2, r0, r8, lsl #16
    1dc8:	1e500005 	cdpne	0, 5, cr0, cr0, cr5, {0}
    1dcc:	00050000 	andeq	r0, r5, r0
    1dd0:	00001ea3 	andeq	r1, r0, r3, lsr #29
    1dd4:	0a470005 	beq	11c1df0 <_Min_Stack_Size+0x11c19f0>
    1dd8:	00050000 	andeq	r0, r5, r0
    1ddc:	0000273d 	andeq	r2, r0, sp, lsr r7
    1de0:	285f0005 	ldmdacs	pc, {r0, r2}^	; <UNPREDICTABLE>
    1de4:	00050000 	andeq	r0, r5, r0
    1de8:	00004b4f 	andeq	r4, r0, pc, asr #22
    1dec:	04e50005 	strbteq	r0, [r5], #5
    1df0:	00050000 	andeq	r0, r5, r0
    1df4:	000018f1 	strdeq	r1, [r0], -r1	; <UNPREDICTABLE>
    1df8:	2daf0005 	stccs	0, cr0, [pc, #20]!	; 1e14 <_Min_Stack_Size+0x1a14>
    1dfc:	00050000 	andeq	r0, r5, r0
    1e00:	00003e1f 	andeq	r3, r0, pc, lsl lr
    1e04:	483f0005 	ldmdami	pc!, {r0, r2}	; <UNPREDICTABLE>
    1e08:	00050000 	andeq	r0, r5, r0
    1e0c:	00000ec6 	andeq	r0, r0, r6, asr #29
    1e10:	38660005 	stmdacc	r6!, {r0, r2}^
    1e14:	00050000 	andeq	r0, r5, r0
    1e18:	00003443 	andeq	r3, r0, r3, asr #8
    1e1c:	37e80005 	strbcc	r0, [r8, r5]!
    1e20:	00050000 	andeq	r0, r5, r0
    1e24:	00004873 	andeq	r4, r0, r3, ror r8
    1e28:	11310005 	teqne	r1, r5
    1e2c:	00050000 	andeq	r0, r5, r0
    1e30:	00004224 	andeq	r4, r0, r4, lsr #4
    1e34:	44c20005 	strbmi	r0, [r2], #5
    1e38:	00050000 	andeq	r0, r5, r0
    1e3c:	000026af 	andeq	r2, r0, pc, lsr #13
    1e40:	6c500005 	mrrcvs	0, 0, r0, r0, cr5	; <UNPREDICTABLE>
    1e44:	00050000 	andeq	r0, r5, r0
    1e48:	00005051 	andeq	r5, r0, r1, asr r0
    1e4c:	4da00005 	stcmi	0, cr0, [r0, #20]!
    1e50:	00050000 	andeq	r0, r5, r0
    1e54:	0000574e 	andeq	r5, r0, lr, asr #14
    1e58:	66e20005 	strbtvs	r0, [r2], r5
    1e5c:	00050000 	andeq	r0, r5, r0
    1e60:	000063ae 	andeq	r6, r0, lr, lsr #7
    1e64:	0dcc0005 	stcleq	0, cr0, [ip, #20]
    1e68:	00050000 	andeq	r0, r5, r0
    1e6c:	0000568b 	andeq	r5, r0, fp, lsl #13
    1e70:	69590005 	ldmdbvs	r9, {r0, r2}^
    1e74:	00050000 	andeq	r0, r5, r0
    1e78:	00000975 	andeq	r0, r0, r5, ror r9
    1e7c:	32e50005 	rsccc	r0, r5, #5
    1e80:	00050000 	andeq	r0, r5, r0
    1e84:	00006354 	andeq	r6, r0, r4, asr r3
    1e88:	11f80005 	mvnsne	r0, r5
    1e8c:	00050000 	andeq	r0, r5, r0
    1e90:	00005f84 	andeq	r5, r0, r4, lsl #31
    1e94:	4a6b0005 	bmi	1ac1eb0 <_Min_Stack_Size+0x1ac1ab0>
    1e98:	00050000 	andeq	r0, r5, r0
    1e9c:	00004d38 	andeq	r4, r0, r8, lsr sp
    1ea0:	4d7e0005 	ldclmi	0, cr0, [lr, #-20]!	; 0xffffffec
    1ea4:	00050000 	andeq	r0, r5, r0
    1ea8:	000056b5 			; <UNDEFINED> instruction: 0x000056b5
    1eac:	64350005 	ldrtvs	r0, [r5], #-5
    1eb0:	00050000 	andeq	r0, r5, r0
    1eb4:	000024a3 	andeq	r2, r0, r3, lsr #9
    1eb8:	3fca0005 	svccc	0x00ca0005
    1ebc:	00050000 	andeq	r0, r5, r0
    1ec0:	0000064b 	andeq	r0, r0, fp, asr #12
    1ec4:	05170005 	ldreq	r0, [r7, #-5]
    1ec8:	00050000 	andeq	r0, r5, r0
    1ecc:	00005627 	andeq	r5, r0, r7, lsr #12
    1ed0:	0f680005 	svceq	0x00680005
    1ed4:	00050000 	andeq	r0, r5, r0
    1ed8:	000058ee 	andeq	r5, r0, lr, ror #17
    1edc:	4ab10005 	bmi	fec41ef8 <_estack+0xdec21ef8>
    1ee0:	00050000 	andeq	r0, r5, r0
    1ee4:	00002ab4 			; <UNDEFINED> instruction: 0x00002ab4
    1ee8:	65030005 	strvs	r0, [r3, #-5]
    1eec:	00050000 	andeq	r0, r5, r0
    1ef0:	0000339b 	muleq	r0, fp, r3
    1ef4:	0fad0005 	svceq	0x00ad0005
    1ef8:	00050000 	andeq	r0, r5, r0
    1efc:	00002604 	andeq	r2, r0, r4, lsl #12
    1f00:	31610005 	cmncc	r1, r5
    1f04:	00050000 	andeq	r0, r5, r0
    1f08:	00004015 	andeq	r4, r0, r5, lsl r0
    1f0c:	16f90005 	ldrbtne	r0, [r9], r5
    1f10:	00050000 	andeq	r0, r5, r0
    1f14:	00000d85 	andeq	r0, r0, r5, lsl #27
    1f18:	611d0005 	tstvs	sp, r5
    1f1c:	00050000 	andeq	r0, r5, r0
    1f20:	00004deb 	andeq	r4, r0, fp, ror #27
    1f24:	01d40005 	bicseq	r0, r4, r5
    1f28:	00050000 	andeq	r0, r5, r0
    1f2c:	000003f7 	strdeq	r0, [r0], -r7
    1f30:	4cc70005 	stclmi	0, cr0, [r7], {5}
    1f34:	00050000 	andeq	r0, r5, r0
    1f38:	000034b4 			; <UNDEFINED> instruction: 0x000034b4
    1f3c:	4faa0005 	svcmi	0x00aa0005
    1f40:	00050000 	andeq	r0, r5, r0
    1f44:	0000651e 	andeq	r6, r0, lr, lsl r5
    1f48:	53f80005 	mvnspl	r0, #5
    1f4c:	00050000 	andeq	r0, r5, r0
    1f50:	00002d9b 	muleq	r0, fp, sp
    1f54:	01930005 	orrseq	r0, r3, r5
    1f58:	00050000 	andeq	r0, r5, r0
    1f5c:	0000281b 	andeq	r2, r0, fp, lsl r8
    1f60:	15f50005 	ldrbne	r0, [r5, #5]!
    1f64:	00050000 	andeq	r0, r5, r0
    1f68:	00006871 	andeq	r6, r0, r1, ror r8
    1f6c:	5ef80005 	cdppl	0, 15, cr0, cr8, cr5, {0}
    1f70:	00050000 	andeq	r0, r5, r0
    1f74:	000061e0 	andeq	r6, r0, r0, ror #3
    1f78:	3f9e0005 	svccc	0x009e0005
    1f7c:	00050000 	andeq	r0, r5, r0
    1f80:	00002227 	andeq	r2, r0, r7, lsr #4
    1f84:	66a50005 	strtvs	r0, [r5], r5
    1f88:	00050000 	andeq	r0, r5, r0
    1f8c:	00005385 	andeq	r5, r0, r5, lsl #7
    1f90:	680a0005 	stmdavs	sl, {r0, r2}
    1f94:	00050000 	andeq	r0, r5, r0
    1f98:	00006aec 	andeq	r6, r0, ip, ror #21
    1f9c:	0c5f0005 	mrrceq	0, 0, r0, pc, cr5	; <UNPREDICTABLE>
    1fa0:	00050000 	andeq	r0, r5, r0
    1fa4:	000005b1 			; <UNDEFINED> instruction: 0x000005b1
    1fa8:	4d190005 	ldcmi	0, cr0, [r9, #-20]	; 0xffffffec
    1fac:	00050000 	andeq	r0, r5, r0
    1fb0:	00005068 	andeq	r5, r0, r8, rrx
    1fb4:	1ac50005 	bne	ff141fd0 <_estack+0xdf121fd0>
    1fb8:	00050000 	andeq	r0, r5, r0
    1fbc:	0000030d 	andeq	r0, r0, sp, lsl #6
    1fc0:	41530005 	cmpmi	r3, r5
    1fc4:	00050000 	andeq	r0, r5, r0
    1fc8:	00003471 	andeq	r3, r0, r1, ror r4
    1fcc:	0cc60005 	stcleq	0, cr0, [r6], {5}
    1fd0:	00050000 	andeq	r0, r5, r0
    1fd4:	00004d57 	andeq	r4, r0, r7, asr sp
    1fd8:	0c350005 	ldceq	0, cr0, [r5], #-20	; 0xffffffec
    1fdc:	00050000 	andeq	r0, r5, r0
    1fe0:	000047bb 			; <UNDEFINED> instruction: 0x000047bb
    1fe4:	3e320005 	cdpcc	0, 3, cr0, cr2, cr5, {0}
    1fe8:	00050000 	andeq	r0, r5, r0
    1fec:	00003104 	andeq	r3, r0, r4, lsl #2
    1ff0:	4e650005 	cdpmi	0, 6, cr0, cr5, cr5, {0}
    1ff4:	00050000 	andeq	r0, r5, r0
    1ff8:	000052ce 	andeq	r5, r0, lr, asr #5
    1ffc:	1e1f0005 	cdpne	0, 1, cr0, cr15, cr5, {0}
    2000:	00050000 	andeq	r0, r5, r0
    2004:	00003621 	andeq	r3, r0, r1, lsr #12
    2008:	52dd0005 	sbcspl	r0, sp, #5
    200c:	00050000 	andeq	r0, r5, r0
    2010:	00002b96 	muleq	r0, r6, fp
    2014:	21640005 	cmncs	r4, r5
    2018:	00050000 	andeq	r0, r5, r0
    201c:	000069ca 	andeq	r6, r0, sl, asr #19
    2020:	25600005 	strbcs	r0, [r0, #-5]!
    2024:	00050000 	andeq	r0, r5, r0
    2028:	000046a0 	andeq	r4, r0, r0, lsr #13
    202c:	00790005 	rsbseq	r0, r9, r5
    2030:	00050000 	andeq	r0, r5, r0
    2034:	000064e5 	andeq	r6, r0, r5, ror #9
    2038:	43a20005 			; <UNDEFINED> instruction: 0x43a20005
    203c:	00050000 	andeq	r0, r5, r0
    2040:	00001ca8 	andeq	r1, r0, r8, lsr #25
    2044:	11150005 	tstne	r5, r5
    2048:	00050000 	andeq	r0, r5, r0
    204c:	000059ee 	andeq	r5, r0, lr, ror #19
    2050:	14880005 	strne	r0, [r8], #5
    2054:	00050000 	andeq	r0, r5, r0
    2058:	00005ee8 	andeq	r5, r0, r8, ror #29
    205c:	57020005 	strpl	r0, [r2, -r5]
    2060:	00050000 	andeq	r0, r5, r0
    2064:	00002871 	andeq	r2, r0, r1, ror r8
    2068:	15a00005 	strne	r0, [r0, #5]!
    206c:	00050000 	andeq	r0, r5, r0
    2070:	00005a5d 	andeq	r5, r0, sp, asr sl
    2074:	00ea0005 	rsceq	r0, sl, r5
    2078:	00050000 	andeq	r0, r5, r0
    207c:	000008de 	ldrdeq	r0, [r0], -lr
    2080:	1ccd0005 	stclne	0, cr0, [sp], {5}
    2084:	00050000 	andeq	r0, r5, r0
    2088:	00004a7d 	andeq	r4, r0, sp, ror sl
    208c:	119c0005 	orrsne	r0, ip, r5
    2090:	00050000 	andeq	r0, r5, r0
    2094:	00005d00 	andeq	r5, r0, r0, lsl #26
    2098:	305b0005 	subscc	r0, fp, r5
    209c:	00050000 	andeq	r0, r5, r0
    20a0:	0000162a 	andeq	r1, r0, sl, lsr #12
    20a4:	00c90005 	sbceq	r0, r9, r5
    20a8:	00050000 	andeq	r0, r5, r0
    20ac:	00002476 	andeq	r2, r0, r6, ror r4
    20b0:	55180005 	ldrpl	r0, [r8, #-5]
    20b4:	00050000 	andeq	r0, r5, r0
    20b8:	00003496 	muleq	r0, r6, r4
    20bc:	36430005 	strbcc	r0, [r3], -r5
    20c0:	00050000 	andeq	r0, r5, r0
    20c4:	000024b6 			; <UNDEFINED> instruction: 0x000024b6
    20c8:	01ba0005 			; <UNDEFINED> instruction: 0x01ba0005
    20cc:	00050000 	andeq	r0, r5, r0
    20d0:	0000636d 	andeq	r6, r0, sp, ror #6
    20d4:	293e0005 	ldmdbcs	lr!, {r0, r2}
    20d8:	00050000 	andeq	r0, r5, r0
    20dc:	00004a4b 	andeq	r4, r0, fp, asr #20
    20e0:	2b480005 	blcs	12020fc <_Min_Stack_Size+0x1201cfc>
    20e4:	00050000 	andeq	r0, r5, r0
    20e8:	00001c44 	andeq	r1, r0, r4, asr #24
    20ec:	380a0005 	stmdacc	sl, {r0, r2}
    20f0:	00050000 	andeq	r0, r5, r0
    20f4:	00006078 	andeq	r6, r0, r8, ror r0
    20f8:	42440005 	submi	r0, r4, #5
    20fc:	00050000 	andeq	r0, r5, r0
    2100:	00005371 	andeq	r5, r0, r1, ror r3
    2104:	295f0005 	ldmdbcs	pc, {r0, r2}^	; <UNPREDICTABLE>
    2108:	00050000 	andeq	r0, r5, r0
    210c:	00003276 	andeq	r3, r0, r6, ror r2
    2110:	4af10006 	bmi	ffc42130 <_estack+0xdfc22130>
    2114:	00060000 	andeq	r0, r6, r0
    2118:	00002ffd 	strdeq	r2, [r0], -sp
    211c:	6a3c0006 	bvs	f0213c <_Min_Stack_Size+0xf01d3c>
    2120:	00050000 	andeq	r0, r5, r0
    2124:	0000608c 	andeq	r6, r0, ip, lsl #1
    2128:	47220006 	strmi	r0, [r2, -r6]!
    212c:	00060000 	andeq	r0, r6, r0
    2130:	00005f0d 	andeq	r5, r0, sp, lsl #30
    2134:	62c90006 	sbcvs	r0, r9, #6
    2138:	00060000 	andeq	r0, r6, r0
    213c:	0000299b 	muleq	r0, fp, r9
    2140:	48510005 	ldmdami	r1, {r0, r2}^
    2144:	00060000 	andeq	r0, r6, r0
    2148:	000038d1 	ldrdeq	r3, [r0], -r1
    214c:	0e600006 	cdpeq	0, 6, cr0, cr0, cr6, {0}
    2150:	00060000 	andeq	r0, r6, r0
    2154:	00000597 	muleq	r0, r7, r5
    2158:	57860006 	strpl	r0, [r6, r6]
    215c:	00060000 	andeq	r0, r6, r0
    2160:	00002c02 	andeq	r2, r0, r2, lsl #24
    2164:	355a0006 	ldrbcc	r0, [sl, #-6]
    2168:	00060000 	andeq	r0, r6, r0
    216c:	000040be 	strheq	r4, [r0], -lr
    2170:	68f00005 	ldmvs	r0!, {r0, r2}^
    2174:	00050000 	andeq	r0, r5, r0
    2178:	00002974 	andeq	r2, r0, r4, ror r9
    217c:	54c50006 	strbpl	r0, [r5], #6
    2180:	00050000 	andeq	r0, r5, r0
    2184:	00005d84 	andeq	r5, r0, r4, lsl #27
    2188:	45250005 	strmi	r0, [r5, #-5]!
    218c:	00050000 	andeq	r0, r5, r0
    2190:	000029c1 	andeq	r2, r0, r1, asr #19
    2194:	37b80006 	ldrcc	r0, [r8, r6]!
    2198:	00050000 	andeq	r0, r5, r0
    219c:	000016e3 	andeq	r1, r0, r3, ror #13
    21a0:	45830005 	strmi	r0, [r3, #5]
    21a4:	00060000 	andeq	r0, r6, r0
    21a8:	00006886 	andeq	r6, r0, r6, lsl #17
    21ac:	35170005 	ldrcc	r0, [r7, #-5]
    21b0:	00050000 	andeq	r0, r5, r0
    21b4:	00003ea5 	andeq	r3, r0, r5, lsr #29
    21b8:	64510005 	ldrbvs	r0, [r1], #-5
    21bc:	00050000 	andeq	r0, r5, r0
    21c0:	0000670f 	andeq	r6, r0, pc, lsl #14
    21c4:	1b7b0005 	blne	1ec21e0 <_Min_Stack_Size+0x1ec1de0>
    21c8:	00050000 	andeq	r0, r5, r0
    21cc:	00005363 	andeq	r5, r0, r3, ror #6
    21d0:	23ff0006 	mvnscs	r0, #6
    21d4:	00050000 	andeq	r0, r5, r0
    21d8:	00004736 	andeq	r4, r0, r6, lsr r7
    21dc:	67330005 	ldrvs	r0, [r3, -r5]!
    21e0:	00050000 	andeq	r0, r5, r0
    21e4:	00000dbf 			; <UNDEFINED> instruction: 0x00000dbf
    21e8:	36180006 	ldrcc	r0, [r8], -r6
    21ec:	00050000 	andeq	r0, r5, r0
    21f0:	000064a8 	andeq	r6, r0, r8, lsr #9
    21f4:	2c3f0006 	ldccs	0, cr0, [pc], #-24	; 21e4 <_Min_Stack_Size+0x1de4>
    21f8:	00060000 	andeq	r0, r6, r0
    21fc:	000045dc 	ldrdeq	r4, [r0], -ip
    2200:	41870006 	orrmi	r0, r7, r6
    2204:	00060000 	andeq	r0, r6, r0
    2208:	000055d9 	ldrdeq	r5, [r0], -r9
    220c:	12bb0006 	adcsne	r0, fp, #6
    2210:	00060000 	andeq	r0, r6, r0
    2214:	000026d9 	ldrdeq	r2, [r0], -r9
    2218:	157d0005 	ldrbne	r0, [sp, #-5]!
    221c:	00060000 	andeq	r0, r6, r0
    2220:	000011ba 			; <UNDEFINED> instruction: 0x000011ba
    2224:	1f180006 	svcne	0x00180006
    2228:	00060000 	andeq	r0, r6, r0
    222c:	00003d38 	andeq	r3, r0, r8, lsr sp
    2230:	11e20005 	mvnne	r0, r5
    2234:	00050000 	andeq	r0, r5, r0
    2238:	00003fdd 	ldrdeq	r3, [r0], -sp
    223c:	630d0005 	movwvs	r0, #53253	; 0xd005
    2240:	00050000 	andeq	r0, r5, r0
    2244:	00005333 	andeq	r5, r0, r3, lsr r3
    2248:	1e2d0006 	cdpne	0, 2, cr0, cr13, cr6, {0}
    224c:	00050000 	andeq	r0, r5, r0
    2250:	00002599 	muleq	r0, r9, r5
    2254:	428a0005 	addmi	r0, sl, #5
    2258:	00050000 	andeq	r0, r5, r0
    225c:	0000628a 	andeq	r6, r0, sl, lsl #5
    2260:	5af20006 	bpl	ffc82280 <_estack+0xdfc62280>
    2264:	00050000 	andeq	r0, r5, r0
    2268:	000009c4 	andeq	r0, r0, r4, asr #19
    226c:	58dc0006 	ldmpl	ip, {r1, r2}^
    2270:	00060000 	andeq	r0, r6, r0
    2274:	00006cb1 			; <UNDEFINED> instruction: 0x00006cb1
    2278:	243f0006 	ldrtcs	r0, [pc], #-6	; 2280 <_Min_Stack_Size+0x1e80>
    227c:	00060000 	andeq	r0, r6, r0
    2280:	0000673f 	andeq	r6, r0, pc, lsr r7
    2284:	2eea0006 	cdpcs	0, 14, cr0, cr10, cr6, {0}
    2288:	00060000 	andeq	r0, r6, r0
    228c:	00005076 	andeq	r5, r0, r6, ror r0
    2290:	2e090005 	cdpcs	0, 0, cr0, cr9, cr5, {0}
    2294:	00050000 	andeq	r0, r5, r0
    2298:	00005359 	andeq	r5, r0, r9, asr r3
    229c:	5c450005 	mcrrpl	0, 0, r0, r5, cr5
    22a0:	00050000 	andeq	r0, r5, r0
    22a4:	00000f13 	andeq	r0, r0, r3, lsl pc
    22a8:	46af0005 	strtmi	r0, [pc], r5
    22ac:	00050000 	andeq	r0, r5, r0
    22b0:	00002131 	andeq	r2, r0, r1, lsr r1
    22b4:	41620005 	cmnmi	r2, r5
    22b8:	00050000 	andeq	r0, r5, r0
    22bc:	00002d25 	andeq	r2, r0, r5, lsr #26
    22c0:	05081803 	streq	r1, [r8, #-2051]	; 0xfffff7fd
    22c4:	00986502 	addseq	r6, r8, r2, lsl #10
    22c8:	0b080300 	bleq	202ed0 <_Min_Stack_Size+0x202ad0>
    22cc:	3d800805 	stccc	8, cr0, [r0, #20]
    22d0:	0a030000 	beq	c22d8 <_Min_Stack_Size+0xc1ed8>
    22d4:	9807050c 	stmdals	r7, {r2, r3, r8, sl}
    22d8:	0300000d 	movweq	r0, #13
    22dc:	ea070d0a 	b	1c570c <_Min_Stack_Size+0x1c530c>
    22e0:	0400000b 	streq	r0, [r0], #-11
    22e4:	000c0c07 	andeq	r0, ip, r7, lsl #24
    22e8:	0b030400 	bleq	c32f0 <_Min_Stack_Size+0xc2ef0>
    22ec:	ee02050e 	cfsh32	mvfx0, mvfx2, #14
    22f0:	0300005c 	movweq	r0, #92	; 0x5c
    22f4:	67070f04 	strvs	r0, [r7, -r4, lsl #30]
    22f8:	0400000c 	streq	r0, [r0], #-12
    22fc:	07100503 	ldreq	r0, [r0, -r3, lsl #10]
    2300:	00000c91 	muleq	r0, r1, ip
    2304:	0d250704 	stceq	7, cr0, [r5, #-16]!
    2308:	07040000 	streq	r0, [r4, -r0]
    230c:	00000d68 	andeq	r0, r0, r8, ror #26
    2310:	11090304 	tstne	r9, r4, lsl #6
    2314:	8d080805 	stchi	8, cr0, [r8, #-20]	; 0xffffffec
    2318:	0a030000 	beq	c2320 <_Min_Stack_Size+0xc1f20>
    231c:	0b03040b 	bleq	c3350 <_Min_Stack_Size+0xc2f50>
    2320:	202b0512 	eorcs	r0, fp, r2, lsl r5
    2324:	03000062 	movweq	r0, #98	; 0x62
    2328:	b207022d 	andlt	r0, r7, #-805306366	; 0xd0000002
    232c:	0400000d 	streq	r0, [r0], #-13
    2330:	07132f03 	ldreq	r2, [r3, -r3, lsl #30]
    2334:	00002537 	andeq	r2, r0, r7, lsr r5
    2338:	0ea70704 	cdpeq	7, 10, cr0, cr7, cr4, {0}
    233c:	03040000 	movweq	r0, #16384	; 0x4000
    2340:	0b05140c 	bleq	147378 <_Min_Stack_Size+0x146f78>
    2344:	00004045 	andeq	r4, r0, r5, asr #32
    2348:	04130e03 	ldreq	r0, [r3], #-3587	; 0xfffff1fd
    234c:	07031003 	streq	r1, [r3, -r3]
    2350:	00001339 	andeq	r1, r0, r9, lsr r3
    2354:	07131803 	ldreq	r1, [r3, -r3, lsl #16]
    2358:	0000134f 	andeq	r1, r0, pc, asr #6
    235c:	151b0304 	ldrne	r0, [fp, #-772]	; 0xfffffcfc
    2360:	43c60605 	bicmi	r0, r6, #5242880	; 0x500000
    2364:	07040000 	streq	r0, [r4, -r0]
    2368:	00001399 	muleq	r0, r9, r3
    236c:	13cd0704 	bicne	r0, sp, #4, 14	; 0x100000
    2370:	23030000 	movwcs	r0, #12288	; 0x3000
    2374:	13dd0716 	bicsne	r0, sp, #5767168	; 0x580000
    2378:	07040000 	streq	r0, [r4, -r0]
    237c:	00001435 	andeq	r1, r0, r5, lsr r4
    2380:	1703ce03 	strne	ip, [r3, -r3, lsl #28]
    2384:	0014c307 	andseq	ip, r4, r7, lsl #6
    2388:	df070400 	svcle	0x00070400
    238c:	04000014 	streq	r0, [r0], #-20	; 0xffffffec
    2390:	0026c707 	eoreq	ip, r6, r7, lsl #14
    2394:	13100300 	tstne	r0, #0, 6
    2398:	0026d707 	eoreq	sp, r6, r7, lsl #14
    239c:	13030400 	movwne	r0, #13312	; 0x3400
    23a0:	27130718 			; <UNDEFINED> instruction: 0x27130718
    23a4:	07040000 	streq	r0, [r4, -r0]
    23a8:	00002723 	andeq	r2, r0, r3, lsr #14
    23ac:	07071c03 	streq	r1, [r7, -r3, lsl #24]
    23b0:	00002733 	andeq	r2, r0, r3, lsr r7
    23b4:	07042e03 	streq	r2, [r4, -r3, lsl #28]
    23b8:	00002743 	andeq	r2, r0, r3, asr #14
    23bc:	19310304 	ldmdbne	r1!, {r2, r8, r9}
    23c0:	90670205 	rsbls	r0, r7, r5, lsl #4
    23c4:	06030000 	streq	r0, [r3], -r0
    23c8:	27ad071a 			; <UNDEFINED> instruction: 0x27ad071a
    23cc:	07040000 	streq	r0, [r4, -r0]
    23d0:	000027c9 	andeq	r2, r0, r9, asr #15
    23d4:	1b320304 	blne	c82fec <_Min_Stack_Size+0xc82bec>
    23d8:	86eb0205 	strbthi	r0, [fp], r5, lsl #4
    23dc:	0e030000 	cdpeq	0, 0, cr0, cr3, cr0, {0}
    23e0:	2b27051c 	blcs	9c3858 <_Min_Stack_Size+0x9c3458>
    23e4:	04000090 	streq	r0, [r0], #-144	; 0xffffff70
    23e8:	07050f03 	streq	r0, [r5, -r3, lsl #30]
    23ec:	0000281b 	andeq	r2, r0, fp, lsl r8
    23f0:	1d100304 	ldcne	3, cr0, [r0, #-16]
    23f4:	88932305 	ldmhi	r3, {r0, r2, r8, r9, sp}
    23f8:	26030000 	strcs	r0, [r3], -r0
    23fc:	58250506 	stmdapl	r5!, {r1, r2, r8, sl}
    2400:	04000075 	streq	r0, [r0], #-117	; 0xffffff8b
    2404:	00283d07 	eoreq	r3, r8, r7, lsl #26
    2408:	4d070400 	cfstrsmi	mvf0, [r7, #-0]
    240c:	04000028 	streq	r0, [r0], #-40	; 0xffffffd8
    2410:	00289f07 	eoreq	r9, r8, r7, lsl #30
    2414:	01dd0300 	bicseq	r0, sp, r0, lsl #6
    2418:	3c13051e 	cfldr32cc	mvfx0, [r3], {30}
    241c:	03000090 	movweq	r0, #144	; 0x90
    2420:	6e071f17 	mcrvs	15, 0, r1, cr7, cr7, {0}
    2424:	04000029 	streq	r0, [r0], #-41	; 0xffffffd7
    2428:	00298a07 	eoreq	r8, r9, r7, lsl #20
    242c:	de030400 	cfcpysle	mvf0, mvf3
    2430:	06042001 	streq	r2, [r4], -r1
    2434:	966501e2 	strbtls	r0, [r5], -r2, ror #3
    2438:	03040000 	movweq	r0, #16384	; 0x4000
    243c:	04052120 	streq	r2, [r5], #-288	; 0xfffffee0
    2440:	000074d3 	ldrdeq	r7, [r0], -r3
    2444:	29c70704 	stmibcs	r7, {r2, r8, r9, sl}^
    2448:	07040000 	streq	r0, [r4, -r0]
    244c:	000029fc 	strdeq	r2, [r0], -ip
    2450:	22190304 	andscs	r0, r9, #4, 6	; 0x10000000
    2454:	92ca0805 	sbcls	r0, sl, #327680	; 0x50000
    2458:	0a030000 	beq	c2460 <_Min_Stack_Size+0xc2060>
    245c:	2807040f 	stmdacs	r7, {r0, r1, r2, r3, sl}
    2460:	0300002b 	movweq	r0, #43	; 0x2b
    2464:	d7071310 	smladle	r7, r0, r3, r1
    2468:	04000026 	streq	r0, [r0], #-38	; 0xffffffda
    246c:	05231403 	streq	r1, [r3, #-1027]!	; 0xfffffbfd
    2470:	0079fd02 	rsbseq	pc, r9, r2, lsl #26
    2474:	16030400 	strne	r0, [r3], -r0, lsl #8
    2478:	2b3e0724 	blcs	f84110 <_Min_Stack_Size+0xf83d10>
    247c:	07040000 	streq	r0, [r4, -r0]
    2480:	00002b54 	andeq	r2, r0, r4, asr fp
    2484:	251a0304 	ldrcs	r0, [sl, #-772]	; 0xfffffcfc
    2488:	002b7d07 	eoreq	r7, fp, r7, lsl #26
    248c:	0a090300 	beq	243094 <_Min_Stack_Size+0x242c94>
    2490:	002b8d07 	eoreq	r8, fp, r7, lsl #26
    2494:	03040400 	movweq	r0, #17408	; 0x4400
    2498:	cf07261b 	svcgt	0x0007261b
    249c:	0300002d 	movweq	r0, #45	; 0x2d
    24a0:	d7071324 	strle	r1, [r7, -r4, lsr #6]
    24a4:	04000026 	streq	r0, [r0], #-38	; 0xffffffda
    24a8:	0a0c2705 	beq	30c0c4 <_Min_Stack_Size+0x30bcc4>
    24ac:	28030000 	stmdacs	r3, {}	; <UNPREDICTABLE>
    24b0:	13290727 			; <UNDEFINED> instruction: 0x13290727
    24b4:	07040000 	streq	r0, [r4, -r0]
    24b8:	00002deb 	andeq	r2, r0, fp, ror #27
    24bc:	07285503 	streq	r5, [r8, -r3, lsl #10]!
    24c0:	0000167a 	andeq	r1, r0, sl, ror r6
    24c4:	16900704 	ldrne	r0, [r0], r4, lsl #14
    24c8:	03040000 	movweq	r0, #16384	; 0x4000
    24cc:	0205291c 	andeq	r2, r5, #28, 18	; 0x70000
    24d0:	00009696 	muleq	r0, r6, r6
    24d4:	052a0603 	streq	r0, [sl, #-1539]!	; 0xfffff9fd
    24d8:	0079ee04 	rsbseq	lr, r9, r4, lsl #28
    24dc:	2b0f0300 	blcs	3c30e4 <_Min_Stack_Size+0x3c2ce4>
    24e0:	052c0903 	streq	r0, [ip, #-2307]!	; 0xfffff6fd
    24e4:	00905c0a 	addseq	r5, r0, sl, lsl #24
    24e8:	2d0d0300 	stccs	3, cr0, [sp, #-0]
    24ec:	002dfb07 	eoreq	pc, sp, r7, lsl #22
    24f0:	fe070400 	cdp2	4, 0, cr0, cr7, cr0, {0}
    24f4:	0400002e 	streq	r0, [r0], #-46	; 0xffffffd2
    24f8:	90530d05 	subsls	r0, r3, r5, lsl #26
    24fc:	07040000 	streq	r0, [r4, -r0]
    2500:	000030dd 	ldrdeq	r3, [r0], -sp
    2504:	32670704 	rsbcc	r0, r7, #4, 14	; 0x100000
    2508:	03040000 	movweq	r0, #16384	; 0x4000
    250c:	7d072e1e 	stcvc	14, cr2, [r7, #-120]	; 0xffffff88
    2510:	03000032 	movweq	r0, #50	; 0x32
    2514:	042f03be 	strteq	r0, [pc], #-958	; 251c <_Min_Stack_Size+0x211c>
    2518:	091f0304 	ldmdbeq	pc, {r2, r8, r9}	; <UNPREDICTABLE>
    251c:	95820505 	strls	r0, [r2, #1285]	; 0x505
    2520:	05040000 	streq	r0, [r4, #-0]
    2524:	0073e02a 	rsbseq	lr, r3, sl, lsr #32
    2528:	0d2d0500 	cfstr32eq	mvfx0, [sp, #-0]
    252c:	05000092 	streq	r0, [r0, #-146]	; 0xffffff6e
    2530:	0071502e 	rsbseq	r5, r1, lr, lsr #32
    2534:	05000400 	streq	r0, [r0, #-1024]	; 0xfffffc00
    2538:	27050000 	strcs	r0, [r5, -r0]
    253c:	000032fe 	strdeq	r3, [r0], -lr
    2540:	694d2805 	stmdbvs	sp, {r0, r2, fp, sp}^
    2544:	2a050000 	bcs	14254c <_Min_Stack_Size+0x14214c>
    2548:	000032f9 	strdeq	r3, [r0], -r9
    254c:	76018405 	strvc	r8, [r1], -r5, lsl #8
    2550:	05000046 	streq	r0, [r0, #-70]	; 0xffffffba
    2554:	32190185 	andscc	r0, r9, #1073741857	; 0x40000021
    2558:	86050000 	strhi	r0, [r5], -r0
    255c:	00414701 	subeq	r4, r1, r1, lsl #14
    2560:	01870500 	orreq	r0, r7, r0, lsl #10
    2564:	00004d4a 	andeq	r4, r0, sl, asr #26
    2568:	41018805 	tstmi	r1, r5, lsl #16
    256c:	0500000b 	streq	r0, [r0, #-11]
    2570:	0b3d0189 	bleq	f42b9c <_Min_Stack_Size+0xf4279c>
    2574:	8a050000 	bhi	14257c <_Min_Stack_Size+0x14217c>
    2578:	00312401 	eorseq	r2, r1, r1, lsl #8
    257c:	018b0500 	orreq	r0, fp, r0, lsl #10
    2580:	00004672 	andeq	r4, r0, r2, ror r6
    2584:	5b018c05 	blpl	655a0 <_Min_Stack_Size+0x651a0>
    2588:	05000042 	streq	r0, [r0, #-66]	; 0xffffffbe
    258c:	6891018d 	ldmvs	r1, {r0, r2, r3, r7, r8}
    2590:	9e060000 	cdpls	0, 0, cr0, cr6, cr0, {0}
    2594:	005c5901 	subseq	r5, ip, r1, lsl #18
    2598:	01b90500 			; <UNDEFINED> instruction: 0x01b90500
    259c:	00001125 	andeq	r1, r0, r5, lsr #2
    25a0:	dc01ba05 			; <UNDEFINED> instruction: 0xdc01ba05
    25a4:	05000009 	streq	r0, [r0, #-9]
    25a8:	632101bb 			; <UNDEFINED> instruction: 0x632101bb
    25ac:	bc050000 	stclt	0, cr0, [r5], {-0}
    25b0:	000ef501 	andeq	pc, lr, r1, lsl #10
    25b4:	01bd0500 			; <UNDEFINED> instruction: 0x01bd0500
    25b8:	00002cd2 	ldrdeq	r2, [r0], -r2	; <UNPREDICTABLE>
    25bc:	e201be05 	and	fp, r1, #5, 28	; 0x50
    25c0:	05000022 	streq	r0, [r0, #-34]	; 0xffffffde
    25c4:	27fe01bf 			; <UNDEFINED> instruction: 0x27fe01bf
    25c8:	c0050000 	andgt	r0, r5, r0
    25cc:	00518501 	subseq	r8, r1, r1, lsl #10
    25d0:	01c10500 	biceq	r0, r1, r0, lsl #10
    25d4:	00005181 	andeq	r5, r0, r1, lsl #3
    25d8:	f001c205 			; <UNDEFINED> instruction: 0xf001c205
    25dc:	05000017 	streq	r0, [r0, #-23]	; 0xffffffe9
    25e0:	4d0801c3 	stfmis	f0, [r8, #-780]	; 0xfffffcf4
    25e4:	c4050000 	strgt	r0, [r5], #-0
    25e8:	0017ec01 	andseq	lr, r7, r1, lsl #24
    25ec:	01c50500 	biceq	r0, r5, r0, lsl #10
    25f0:	00001287 	andeq	r1, r0, r7, lsl #5
    25f4:	b101c605 	tstlt	r1, r5, lsl #12
    25f8:	05000019 	streq	r0, [r0, #-25]	; 0xffffffe7
    25fc:	184201c7 	stmdane	r2, {r0, r1, r2, r6, r7, r8}^
    2600:	c8050000 	stmdagt	r5, {}	; <UNPREDICTABLE>
    2604:	00631d01 	rsbeq	r1, r3, r1, lsl #26
    2608:	01c90500 	biceq	r0, r9, r0, lsl #10
    260c:	0000253f 	andeq	r2, r0, pc, lsr r5
    2610:	7e01d005 	cdpvc	0, 0, cr13, cr1, cr5, {0}
    2614:	0600000b 	streq	r0, [r0], -fp
    2618:	34e301ed 	strbtcc	r0, [r3], #493	; 0x1ed
    261c:	8b050000 	blhi	142624 <_Min_Stack_Size+0x142224>
    2620:	0016d602 	andseq	sp, r6, r2, lsl #12
    2624:	028c0500 	addeq	r0, ip, #0, 10
    2628:	00005d61 	andeq	r5, r0, r1, ror #26
    262c:	d0028d05 	andle	r8, r2, r5, lsl #26
    2630:	05000042 	streq	r0, [r0, #-66]	; 0xffffffbe
    2634:	3390028e 	orrscc	r0, r0, #-536870904	; 0xe0000008
    2638:	8f050000 	svchi	0x00050000
    263c:	00523a02 	subseq	r3, r2, r2, lsl #20
    2640:	02900500 	addseq	r0, r0, #0, 10
    2644:	000036f7 	strdeq	r3, [r0], -r7
    2648:	1d029105 	stfned	f1, [r2, #-20]	; 0xffffffec
    264c:	05000026 	streq	r0, [r0, #-38]	; 0xffffffda
    2650:	26190292 			; <UNDEFINED> instruction: 0x26190292
    2654:	93050000 	movwls	r0, #20480	; 0x5000
    2658:	004a0702 	subeq	r0, sl, r2, lsl #14
    265c:	02940500 	addseq	r0, r4, #0, 10
    2660:	00004f98 	muleq	r0, r8, pc	; <UNPREDICTABLE>
    2664:	f1029505 			; <UNDEFINED> instruction: 0xf1029505
    2668:	05000052 	streq	r0, [r0, #-82]	; 0xffffffae
    266c:	0bc40296 	bleq	ff1030cc <_estack+0xdf0e30cc>
    2670:	97050000 	strls	r0, [r5, -r0]
    2674:	0052ec02 	subseq	lr, r2, r2, lsl #24
    2678:	02980500 	addseq	r0, r8, #0, 10
    267c:	000042cc 	andeq	r4, r0, ip, asr #5
    2680:	32029905 	andcc	r9, r2, #81920	; 0x14000
    2684:	05000040 	streq	r0, [r0, #-64]	; 0xffffffc0
    2688:	5ed5029a 	mrcpl	2, 6, r0, cr5, cr10, {4}
    268c:	a7060000 	strge	r0, [r6, -r0]
    2690:	00638802 	rsbeq	r8, r3, r2, lsl #16
    2694:	02dd0600 	sbcseq	r0, sp, #0, 12
    2698:	00000aad 	andeq	r0, r0, sp, lsr #21
    269c:	4c038f06 	stcmi	15, cr8, [r3], {6}
    26a0:	05000028 	streq	r0, [r0, #-40]	; 0xffffffd8
    26a4:	275b0394 			; <UNDEFINED> instruction: 0x275b0394
    26a8:	9a060000 	bls	1826b0 <_Min_Stack_Size+0x1822b0>
    26ac:	00284503 	eoreq	r4, r8, r3, lsl #10
    26b0:	039f0600 	orrseq	r0, pc, #0, 12
    26b4:	000068a6 	andeq	r6, r0, r6, lsr #17
    26b8:	8103a005 	tsthi	r3, r5
    26bc:	0500002f 	streq	r0, [r0, #-47]	; 0xffffffd1
    26c0:	55a003a5 	strpl	r0, [r0, #933]!	; 0x3a5
    26c4:	05000000 	streq	r0, [r0, #-0]
    26c8:	0e050000 	cdpeq	0, 0, cr0, cr5, cr0, {0}
    26cc:	00001e10 	andeq	r1, r0, r0, lsl lr
    26d0:	2f0f0f05 	svccs	0x000f0f05
    26d4:	05000000 	streq	r0, [r0, #-0]
    26d8:	9e060000 	cdpls	0, 0, cr0, cr6, cr0, {0}
    26dc:	005c5901 	subseq	r5, ip, r1, lsl #18
    26e0:	01ed0600 	mvneq	r0, r0, lsl #12
    26e4:	000034e3 	andeq	r3, r0, r3, ror #9
    26e8:	ad02dd06 	stcge	13, cr13, [r2, #-24]	; 0xffffffe8
    26ec:	0600000a 	streq	r0, [r0], -sl
    26f0:	284c038f 	stmdacs	ip, {r0, r1, r2, r3, r7, r8, r9}^
    26f4:	94050000 	strls	r0, [r5], #-0
    26f8:	00275b03 	eoreq	r5, r7, r3, lsl #22
    26fc:	039a0600 	orrseq	r0, sl, #0, 12
    2700:	00002845 	andeq	r2, r0, r5, asr #16
    2704:	a6039f06 	strge	r9, [r3], -r6, lsl #30
    2708:	05000068 	streq	r0, [r0, #-104]	; 0xffffff98
    270c:	2f8103a0 	svccs	0x008103a0
    2710:	05000000 	streq	r0, [r0, #-0]
    2714:	02050000 	andeq	r0, r5, #0
    2718:	00007af2 	strdeq	r7, [r0], -r2
    271c:	93fe0705 	mvnsls	r0, #1310720	; 0x140000
    2720:	05000000 	streq	r0, [r0, #-0]
    2724:	19050000 	stmdbne	r5, {}	; <UNPREDICTABLE>
    2728:	00008473 	andeq	r8, r0, r3, ror r4
    272c:	745f1a05 	ldrbvc	r1, [pc], #-2565	; 2734 <_Min_Stack_Size+0x2334>
    2730:	05000000 	streq	r0, [r0, #-0]
    2734:	28050000 	stmdacs	r5, {}	; <UNPREDICTABLE>
    2738:	00006fb8 			; <UNDEFINED> instruction: 0x00006fb8
    273c:	7c4c2c05 	mcrrvc	12, 0, r2, ip, cr5
    2740:	05000000 	streq	r0, [r0, #-0]
    2744:	0a050000 	beq	14274c <_Min_Stack_Size+0x14234c>
    2748:	000080b8 	strheq	r8, [r0], -r8	; <UNPREDICTABLE>
    274c:	94611505 	strbtls	r1, [r1], #-1285	; 0xfffffafb
    2750:	19050000 	stmdbne	r5, {}	; <UNPREDICTABLE>
    2754:	00008b30 	andeq	r8, r0, r0, lsr fp
    2758:	2b651b05 	blcs	1949374 <_Min_Stack_Size+0x1948f74>
    275c:	21050000 	mrscs	r0, (UNDEF: 5)
    2760:	00007ee9 	andeq	r7, r0, r9, ror #29
    2764:	71d32505 	bicsvc	r2, r3, r5, lsl #10
    2768:	27050000 	strcs	r0, [r5, -r0]
    276c:	00001f37 	andeq	r1, r0, r7, lsr pc
    2770:	94732d05 	ldrbtls	r2, [r3], #-3333	; 0xfffff2fb
    2774:	31050000 	mrscc	r0, (UNDEF: 5)
    2778:	00006d18 	andeq	r6, r0, r8, lsl sp
    277c:	37443305 	strbcc	r3, [r4, -r5, lsl #6]
    2780:	39050000 	stmdbcc	r5, {}	; <UNPREDICTABLE>
    2784:	00008c0f 	andeq	r8, r0, pc, lsl #24
    2788:	85853d05 	strhi	r3, [r5, #3333]	; 0xd05
    278c:	3f050000 	svccc	0x00050000
    2790:	00004a21 	andeq	r4, r0, r1, lsr #20
    2794:	8ad54405 	bhi	ff5537b0 <_estack+0xdf5337b0>
    2798:	49050000 	stmdbmi	r5, {}	; <UNPREDICTABLE>
    279c:	00008ab0 			; <UNDEFINED> instruction: 0x00008ab0
    27a0:	738c4e05 	orrvc	r4, ip, #5, 28	; 0x50
    27a4:	53050000 	movwpl	r0, #20480	; 0x5000
    27a8:	00008b56 	andeq	r8, r0, r6, asr fp
    27ac:	00000500 	andeq	r0, r0, r0, lsl #10
    27b0:	82c11f05 	sbchi	r1, r1, #5, 30
    27b4:	20050000 	andcs	r0, r5, r0
    27b8:	00009590 	muleq	r0, r0, r5
    27bc:	7f902105 	svcvc	0x00902105
    27c0:	26050000 	strcs	r0, [r5], -r0
    27c4:	00007b8f 	andeq	r7, r0, pc, lsl #23
    27c8:	00000500 	andeq	r0, r0, r0, lsl #10
    27cc:	93170905 	tstls	r7, #81920	; 0x14000
    27d0:	0a050000 	beq	1427d8 <_Min_Stack_Size+0x1423d8>
    27d4:	00008419 	andeq	r8, r0, r9, lsl r4
    27d8:	96b41105 	ldrtls	r1, [r4], r5, lsl #2
    27dc:	12050000 	andne	r0, r5, #0
    27e0:	000074bc 			; <UNDEFINED> instruction: 0x000074bc
    27e4:	967f1305 	ldrbtls	r1, [pc], -r5, lsl #6
    27e8:	14050000 	strne	r0, [r5], #-0
    27ec:	00007c5a 	andeq	r7, r0, sl, asr ip
    27f0:	818f1805 	orrhi	r1, pc, r5, lsl #16
    27f4:	19050000 	stmdbne	r5, {}	; <UNPREDICTABLE>
    27f8:	00007c1e 	andeq	r7, r0, lr, lsl ip
    27fc:	908c1a05 	addls	r1, ip, r5, lsl #20
    2800:	39050000 	stmdbcc	r5, {}	; <UNPREDICTABLE>
    2804:	00007812 	andeq	r7, r0, r2, lsl r8
    2808:	8ba43a05 	blhi	fe911024 <_estack+0xde8f1024>
    280c:	3b050000 	blcc	142814 <_Min_Stack_Size+0x142414>
    2810:	000071f8 	strdeq	r7, [r0], -r8
    2814:	88703c05 	ldmdahi	r0!, {r0, r2, sl, fp, ip, sp}^
    2818:	05000000 	streq	r0, [r0, #-0]
    281c:	20050000 	andcs	r0, r5, r0
    2820:	00007d2c 	andeq	r7, r0, ip, lsr #26
    2824:	90012605 	andls	r2, r1, r5, lsl #12
    2828:	2b050000 	blcs	142830 <_Min_Stack_Size+0x142430>
    282c:	000088c9 	andeq	r8, r0, r9, asr #17
    2830:	84412c05 	strbhi	r2, [r1], #-3077	; 0xfffff3fb
    2834:	31050000 	mrscc	r0, (UNDEF: 5)
    2838:	000090b0 	strheq	r9, [r0], -r0
    283c:	00000500 	andeq	r0, r0, r0, lsl #10
    2840:	875a2905 	ldrbhi	r2, [sl, -r5, lsl #18]
    2844:	2e050000 	cdpcs	0, 0, cr0, cr5, cr0, {0}
    2848:	00007293 	muleq	r0, r3, r2
    284c:	00000500 	andeq	r0, r0, r0, lsl #10
    2850:	88381305 	ldmdahi	r8!, {r0, r2, r8, r9, ip}
    2854:	17050000 	strne	r0, [r5, -r0]
    2858:	00007b45 	andeq	r7, r0, r5, asr #22
    285c:	91142405 	tstls	r4, r5, lsl #8
    2860:	2d050000 	stccs	0, cr0, [r5, #-0]
    2864:	0000787b 	andeq	r7, r0, fp, ror r8
    2868:	7aa92f05 	bvc	fea4e484 <_estack+0xdea2e484>
    286c:	33050000 	movwcc	r0, #20480	; 0x5000
    2870:	0000802c 	andeq	r8, r0, ip, lsr #32
    2874:	952c3a05 	strls	r3, [ip, #-2565]!	; 0xfffff5fb
    2878:	3d050000 	stccc	0, cr0, [r5, #-0]
    287c:	0000796b 	andeq	r7, r0, fp, ror #18
    2880:	89e03e05 	stmibhi	r0!, {r0, r2, r9, sl, fp, ip, sp}^
    2884:	40050000 	andmi	r0, r5, r0
    2888:	00008a41 	andeq	r8, r0, r1, asr #20
    288c:	73024205 	movwvc	r4, #8709	; 0x2205
    2890:	43050000 	movwmi	r0, #20480	; 0x5000
    2894:	00007d71 	andeq	r7, r0, r1, ror sp
    2898:	97454405 	strbls	r4, [r5, -r5, lsl #8]
    289c:	05000000 	streq	r0, [r0, #-0]
    28a0:	33050000 	movwcc	r0, #20480	; 0x5000
    28a4:	00008a9e 	muleq	r0, lr, sl
    28a8:	78ff3405 	ldmvc	pc!, {r0, r2, sl, ip, sp}^	; <UNPREDICTABLE>
    28ac:	38050000 	stmdacc	r5, {}	; <UNPREDICTABLE>
    28b0:	00007bff 	strdeq	r7, [r0], -pc	; <UNPREDICTABLE>
    28b4:	779b3d05 	ldrvc	r3, [fp, r5, lsl #26]
    28b8:	48050000 	stmdami	r5, {}	; <UNPREDICTABLE>
    28bc:	00007768 	andeq	r7, r0, r8, ror #14
    28c0:	7ca04c05 	stcvc	12, cr4, [r0], #20
    28c4:	50050000 	andpl	r0, r5, r0
    28c8:	00007635 	andeq	r7, r0, r5, lsr r6
    28cc:	8d855405 	cfstrshi	mvf5, [r5, #20]
    28d0:	56050000 	strpl	r0, [r5], -r0
    28d4:	00009441 	andeq	r9, r0, r1, asr #8
    28d8:	8b116205 	blhi	45b0f4 <_Min_Stack_Size+0x45acf4>
    28dc:	67050000 	strvs	r0, [r5, -r0]
    28e0:	00007e75 	andeq	r7, r0, r5, ror lr
    28e4:	8b436c05 	blhi	10dd900 <_Min_Stack_Size+0x10dd500>
    28e8:	6d050000 	stcvs	0, cr0, [r5, #-0]
    28ec:	000088f5 	strdeq	r8, [r0], -r5
    28f0:	7dbf7a05 			; <UNDEFINED> instruction: 0x7dbf7a05
    28f4:	80050000 	andhi	r0, r5, r0
    28f8:	007f0401 	rsbseq	r0, pc, r1, lsl #8
    28fc:	01850500 	orreq	r0, r5, r0, lsl #10
    2900:	00008ac5 	andeq	r8, r0, r5, asr #21
    2904:	99018a05 	stmdbls	r1, {r0, r2, r9, fp, pc}
    2908:	05000085 	streq	r0, [r0, #-133]	; 0xffffff7b
    290c:	0a1e019c 	beq	782f84 <_Min_Stack_Size+0x782b84>
    2910:	a0050000 	andge	r0, r5, r0
    2914:	0092d601 	addseq	sp, r2, r1, lsl #12
    2918:	01a40500 			; <UNDEFINED> instruction: 0x01a40500
    291c:	000085b5 			; <UNDEFINED> instruction: 0x000085b5
    2920:	1201a805 	andne	sl, r1, #327680	; 0x50000
    2924:	0500008d 	streq	r0, [r0, #-141]	; 0xffffff73
    2928:	971401ad 	ldrls	r0, [r4, -sp, lsr #3]
    292c:	b2050000 	andlt	r0, r5, #0
    2930:	0071e701 	rsbseq	lr, r1, r1, lsl #14
    2934:	01b70500 			; <UNDEFINED> instruction: 0x01b70500
    2938:	0000554d 	andeq	r5, r0, sp, asr #10
    293c:	f101bc05 			; <UNDEFINED> instruction: 0xf101bc05
    2940:	05000070 	streq	r0, [r0, #-112]	; 0xffffff90
    2944:	701d01c1 	andsvc	r0, sp, r1, asr #3
    2948:	c6050000 	strgt	r0, [r5], -r0
    294c:	00981701 	addseq	r1, r8, r1, lsl #14
    2950:	01c70500 	biceq	r0, r7, r0, lsl #10
    2954:	0000955e 	andeq	r9, r0, lr, asr r5
    2958:	4c01cc05 	stcmi	12, cr12, [r1], {5}
    295c:	05000088 	streq	r0, [r0, #-136]	; 0xffffff78
    2960:	6f9c01cd 	svcvs	0x009c01cd
    2964:	d2050000 	andle	r0, r5, #0
    2968:	007b1301 	rsbseq	r1, fp, r1, lsl #6
    296c:	00050000 	andeq	r0, r5, r0
    2970:	54160500 	ldrpl	r0, [r6], #-1280	; 0xfffffb00
    2974:	0500008f 	streq	r0, [r0, #-143]	; 0xffffff71
    2978:	007a7723 	rsbseq	r7, sl, r3, lsr #14
    297c:	99260500 	stmdbls	r6!, {r8, sl}
    2980:	05000082 	streq	r0, [r0, #-130]	; 0xffffff7e
    2984:	0096a227 	addseq	sl, r6, r7, lsr #4
    2988:	00050000 	andeq	r0, r5, r0
    298c:	60240500 	eorvs	r0, r4, r0, lsl #10
    2990:	0500007b 	streq	r0, [r0, #-123]	; 0xffffff85
    2994:	008a2025 	addeq	r2, sl, r5, lsr #32
    2998:	41280500 			; <UNDEFINED> instruction: 0x41280500
    299c:	0500006d 	streq	r0, [r0, #-109]	; 0xffffff93
    29a0:	0076c52b 	rsbseq	ip, r6, fp, lsr #10
    29a4:	1b2e0500 	blne	b83dac <_Min_Stack_Size+0xb839ac>
    29a8:	05000075 	streq	r0, [r0, #-117]	; 0xffffff8b
    29ac:	008b8a2f 	addeq	r8, fp, pc, lsr #20
    29b0:	01ac0500 			; <UNDEFINED> instruction: 0x01ac0500
    29b4:	0000919a 	muleq	r0, sl, r1
    29b8:	e301b205 	movw	fp, #4613	; 0x1205
    29bc:	05000074 	streq	r0, [r0, #-116]	; 0xffffff8c
    29c0:	6cde01c5 	ldfvse	f0, [lr], {197}	; 0xc5
    29c4:	05000000 	streq	r0, [r0, #-0]
    29c8:	8e050000 	cdphi	0, 0, cr0, cr5, cr0, {0}
    29cc:	00809301 	addeq	r9, r0, r1, lsl #6
    29d0:	01dc0500 	bicseq	r0, ip, r0, lsl #10
    29d4:	00007220 	andeq	r7, r0, r0, lsr #4
    29d8:	0501dd05 	streq	sp, [r1, #-3333]	; 0xfffff2fb
    29dc:	05000087 	streq	r0, [r0, #-135]	; 0xffffff79
    29e0:	8bc901e1 	blhi	ff24316c <_estack+0xdf22316c>
    29e4:	e4050000 	str	r0, [r5], #-0
    29e8:	00777a01 	rsbseq	r7, r7, r1, lsl #20
    29ec:	01eb0500 	mvneq	r0, r0, lsl #10
    29f0:	00007e25 	andeq	r7, r0, r5, lsr #28
    29f4:	6b01f305 	blvs	7f610 <_Min_Stack_Size+0x7f210>
    29f8:	0000008b 	andeq	r0, r0, fp, lsl #1
    29fc:	05000005 	streq	r0, [r0, #-5]
    2a00:	006dc936 	rsbeq	ip, sp, r6, lsr r9
    2a04:	31370500 	teqcc	r7, r0, lsl #10
    2a08:	05000093 	streq	r0, [r0, #-147]	; 0xffffff6d
    2a0c:	007cb338 	rsbseq	fp, ip, r8, lsr r3
    2a10:	123d0500 	eorsne	r0, sp, #0, 10
    2a14:	05000072 	streq	r0, [r0, #-114]	; 0xffffff8e
    2a18:	0080543e 	addeq	r5, r0, lr, lsr r4
    2a1c:	853f0500 	ldrhi	r0, [pc, #-1280]!	; 2524 <_Min_Stack_Size+0x2124>
    2a20:	05000076 	streq	r0, [r0, #-118]	; 0xffffff8a
    2a24:	008bd940 	addeq	sp, fp, r0, asr #18
    2a28:	1d410500 	cfstr64ne	mvdx0, [r1, #-0]
    2a2c:	0500007a 	streq	r0, [r0, #-122]	; 0xffffff86
    2a30:	007f4b42 	rsbseq	r4, pc, r2, asr #22
    2a34:	e1430500 	cmp	r3, r0, lsl #10
    2a38:	0500007d 	streq	r0, [r0, #-125]	; 0xffffff83
    2a3c:	00917c44 	addseq	r7, r1, r4, asr #24
    2a40:	8b460500 	blhi	1183e48 <_Min_Stack_Size+0x1183a48>
    2a44:	05000091 	streq	r0, [r0, #-145]	; 0xffffff6f
    2a48:	007e3548 	rsbseq	r3, lr, r8, asr #10
    2a4c:	e5490500 	strb	r0, [r9, #-1280]	; 0xfffffb00
    2a50:	05000088 	streq	r0, [r0, #-136]	; 0xffffff78
    2a54:	0092e74a 	addseq	lr, r2, sl, asr #14
    2a58:	a04c0500 	subge	r0, ip, r0, lsl #10
    2a5c:	05000073 	streq	r0, [r0, #-115]	; 0xffffff8d
    2a60:	0083534d 	addeq	r5, r3, sp, asr #6
    2a64:	6b4e0500 	blvs	1383e6c <_Min_Stack_Size+0x1383a6c>
    2a68:	05000075 	streq	r0, [r0, #-117]	; 0xffffff8b
    2a6c:	0097254f 	addseq	r2, r7, pc, asr #10
    2a70:	19520500 	ldmdbne	r2, {r8, sl}^
    2a74:	0500006e 	streq	r0, [r0, #-110]	; 0xffffff92
    2a78:	0094c053 	addseq	ip, r4, r3, asr r0
    2a7c:	1d540500 	cfldr64ne	mvdx0, [r4, #-0]
    2a80:	0500007d 	streq	r0, [r0, #-125]	; 0xffffff83
    2a84:	00748f55 	rsbseq	r8, r4, r5, asr pc
    2a88:	50560500 	subspl	r0, r6, r0, lsl #10
    2a8c:	05000076 	streq	r0, [r0, #-118]	; 0xffffff8a
    2a90:	0085c657 	addeq	ip, r5, r7, asr r6
    2a94:	27580500 	ldrbcs	r0, [r8, -r0, lsl #10]
    2a98:	05000088 	streq	r0, [r0, #-136]	; 0xffffff78
    2a9c:	007db059 	rsbseq	fp, sp, r9, asr r0
    2aa0:	22680500 	rsbcs	r0, r8, #0, 10
    2aa4:	05000091 	streq	r0, [r0, #-145]	; 0xffffff6f
    2aa8:	00973569 	addseq	r3, r7, r9, ror #10
    2aac:	b66a0500 	strbtlt	r0, [sl], -r0, lsl #10
    2ab0:	05000093 	streq	r0, [r0, #-147]	; 0xffffff6d
    2ab4:	007baa6b 	rsbseq	sl, fp, fp, ror #20
    2ab8:	c56c0500 	strbgt	r0, [ip, #-1280]!	; 0xfffffb00
    2abc:	05000086 	streq	r0, [r0, #-134]	; 0xffffff7a
    2ac0:	008cd06d 	addeq	sp, ip, sp, rrx
    2ac4:	636e0500 	cmnvs	lr, #0, 10
    2ac8:	05000084 	streq	r0, [r0, #-132]	; 0xffffff7c
    2acc:	008db16f 	addeq	fp, sp, pc, ror #2
    2ad0:	16700500 	ldrbtne	r0, [r0], -r0, lsl #10
    2ad4:	05000087 	streq	r0, [r0, #-135]	; 0xffffff79
    2ad8:	00782c71 	rsbseq	r2, r8, r1, ror ip
    2adc:	d6720500 	ldrbtle	r0, [r2], -r0, lsl #10
    2ae0:	05000080 	streq	r0, [r0, #-128]	; 0xffffff80
    2ae4:	00759673 	rsbseq	r9, r5, r3, ror r6
    2ae8:	a3760500 	cmnge	r6, #0, 10
    2aec:	0500008e 	streq	r0, [r0, #-142]	; 0xffffff72
    2af0:	007e8a77 	rsbseq	r8, lr, r7, ror sl
    2af4:	ca780500 	bgt	1e03efc <_Min_Stack_Size+0x1e03afc>
    2af8:	05000077 	streq	r0, [r0, #-119]	; 0xffffff89
    2afc:	0075357b 	rsbseq	r3, r5, fp, ror r5
    2b00:	207c0500 	rsbscs	r0, ip, r0, lsl #10
    2b04:	0500006f 	streq	r0, [r0, #-111]	; 0xffffff91
    2b08:	00743c7d 	rsbseq	r3, r4, sp, ror ip
    2b0c:	717e0500 	cmnvc	lr, r0, lsl #10
    2b10:	0500007c 	streq	r0, [r0, #-124]	; 0xffffff84
    2b14:	00963a7f 	addseq	r3, r6, pc, ror sl
    2b18:	01800500 	orreq	r0, r0, r0, lsl #10
    2b1c:	00008671 	andeq	r8, r0, r1, ror r6
    2b20:	ae018105 	mvfges	f0, f5
    2b24:	00000071 	andeq	r0, r0, r1, ror r0
    2b28:	05000005 	streq	r0, [r0, #-5]
    2b2c:	001e100d 	andseq	r1, lr, sp
    2b30:	2c0e0500 	cfstr32cs	mvfx0, [lr], {-0}
    2b34:	0500007a 	streq	r0, [r0, #-122]	; 0xffffff86
    2b38:	002f0f0f 	eoreq	r0, pc, pc, lsl #30
    2b3c:	00050000 	andeq	r0, r5, r0
    2b40:	98080500 	stmdals	r8, {r8, sl}
    2b44:	06000093 			; <UNDEFINED> instruction: 0x06000093
    2b48:	0086be0d 	addeq	fp, r6, sp, lsl #28
    2b4c:	e0100500 	ands	r0, r0, r0, lsl #10
    2b50:	0000008c 	andeq	r0, r0, ip, lsl #1
    2b54:	05000005 	streq	r0, [r0, #-5]
    2b58:	0089c038 	addeq	ip, r9, r8, lsr r0
    2b5c:	1d3c0500 	cfldr32ne	mvfx0, [ip, #-0]
    2b60:	05000080 	streq	r0, [r0, #-128]	; 0xffffff80
    2b64:	00765f3d 	rsbseq	r5, r6, sp, lsr pc
    2b68:	7b3f0500 	blvc	fc3f70 <_Min_Stack_Size+0xfc3b70>
    2b6c:	05000081 	streq	r0, [r0, #-129]	; 0xffffff7f
    2b70:	0083ee43 	addeq	lr, r3, r3, asr #28
    2b74:	01a80500 			; <UNDEFINED> instruction: 0x01a80500
    2b78:	000093c6 	andeq	r9, r0, r6, asr #7
    2b7c:	00000500 	andeq	r0, r0, r0, lsl #10
    2b80:	81200205 			; <UNDEFINED> instruction: 0x81200205
    2b84:	06050000 	streq	r0, [r5], -r0
    2b88:	00007415 	andeq	r7, r0, r5, lsl r4
    2b8c:	00000500 	andeq	r0, r0, r0, lsl #10
    2b90:	7fa10905 	svcvc	0x00a10905
    2b94:	12050000 	andne	r0, r5, #0
    2b98:	00008f1b 	andeq	r8, r0, fp, lsl pc
    2b9c:	83cd2305 	bichi	r2, sp, #335544320	; 0x14000000
    2ba0:	25050000 	strcs	r0, [r5, #-0]
    2ba4:	00007694 	muleq	r0, r4, r6
    2ba8:	8f9e2605 	svchi	0x009e2605
    2bac:	27050000 	strcs	r0, [r5, -r0]
    2bb0:	00007d3e 	andeq	r7, r0, lr, lsr sp
    2bb4:	91632805 	cmnls	r3, r5, lsl #16
    2bb8:	29050000 	stmdbcs	r5, {}	; <UNPREDICTABLE>
    2bbc:	0000982c 	andeq	r9, r0, ip, lsr #16
    2bc0:	88682a05 	stmdahi	r8!, {r0, r2, r9, fp, sp}^
    2bc4:	2b050000 	blcs	142bcc <_Min_Stack_Size+0x1427cc>
    2bc8:	000082f2 	strdeq	r8, [r0], -r2
    2bcc:	71992c05 	orrsvc	r2, r9, r5, lsl #24
    2bd0:	2d050000 	stccs	0, cr0, [r5, #-0]
    2bd4:	00007efc 	strdeq	r7, [r0], -ip
    2bd8:	6f6d2e05 	svcvs	0x006d2e05
    2bdc:	2f050000 	svccs	0x00050000
    2be0:	00007e45 	andeq	r7, r0, r5, asr #28
    2be4:	82e03005 	rschi	r3, r0, #5
    2be8:	31050000 	mrscc	r0, (UNDEF: 5)
    2bec:	00008563 	andeq	r8, r0, r3, ror #10
    2bf0:	94e03205 	strbtls	r3, [r0], #517	; 0x205
    2bf4:	36050000 	strcc	r0, [r5], -r0
    2bf8:	0000888a 	andeq	r8, r0, sl, lsl #17
    2bfc:	727b3705 	rsbsvc	r3, fp, #1310720	; 0x140000
    2c00:	38050000 	stmdacc	r5, {}	; <UNPREDICTABLE>
    2c04:	00007602 	andeq	r7, r0, r2, lsl #12
    2c08:	95a13905 	strls	r3, [r1, #2309]!	; 0x905
    2c0c:	3a050000 	bcc	142c14 <_Min_Stack_Size+0x142814>
    2c10:	0000873c 	andeq	r8, r0, ip, lsr r7
    2c14:	79613b05 	stmdbvc	r1!, {r0, r2, r8, r9, fp, ip, sp}^
    2c18:	3c050000 	stccc	0, cr0, [r5], {-0}
    2c1c:	00008908 	andeq	r8, r0, r8, lsl #18
    2c20:	91593d05 	cmpls	r9, r5, lsl #26
    2c24:	3e050000 	cdpcc	0, 0, cr0, cr5, cr0, {0}
    2c28:	00007646 	andeq	r7, r0, r6, asr #12
    2c2c:	84593f05 	ldrbhi	r3, [r9], #-3845	; 0xfffff0fb
    2c30:	40050000 	andmi	r0, r5, r0
    2c34:	00007429 	andeq	r7, r0, r9, lsr #8
    2c38:	83a24105 			; <UNDEFINED> instruction: 0x83a24105
    2c3c:	42050000 	andmi	r0, r5, #0
    2c40:	0000766e 	andeq	r7, r0, lr, ror #12
    2c44:	7f864305 	svcvc	0x00864305
    2c48:	44050000 	strmi	r0, [r5], #-0
    2c4c:	00006e26 	andeq	r6, r0, r6, lsr #28
    2c50:	78dc4505 	ldmvc	ip, {r0, r2, r8, sl, lr}^
    2c54:	46050000 	strmi	r0, [r5], -r0
    2c58:	00007260 	andeq	r7, r0, r0, ror #4
    2c5c:	8da94705 	stchi	7, cr4, [r9, #20]!
    2c60:	48050000 	stmdami	r5, {}	; <UNPREDICTABLE>
    2c64:	000089a0 	andeq	r8, r0, r0, lsr #19
    2c68:	840f4905 	strhi	r4, [pc], #-2309	; 2c70 <_Min_Stack_Size+0x2870>
    2c6c:	4a050000 	bmi	142c74 <_Min_Stack_Size+0x142874>
    2c70:	00007094 	muleq	r0, r4, r0
    2c74:	94ea5505 	strbtls	r5, [sl], #1285	; 0x505
    2c78:	56050000 	strpl	r0, [r5], -r0
    2c7c:	000095da 	ldrdeq	r9, [r0], -sl
    2c80:	75ec6105 	strbvc	r6, [ip, #261]!	; 0x105
    2c84:	62050000 	andvs	r0, r5, #0
    2c88:	000085aa 	andeq	r8, r0, sl, lsr #11
    2c8c:	83c46305 	bichi	r6, r4, #335544320	; 0x14000000
    2c90:	64050000 	strvs	r0, [r5], #-0
    2c94:	00009328 	andeq	r9, r0, r8, lsr #6
    2c98:	7c956a05 	vldmiavc	r5, {s12-s16}
    2c9c:	70050000 	andvc	r0, r5, r0
    2ca0:	0000881d 	andeq	r8, r0, sp, lsl r8
    2ca4:	94547105 	ldrbls	r7, [r4], #-261	; 0xfffffefb
    2ca8:	76050000 	strvc	r0, [r5], -r0
    2cac:	000071a3 	andeq	r7, r0, r3, lsr #3
    2cb0:	77487705 	strbvc	r7, [r8, -r5, lsl #14]
    2cb4:	82050000 	andhi	r0, r5, #0
    2cb8:	0078c301 	rsbseq	ip, r8, r1, lsl #6
    2cbc:	01860500 	orreq	r0, r6, r0, lsl #10
    2cc0:	000075df 	ldrdeq	r7, [r0], -pc	; <UNPREDICTABLE>
    2cc4:	08018705 	stmdaeq	r1, {r0, r2, r8, r9, sl, pc}
    2cc8:	0500006d 	streq	r0, [r0, #-109]	; 0xffffff93
    2ccc:	73740188 	cmnvc	r4, #136, 2	; 0x22
    2cd0:	89050000 	stmdbhi	r5, {}	; <UNPREDICTABLE>
    2cd4:	007a6901 	rsbseq	r6, sl, r1, lsl #18
    2cd8:	018a0500 	orreq	r0, sl, r0, lsl #10
    2cdc:	00006f5d 	andeq	r6, r0, sp, asr pc
    2ce0:	7d018b05 	vstrvc	d8, [r1, #-20]	; 0xffffffec
    2ce4:	05000073 	streq	r0, [r0, #-115]	; 0xffffff8d
    2ce8:	772f018c 	strvc	r0, [pc, -ip, lsl #3]!
    2cec:	8d050000 	stchi	0, cr0, [r5, #-0]
    2cf0:	0094cf01 	addseq	ip, r4, r1, lsl #30
    2cf4:	018e0500 	orreq	r0, lr, r0, lsl #10
    2cf8:	0000790b 	andeq	r7, r0, fp, lsl #18
    2cfc:	b9018f05 	stmdblt	r1, {r0, r2, r8, r9, sl, fp, pc}
    2d00:	0500008c 	streq	r0, [r0, #-140]	; 0xffffff74
    2d04:	80e60190 	smlalhi	r0, r6, r0, r1
    2d08:	94050000 	strls	r0, [r5], #-0
    2d0c:	007ac901 	rsbseq	ip, sl, r1, lsl #18
    2d10:	01950500 	orrseq	r0, r5, r0, lsl #10
    2d14:	000081b3 			; <UNDEFINED> instruction: 0x000081b3
    2d18:	75019605 	strvc	r9, [r1, #-1541]	; 0xfffff9fb
    2d1c:	05000080 	streq	r0, [r0, #-128]	; 0xffffff80
    2d20:	7a0d0197 	bvc	343384 <_Min_Stack_Size+0x342f84>
    2d24:	98050000 	stmdals	r5, {}	; <UNPREDICTABLE>
    2d28:	006de101 	rsbeq	lr, sp, r1, lsl #2
    2d2c:	01990500 	orrseq	r0, r9, r0, lsl #10
    2d30:	00009540 	andeq	r9, r0, r0, asr #10
    2d34:	76019a05 	strvc	r9, [r1], -r5, lsl #20
    2d38:	05000074 	streq	r0, [r0, #-116]	; 0xffffff8c
    2d3c:	7f3a019b 	svcvc	0x003a019b
    2d40:	9c050000 	stcls	0, cr0, [r5], {-0}
    2d44:	006f4301 	rsbeq	r4, pc, r1, lsl #6
    2d48:	019d0500 	orrseq	r0, sp, r0, lsl #10
    2d4c:	00009609 	andeq	r9, r0, r9, lsl #12
    2d50:	cf019e05 	svcgt	0x00019e05
    2d54:	05000073 	streq	r0, [r0, #-115]	; 0xffffff8d
    2d58:	8429019f 	strthi	r0, [r9], #-415	; 0xfffffe61
    2d5c:	a0050000 	andge	r0, r5, r0
    2d60:	007f5a01 	rsbseq	r5, pc, r1, lsl #20
    2d64:	01a40500 			; <UNDEFINED> instruction: 0x01a40500
    2d68:	000096d1 	ldrdeq	r9, [r0], -r1
    2d6c:	b601a505 	strlt	sl, [r1], -r5, lsl #10
    2d70:	05000083 	streq	r0, [r0, #-131]	; 0xffffff7d
    2d74:	701101a6 	andsvc	r0, r1, r6, lsr #3
    2d78:	a7050000 	strge	r0, [r5, -r0]
    2d7c:	00836401 	addeq	r6, r3, r1, lsl #8
    2d80:	01a80500 			; <UNDEFINED> instruction: 0x01a80500
    2d84:	000087c9 	andeq	r8, r0, r9, asr #15
    2d88:	be01ad05 	cdplt	13, 0, cr10, cr1, cr5, {0}
    2d8c:	0500006d 	streq	r0, [r0, #-109]	; 0xffffff93
    2d90:	901801ae 	andsls	r0, r8, lr, lsr #3
    2d94:	af050000 	svcge	0x00050000
    2d98:	0088bd01 	addeq	fp, r8, r1, lsl #26
    2d9c:	01b70500 			; <UNDEFINED> instruction: 0x01b70500
    2da0:	00008436 	andeq	r8, r0, r6, lsr r4
    2da4:	1101b805 	tstne	r1, r5, lsl #16
    2da8:	05000095 	streq	r0, [r0, #-149]	; 0xffffff6b
    2dac:	70ac01b9 	strhtvc	r0, [ip], r9
    2db0:	ba050000 	blt	142db8 <_Min_Stack_Size+0x1429b8>
    2db4:	0091df01 	addseq	sp, r1, r1, lsl #30
    2db8:	01bb0500 			; <UNDEFINED> instruction: 0x01bb0500
    2dbc:	000078cd 	andeq	r7, r0, sp, asr #17
    2dc0:	4701bf05 	strmi	fp, [r1, -r5, lsl #30]
    2dc4:	05000087 	streq	r0, [r0, #-135]	; 0xffffff79
    2dc8:	8d9701c1 	ldfhis	f0, [r7, #772]	; 0x304
    2dcc:	05000000 	streq	r0, [r0, #-0]
    2dd0:	1b050000 	blne	142dd8 <_Min_Stack_Size+0x1429d8>
    2dd4:	00005328 	andeq	r5, r0, r8, lsr #6
    2dd8:	458d1f05 	strmi	r1, [sp, #3845]	; 0xf05
    2ddc:	21050000 	mrscs	r0, (UNDEF: 5)
    2de0:	00001e10 	andeq	r1, r0, r0, lsl lr
    2de4:	2f0f2205 	svccs	0x000f2205
    2de8:	05000000 	streq	r0, [r0, #-0]
    2dec:	2f050000 	svccs	0x00050000
    2df0:	000024eb 	andeq	r2, r0, fp, ror #9
    2df4:	1b6b4305 	blne	1ad3a10 <_Min_Stack_Size+0x1ad3610>
    2df8:	05000000 	streq	r0, [r0, #-0]
    2dfc:	0a050000 	beq	142e04 <_Min_Stack_Size+0x142a04>
    2e00:	000080f6 	strdeq	r8, [r0], -r6
    2e04:	94f51005 	ldrbtls	r1, [r5], #5
    2e08:	2b060000 	blcs	182e10 <_Min_Stack_Size+0x182a10>
    2e0c:	00004e5e 	andeq	r4, r0, lr, asr lr
    2e10:	59002c06 	stmdbpl	r0, {r1, r2, sl, fp, sp}
    2e14:	2d060000 	stccs	0, cr0, [r6, #-0]
    2e18:	0000061e 	andeq	r0, r0, lr, lsl r6
    2e1c:	89122e06 	ldmdbhi	r2, {r1, r2, r9, sl, fp, sp}
    2e20:	2f020000 	svccs	0x00020000
    2e24:	00746e69 	rsbseq	r6, r4, r9, ror #28
    2e28:	94863006 	strls	r3, [r6], #6
    2e2c:	31060000 	mrscc	r0, (UNDEF: 6)
    2e30:	00008575 	andeq	r8, r0, r5, ror r5
    2e34:	454e3206 	strbmi	r3, [lr, #-518]	; 0xfffffdfa
    2e38:	33050000 	movwcc	r0, #20480	; 0x5000
    2e3c:	00008116 	andeq	r8, r0, r6, lsl r1
    2e40:	81143405 	tsthi	r4, r5, lsl #8
    2e44:	35050000 	strcc	r0, [r5, #-0]
    2e48:	000086b6 			; <UNDEFINED> instruction: 0x000086b6
    2e4c:	94383605 	ldrtls	r3, [r8], #-1541	; 0xfffff9fb
    2e50:	37050000 	strcc	r0, [r5, -r0]
    2e54:	00006cd3 	ldrdeq	r6, [r0], -r3
    2e58:	951f3805 	ldrls	r3, [pc, #-2053]	; 265b <_Min_Stack_Size+0x225b>
    2e5c:	39050000 	stmdbcc	r5, {}	; <UNPREDICTABLE>
    2e60:	0000812d 	andeq	r8, r0, sp, lsr #2
    2e64:	965d3a05 	ldrbls	r3, [sp], -r5, lsl #20
    2e68:	43050000 	movwmi	r0, #20480	; 0x5000
    2e6c:	00007ff8 	strdeq	r7, [r0], -r8
    2e70:	954e4a05 	strbls	r4, [lr, #-2565]	; 0xfffff5fb
    2e74:	52050000 	andpl	r0, r5, #0
    2e78:	00009885 	andeq	r9, r0, r5, lsl #17
    2e7c:	7fd45d05 	svcvc	0x00d45d05
    2e80:	68050000 	stmdavs	r5, {}	; <UNPREDICTABLE>
    2e84:	000093aa 	andeq	r9, r0, sl, lsr #7
    2e88:	95c67105 	strbls	r7, [r6, #261]	; 0x105
    2e8c:	78050000 	stmdavc	r5, {}	; <UNPREDICTABLE>
    2e90:	00009148 	andeq	r9, r0, r8, asr #2
    2e94:	8b018105 	blhi	632b0 <_Min_Stack_Size+0x62eb0>
    2e98:	05000089 	streq	r0, [r0, #-137]	; 0xffffff77
    2e9c:	88db0188 	ldmhi	fp, {r3, r7, r8}^
    2ea0:	93050000 	movwls	r0, #20480	; 0x5000
    2ea4:	00810601 	addeq	r0, r1, r1, lsl #12
    2ea8:	01970500 	orrseq	r0, r7, r0, lsl #10
    2eac:	000095ab 	andeq	r9, r0, fp, lsr #11
    2eb0:	fb01a205 	blx	6b6ce <_Min_Stack_Size+0x6b2ce>
    2eb4:	05000090 	streq	r0, [r0, #-144]	; 0xffffff70
    2eb8:	728501ad 	addvc	r0, r5, #1073741867	; 0x4000002b
    2ebc:	b6050000 	strlt	r0, [r5], -r0
    2ec0:	0089b101 	addeq	fp, r9, r1, lsl #2
    2ec4:	01b80600 			; <UNDEFINED> instruction: 0x01b80600
    2ec8:	00004e5e 	andeq	r4, r0, lr, asr lr
    2ecc:	0001b906 	andeq	fp, r1, r6, lsl #18
    2ed0:	06000059 			; <UNDEFINED> instruction: 0x06000059
    2ed4:	061e01ba 			; <UNDEFINED> instruction: 0x061e01ba
    2ed8:	bb060000 	bllt	182ee0 <_Min_Stack_Size+0x182ae0>
    2edc:	00891201 	addeq	r1, r9, r1, lsl #4
    2ee0:	01bc0200 			; <UNDEFINED> instruction: 0x01bc0200
    2ee4:	00746e69 	rsbseq	r6, r4, r9, ror #28
    2ee8:	4e01bd06 	cdpmi	13, 0, cr11, cr1, cr6, {0}
    2eec:	06000045 	streq	r0, [r0], -r5, asr #32
    2ef0:	948601c2 	strls	r0, [r6], #450	; 0x1c2
    2ef4:	c3060000 	movwgt	r0, #24576	; 0x6000
    2ef8:	00857501 	addeq	r7, r5, r1, lsl #10
    2efc:	00050000 	andeq	r0, r5, r0
    2f00:	71170500 	tstvc	r7, r0, lsl #10
    2f04:	05000042 	streq	r0, [r0, #-66]	; 0xffffffbe
    2f08:	0010a91d 	andseq	sl, r0, sp, lsl r9
    2f0c:	bf230500 	svclt	0x00230500
    2f10:	05000055 	streq	r0, [r0, #-85]	; 0xffffffab
    2f14:	00388329 	eorseq	r8, r8, r9, lsr #6
    2f18:	e0350500 	eors	r0, r5, r0, lsl #10
    2f1c:	0500007f 	streq	r0, [r0, #-127]	; 0xffffff81
    2f20:	0086583f 	addeq	r5, r6, pc, lsr r8
    2f24:	37490500 	strbcc	r0, [r9, -r0, lsl #10]
    2f28:	05000071 	streq	r0, [r0, #-113]	; 0xffffff8f
    2f2c:	0078e653 	rsbseq	lr, r8, r3, asr r6
    2f30:	01800500 	orreq	r0, r0, r0, lsl #10
    2f34:	000097f6 	strdeq	r9, [r0], -r6
    2f38:	da018105 	ble	63354 <_Min_Stack_Size+0x62f54>
    2f3c:	05000087 	streq	r0, [r0, #-135]	; 0xffffff79
    2f40:	749e0182 	ldrvc	r0, [lr], #386	; 0x182
    2f44:	98050000 	stmdals	r5, {}	; <UNPREDICTABLE>
    2f48:	007fb001 	rsbseq	fp, pc, r1
    2f4c:	01990500 	orrseq	r0, r9, r0, lsl #10
    2f50:	00006fd0 	ldrdeq	r6, [r0], -r0
    2f54:	ef019a05 	svc	0x00019a05
    2f58:	05000095 	streq	r0, [r0, #-149]	; 0xffffff6b
    2f5c:	8d2301a2 	stfhis	f0, [r3, #-648]!	; 0xfffffd78
    2f60:	a3050000 	movwge	r0, #20480	; 0x5000
    2f64:	007a8501 	rsbseq	r8, sl, r1, lsl #10
    2f68:	01a40500 			; <UNDEFINED> instruction: 0x01a40500
    2f6c:	00008f2e 	andeq	r8, r0, lr, lsr #30
    2f70:	0b01ae05 	bleq	6e78c <_Min_Stack_Size+0x6e38c>
    2f74:	05000076 	streq	r0, [r0, #-118]	; 0xffffff8a
    2f78:	70d701af 	sbcsvc	r0, r7, pc, lsr #3
    2f7c:	b0050000 	andlt	r0, r5, r0
    2f80:	00941c01 	addseq	r1, r4, r1, lsl #24
    2f84:	01b80500 			; <UNDEFINED> instruction: 0x01b80500
    2f88:	00007d46 	andeq	r7, r0, r6, asr #26
    2f8c:	4f01b905 	svcmi	0x0001b905
    2f90:	0500007e 	streq	r0, [r0, #-126]	; 0xffffff82
    2f94:	8ae901ba 	bhi	ffa43684 <_estack+0xdfa23684>
    2f98:	c4050000 	strgt	r0, [r5], #-0
    2f9c:	008d6601 	addeq	r6, sp, r1, lsl #12
    2fa0:	01c50500 	biceq	r0, r5, r0, lsl #10
    2fa4:	00007bd6 	ldrdeq	r7, [r0], -r6
    2fa8:	3701c605 	strcc	ip, [r1, -r5, lsl #12]
    2fac:	05000083 	streq	r0, [r0, #-131]	; 0xffffff7d
    2fb0:	7cd501d4 	ldfvce	f0, [r5], {212}	; 0xd4
    2fb4:	d5050000 	strle	r0, [r5, #-0]
    2fb8:	007a4301 	rsbseq	r4, sl, r1, lsl #6
    2fbc:	01d60500 	bicseq	r0, r6, r0, lsl #10
    2fc0:	00008fd9 	ldrdeq	r8, [r0], -r9
    2fc4:	1a01e605 	bne	7c7e0 <_Min_Stack_Size+0x7c3e0>
    2fc8:	05000079 	streq	r0, [r0, #-121]	; 0xffffff87
    2fcc:	831d01e7 	tsthi	sp, #-1073741767	; 0xc0000039
    2fd0:	e8050000 	stmda	r5, {}	; <UNPREDICTABLE>
    2fd4:	007b2901 	rsbseq	r2, fp, r1, lsl #18
    2fd8:	01f60500 	mvnseq	r0, r0, lsl #10
    2fdc:	00007349 	andeq	r7, r0, r9, asr #6
    2fe0:	0901f705 	stmdbeq	r1, {r0, r2, r8, r9, sl, ip, sp, lr, pc}
    2fe4:	05000077 	streq	r0, [r0, #-119]	; 0xffffff89
    2fe8:	793901f8 	ldmdbvc	r9!, {r3, r4, r5, r6, r7, r8}
    2fec:	86050000 	strhi	r0, [r5], -r0
    2ff0:	0075b802 	rsbseq	fp, r5, r2, lsl #16
    2ff4:	02870500 	addeq	r0, r7, #0, 10
    2ff8:	000078a1 	andeq	r7, r0, r1, lsr #17
    2ffc:	16028805 	strne	r8, [r2], -r5, lsl #16
    3000:	05000096 	streq	r0, [r0, #-150]	; 0xffffff6a
    3004:	93d50296 	bicsls	r0, r5, #1610612745	; 0x60000009
    3008:	97050000 	strls	r0, [r5, -r0]
    300c:	0085f902 	addeq	pc, r5, r2, lsl #18
    3010:	02980500 	addseq	r0, r8, #0, 10
    3014:	0000861d 	andeq	r8, r0, sp, lsl r6
    3018:	5202a605 	andpl	sl, r2, #5242880	; 0x500000
    301c:	05000081 	streq	r0, [r0, #-129]	; 0xffffff7f
    3020:	97d202a7 	ldrbls	r0, [r2, r7, lsr #5]
    3024:	a8050000 	stmdage	r5, {}	; <UNPREDICTABLE>
    3028:	008f6a02 	addeq	r6, pc, r2, lsl #20
    302c:	02b60500 	adcseq	r0, r6, #0, 10
    3030:	0000710e 	andeq	r7, r0, lr, lsl #2
    3034:	3202b705 	andcc	fp, r2, #1310720	; 0x140000
    3038:	05000098 	streq	r0, [r0, #-152]	; 0xffffff68
    303c:	7df102b8 	lfmvc	f0, 2, [r1, #736]!	; 0x2e0
    3040:	c6050000 	strgt	r0, [r5], -r0
    3044:	007bba02 	rsbseq	fp, fp, r2, lsl #20
    3048:	02c70500 	sbceq	r0, r7, #0, 10
    304c:	000076a8 	andeq	r7, r0, r8, lsr #13
    3050:	3402cf05 	strcc	ip, [r2], #-3845	; 0xfffff0fb
    3054:	05000081 	streq	r0, [r0, #-129]	; 0xffffff7f
    3058:	8be802d7 	blhi	ffa03bbc <_estack+0xdf9e3bbc>
    305c:	dd050000 	stcle	0, cr0, [r5, #-0]
    3060:	00935402 	addseq	r5, r3, r2, lsl #8
    3064:	02de0500 	sbcseq	r0, lr, #0, 10
    3068:	00008929 	andeq	r8, r0, r9, lsr #18
    306c:	f302e205 	vhsub.u8	d14, d2, d5
    3070:	0500006f 	streq	r0, [r0, #-111]	; 0xffffff91
    3074:	73b002e6 	movsvc	r0, #1610612750	; 0x6000000e
    3078:	eb050000 	bl	143080 <_Min_Stack_Size+0x142c80>
    307c:	0076de02 	rsbseq	sp, r6, r2, lsl #28
    3080:	02f60500 	rscseq	r0, r6, #0, 10
    3084:	00008d4c 	andeq	r8, r0, ip, asr #26
    3088:	71038005 	tstvc	r3, r5
    308c:	05000083 	streq	r0, [r0, #-131]	; 0xffffff7d
    3090:	7f1a0385 	svcvc	0x001a0385
    3094:	8c050000 	stchi	0, cr0, [r5], {-0}
    3098:	0080a203 	addeq	sl, r0, r3, lsl #4
    309c:	038d0500 	orreq	r0, sp, #0, 10
    30a0:	00007ada 	ldrdeq	r7, [r0], -sl
    30a4:	81039805 	tsthi	r3, r5, lsl #16
    30a8:	05000071 	streq	r0, [r0, #-113]	; 0xffffff8f
    30ac:	7ecf0399 	mcrvc	3, 6, r0, cr15, cr9, {4}
    30b0:	a4050000 	strge	r0, [r5], #-0
    30b4:	008fc103 	addeq	ip, pc, r3, lsl #2
    30b8:	03a50500 			; <UNDEFINED> instruction: 0x03a50500
    30bc:	000092fd 	strdeq	r9, [r0], -sp
    30c0:	6e03b105 	mvfvss	f3, f5
    30c4:	0500007f 	streq	r0, [r0, #-127]	; 0xffffff81
    30c8:	91f303b2 	ldrhls	r0, [r3, #50]!	; 0x32
    30cc:	c1050000 	mrsgt	r0, (UNDEF: 5)
    30d0:	008fa703 	addeq	sl, pc, r3, lsl #14
    30d4:	03c20500 	biceq	r0, r2, #0, 10
    30d8:	0000869a 	muleq	r0, sl, r6
    30dc:	00000500 	andeq	r0, r0, r0, lsl #10
    30e0:	95b91f05 	ldrls	r1, [r9, #3845]!	; 0xf05
    30e4:	21050000 	mrscs	r0, (UNDEF: 5)
    30e8:	0000907d 	andeq	r9, r0, sp, ror r0
    30ec:	95732405 	ldrbls	r2, [r3, #-1029]!	; 0xfffffbfb
    30f0:	3f050000 	svccc	0x00050000
    30f4:	00008013 	andeq	r8, r0, r3, lsl r0
    30f8:	6fe84005 	svcvs	0x00e84005
    30fc:	41050000 	mrsmi	r0, (UNDEF: 5)
    3100:	00008008 	andeq	r8, r0, r8
    3104:	88074205 	stmdahi	r7, {r0, r2, r9, lr}
    3108:	43050000 	movwmi	r0, #20480	; 0x5000
    310c:	00009109 	andeq	r9, r0, r9, lsl #2
    3110:	8c007605 	stchi	6, cr7, [r0], {5}
    3114:	89050000 	stmdbhi	r5, {}	; <UNPREDICTABLE>
    3118:	00916b01 	addseq	r6, r1, r1, lsl #22
    311c:	018c0500 	orreq	r0, ip, r0, lsl #10
    3120:	000080c8 	andeq	r8, r0, r8, asr #1
    3124:	89019205 	stmdbhi	r1, {r0, r2, r9, ip, pc}
    3128:	05000083 	streq	r0, [r0, #-131]	; 0xffffff7d
    312c:	98560193 	ldmdals	r6, {r0, r1, r4, r7, r8}^
    3130:	a1050000 	mrsge	r0, (UNDEF: 5)
    3134:	0088af01 	addeq	sl, r8, r1, lsl #30
    3138:	01a20500 			; <UNDEFINED> instruction: 0x01a20500
    313c:	000075f6 	strdeq	r7, [r0], -r6
    3140:	6201a305 	andvs	sl, r1, #335544320	; 0x14000000
    3144:	0500008a 	streq	r0, [r0, #-138]	; 0xffffff76
    3148:	90c201c6 	sbcls	r0, r2, r6, asr #3
    314c:	c7050000 	strgt	r0, [r5, -r0]
    3150:	00723001 	rsbseq	r3, r2, r1
    3154:	01c80500 	biceq	r0, r8, r0, lsl #10
    3158:	000082fa 	strdeq	r8, [r0], -sl
    315c:	7701c905 	strvc	ip, [r1, -r5, lsl #18]
    3160:	0500006f 	streq	r0, [r0, #-111]	; 0xffffff91
    3164:	783c01ca 	ldmdavc	ip!, {r1, r3, r6, r7, r8}
    3168:	f8050000 			; <UNDEFINED> instruction: 0xf8050000
    316c:	00709d01 	rsbseq	r9, r0, r1, lsl #26
    3170:	02a50500 	adceq	r0, r5, #0, 10
    3174:	000096e3 	andeq	r9, r0, r3, ror #13
    3178:	d502a605 	strle	sl, [r2, #-1541]	; 0xfffff9fb
    317c:	05000085 	streq	r0, [r0, #-133]	; 0xffffff7b
    3180:	8caf02a7 	sfmhi	f0, 4, [pc], #668	; 3424 <_Min_Stack_Size+0x3024>
    3184:	a8050000 	stmdage	r5, {}	; <UNPREDICTABLE>
    3188:	006cca02 	rsbeq	ip, ip, r2, lsl #20
    318c:	02a90500 	adceq	r0, r9, #0, 10
    3190:	00008a37 	andeq	r8, r0, r7, lsr sl
    3194:	af02aa05 	svcge	0x0002aa05
    3198:	0500006f 	streq	r0, [r0, #-111]	; 0xffffff91
    319c:	967502ab 	ldrbtls	r0, [r5], -fp, lsr #5
    31a0:	ac050000 	stcge	0, cr0, [r5], {-0}
    31a4:	00787202 	rsbseq	r7, r8, r2, lsl #4
    31a8:	02ad0500 	adceq	r0, sp, #0, 10
    31ac:	00008814 	andeq	r8, r0, r4, lsl r8
    31b0:	1402ae05 	strne	sl, [r2], #-3589	; 0xfffff1fb
    31b4:	0500007c 	streq	r0, [r0, #-124]	; 0xffffff84
    31b8:	6f5302af 	svcvs	0x005302af
    31bc:	b0050000 	andlt	r0, r5, r0
    31c0:	0083ab02 	addeq	sl, r3, r2, lsl #22
    31c4:	02b10500 	adcseq	r0, r1, #0, 10
    31c8:	00008c22 	andeq	r8, r0, r2, lsr #24
    31cc:	8402b205 	strhi	fp, [r2], #-517	; 0xfffffdfb
    31d0:	05000074 	streq	r0, [r0, #-116]	; 0xffffff8c
    31d4:	987202b3 	ldmdals	r2!, {r0, r1, r4, r5, r7, r9}^
    31d8:	b4050000 	strlt	r0, [r5], #-0
    31dc:	00762a02 	rsbseq	r2, r6, r2, lsl #20
    31e0:	02df0500 	sbcseq	r0, pc, #0, 10
    31e4:	00007c42 	andeq	r7, r0, r2, asr #24
    31e8:	b602e005 	strlt	lr, [r2], -r5
    31ec:	05000082 	streq	r0, [r0, #-130]	; 0xffffff7e
    31f0:	891e02e1 	ldmdbhi	lr, {r0, r5, r6, r7, r9}
    31f4:	e2050000 	and	r0, r5, #0
    31f8:	008bbe02 	addeq	fp, fp, r2, lsl #28
    31fc:	02e30500 	rsceq	r0, r3, #0, 10
    3200:	000095e4 	andeq	r9, r0, r4, ror #11
    3204:	b802e405 	stmdalt	r2, {r0, r2, sl, sp, lr, pc}
    3208:	05000077 	streq	r0, [r0, #-119]	; 0xffffff89
    320c:	710302e5 	smlattvc	r3, r5, r2, r0
    3210:	e6050000 	str	r0, [r5], -r0
    3214:	008a9302 	addeq	r9, sl, r2, lsl #6
    3218:	02e70500 	rsceq	r0, r7, #0, 10
    321c:	00009413 	andeq	r9, r0, r3, lsl r4
    3220:	9002e805 	andls	lr, r2, r5, lsl #16
    3224:	0500008f 	streq	r0, [r0, #-143]	; 0xffffff71
    3228:	899502e9 	ldmibhi	r5, {r0, r3, r5, r6, r7, r9}
    322c:	ea050000 	b	143234 <_Min_Stack_Size+0x142e34>
    3230:	007b7802 	rsbseq	r7, fp, r2, lsl #16
    3234:	02eb0500 	rsceq	r0, fp, #0, 10
    3238:	0000773b 	andeq	r7, r0, fp, lsr r7
    323c:	4902ec05 	stmdbmi	r2, {r0, r2, sl, fp, sp, lr, pc}
    3240:	05000093 	streq	r0, [r0, #-147]	; 0xffffff6d
    3244:	7b8302ed 	blvc	fe0c3e00 <_estack+0xde0a3e00>
    3248:	ee050000 	cdp	0, 0, cr0, cr5, cr0, {0}
    324c:	0082d502 	addeq	sp, r2, r2, lsl #10
    3250:	02ef0500 	rsceq	r0, pc, #0, 10
    3254:	00007b00 	andeq	r7, r0, r0, lsl #22
    3258:	fa02f005 	blx	bf274 <_Min_Stack_Size+0xbee74>
    325c:	05000086 	streq	r0, [r0, #-134]	; 0xffffff7a
    3260:	856d02f1 	strbhi	r0, [sp, #-753]!	; 0xfffffd0f
    3264:	05000000 	streq	r0, [r0, #-0]
    3268:	12050000 	andne	r0, r5, #0
    326c:	00006dfe 	strdeq	r6, [r0], -lr
    3270:	757b1305 	ldrbvc	r1, [fp, #-773]!	; 0xfffffcfb
    3274:	14050000 	strne	r0, [r5], #-0
    3278:	00008ecd 	andeq	r8, r0, sp, asr #29
    327c:	00000500 	andeq	r0, r0, r0, lsl #10
    3280:	8d042805 	stchi	8, cr2, [r4, #-20]	; 0xffffffec
    3284:	38050000 	stmdacc	r5, {}	; <UNPREDICTABLE>
    3288:	00008b25 	andeq	r8, r0, r5, lsr #22
    328c:	83983905 	orrshi	r3, r8, #81920	; 0x14000
    3290:	3a050000 	bcc	143298 <_Min_Stack_Size+0x142e98>
    3294:	00006dee 	andeq	r6, r0, lr, ror #27
    3298:	88a53b05 	stmiahi	r5!, {r0, r2, r8, r9, fp, ip, sp}
    329c:	3c050000 	stccc	0, cr0, [r5], {-0}
    32a0:	000090f1 	strdeq	r9, [r0], -r1
    32a4:	8cc63d05 	stclhi	13, cr3, [r6], {5}
    32a8:	3e050000 	cdpcc	0, 0, cr0, cr5, cr0, {0}
    32ac:	0000740b 	andeq	r7, r0, fp, lsl #8
    32b0:	94018405 	strls	r8, [r1], #-1029	; 0xfffffbfb
    32b4:	05000094 	streq	r0, [r0, #-148]	; 0xffffff6c
    32b8:	6d590185 	ldfvse	f0, [r9, #-532]	; 0xfffffdec
    32bc:	86050000 	strhi	r0, [r5], -r0
    32c0:	00703001 	rsbseq	r3, r0, r1
    32c4:	018b0500 	orreq	r0, fp, r0, lsl #10
    32c8:	00007d00 	andeq	r7, r0, r0, lsl #26
    32cc:	43018c05 	movwmi	r8, #7173	; 0x1c05
    32d0:	05000086 	streq	r0, [r0, #-134]	; 0xffffff7a
    32d4:	79d6018d 	ldmibvc	r6, {r0, r2, r3, r7, r8}^
    32d8:	8e050000 	cdphi	0, 0, cr0, cr5, cr0, {0}
    32dc:	0085de01 	addeq	sp, r5, r1, lsl #28
    32e0:	018f0500 	orreq	r0, pc, r0, lsl #10
    32e4:	000096ec 	andeq	r9, r0, ip, ror #13
    32e8:	ba019005 	blt	67304 <_Min_Stack_Size+0x66f04>
    32ec:	05000070 	streq	r0, [r0, #-112]	; 0xffffff90
    32f0:	799e02d9 	ldmibvc	lr, {r0, r3, r4, r6, r7, r9}
    32f4:	da050000 	ble	1432fc <_Min_Stack_Size+0x142efc>
    32f8:	00895002 	addeq	r5, r9, r2
    32fc:	02db0500 	sbcseq	r0, fp, #0, 10
    3300:	00009244 	andeq	r9, r0, r4, asr #4
    3304:	c102e005 	tstgt	r2, r5
    3308:	0500008d 	streq	r0, [r0, #-141]	; 0xffffff73
    330c:	81c202e9 	bichi	r0, r2, r9, ror #5
    3310:	f5050000 			; <UNDEFINED> instruction: 0xf5050000
    3314:	006d8902 	rsbeq	r8, sp, r2, lsl #18
    3318:	02f60500 	rscseq	r0, r6, #0, 10
    331c:	00008ee9 	andeq	r8, r0, r9, ror #29
    3320:	2c02f705 	stccs	7, cr15, [r2], {5}
    3324:	0500008c 	streq	r0, [r0, #-140]	; 0xffffff74
    3328:	6e4902fb 	mcrvs	2, 2, r0, cr9, cr11, {7}
    332c:	84050000 	strhi	r0, [r5], #-0
    3330:	00849303 	addeq	r9, r4, r3, lsl #6
    3334:	03940500 	orrseq	r0, r4, #0, 10
    3338:	00007e17 	andeq	r7, r0, r7, lsl lr
    333c:	f6039505 			; <UNDEFINED> instruction: 0xf6039505
    3340:	05000087 	streq	r0, [r0, #-135]	; 0xffffff79
    3344:	775a0396 			; <UNDEFINED> instruction: 0x775a0396
    3348:	05000000 	streq	r0, [r0, #-0]
    334c:	0e190200 	cdpeq	2, 1, cr0, cr9, cr0, {0}
    3350:	00030000 	andeq	r0, r3, r0
    3354:	a6000501 	strge	r0, [r0], -r1, lsl #10
    3358:	05000060 	streq	r0, [r0, #-96]	; 0xffffffa0
    335c:	00290d00 	eoreq	r0, r9, r0, lsl #26
    3360:	94000500 	strls	r0, [r0], #-1280	; 0xfffffb00
    3364:	05000040 	streq	r0, [r0, #-64]	; 0xffffffc0
    3368:	00185300 	andseq	r5, r8, r0, lsl #6
    336c:	63000500 	movwvs	r0, #1280	; 0x500
    3370:	05000009 	streq	r0, [r0, #-9]
    3374:	00332700 	eorseq	r2, r3, r0, lsl #14
    3378:	7e000500 	cfsh32vc	mvfx0, mvfx0, #0
    337c:	05000054 	streq	r0, [r0, #-84]	; 0xffffffac
    3380:	00161400 	andseq	r1, r6, r0, lsl #8
    3384:	02000500 	andeq	r0, r0, #0, 10
    3388:	05000018 	streq	r0, [r0, #-24]	; 0xffffffe8
    338c:	005ab700 	subseq	fp, sl, r0, lsl #14
    3390:	29000500 	stmdbcs	r0, {r8, sl}
    3394:	05000019 	streq	r0, [r0, #-25]	; 0xffffffe7
    3398:	00298800 	eoreq	r8, r9, r0, lsl #16
    339c:	ad000500 	cfstr32ge	mvfx0, [r0, #-0]
    33a0:	05000030 	streq	r0, [r0, #-48]	; 0xffffffd0
    33a4:	006ad900 	rsbeq	sp, sl, r0, lsl #18
    33a8:	71000500 	tstvc	r0, r0, lsl #10
    33ac:	0500002a 	streq	r0, [r0, #-42]	; 0xffffffd6
    33b0:	004e9c00 	subeq	r9, lr, r0, lsl #24
    33b4:	85000500 	strhi	r0, [r0, #-1280]	; 0xfffffb00
    33b8:	05000048 	streq	r0, [r0, #-72]	; 0xffffffb8
    33bc:	0017b700 	andseq	fp, r7, r0, lsl #14
    33c0:	97000500 	strls	r0, [r0, -r0, lsl #10]
    33c4:	05000004 	streq	r0, [r0, #-4]
    33c8:	004f4a00 	subeq	r4, pc, r0, lsl #20
    33cc:	65000500 	strvs	r0, [r0, #-1280]	; 0xfffffb00
    33d0:	05000018 	streq	r0, [r0, #-24]	; 0xffffffe8
    33d4:	0013b400 	andseq	fp, r3, r0, lsl #8
    33d8:	2b000500 	blcs	47e0 <_Min_Stack_Size+0x43e0>
    33dc:	0500001c 	streq	r0, [r0, #-28]	; 0xffffffe4
    33e0:	0057cf00 	subseq	ip, r7, r0, lsl #30
    33e4:	fb000500 	blx	47ee <_Min_Stack_Size+0x43ee>
    33e8:	05000037 	streq	r0, [r0, #-55]	; 0xffffffc9
    33ec:	00465a00 	subeq	r5, r6, r0, lsl #20
    33f0:	e5000500 	str	r0, [r0, #-1280]	; 0xfffffb00
    33f4:	0500004b 	streq	r0, [r0, #-75]	; 0xffffffb5
    33f8:	000c4500 	andeq	r4, ip, r0, lsl #10
    33fc:	bf000500 	svclt	0x00000500
    3400:	05000005 	streq	r0, [r0, #-5]
    3404:	003ce600 	eorseq	lr, ip, r0, lsl #12
    3408:	9f000500 	svcls	0x00000500
    340c:	05000042 	streq	r0, [r0, #-66]	; 0xffffffbe
    3410:	00116700 	andseq	r6, r1, r0, lsl #14
    3414:	62000500 	andvs	r0, r0, #0, 10
    3418:	05000014 	streq	r0, [r0, #-20]	; 0xffffffec
    341c:	00124b00 	andseq	r4, r2, r0, lsl #22
    3420:	d9000500 	stmdble	r0, {r8, sl}
    3424:	05000005 	streq	r0, [r0, #-5]
    3428:	004cf300 	subeq	pc, ip, r0, lsl #6
    342c:	60000500 	andvs	r0, r0, r0, lsl #10
    3430:	0500001c 	streq	r0, [r0, #-28]	; 0xffffffe4
    3434:	00416c00 	subeq	r6, r1, r0, lsl #24
    3438:	fa000500 	blx	4840 <_Min_Stack_Size+0x4440>
    343c:	05000054 	streq	r0, [r0, #-84]	; 0xffffffac
    3440:	00540c00 	subseq	r0, r4, r0, lsl #24
    3444:	13000500 	movwne	r0, #1280	; 0x500
    3448:	0500004e 	streq	r0, [r0, #-78]	; 0xffffffb2
    344c:	00129900 	andseq	r9, r2, r0, lsl #18
    3450:	97000500 	strls	r0, [r0, -r0, lsl #10]
    3454:	0500003d 	streq	r0, [r0, #-61]	; 0xffffffc3
    3458:	00060900 	andeq	r0, r6, r0, lsl #18
    345c:	11000500 	tstne	r0, r0, lsl #10
    3460:	05000008 	streq	r0, [r0, #-8]
    3464:	00509400 	subseq	r9, r0, r0, lsl #8
    3468:	cb000500 	blgt	4870 <_Min_Stack_Size+0x4470>
    346c:	05000037 	streq	r0, [r0, #-55]	; 0xffffffc9
    3470:	00245900 	eoreq	r5, r4, r0, lsl #18
    3474:	56000500 	strpl	r0, [r0], -r0, lsl #10
    3478:	0500002c 	streq	r0, [r0, #-44]	; 0xffffffd4
    347c:	0062a700 	rsbeq	sl, r2, r0, lsl #14
    3480:	18000500 	stmdane	r0, {r8, sl}
    3484:	05000058 	streq	r0, [r0, #-88]	; 0xffffffa8
    3488:	00117c00 	andseq	r7, r1, r0, lsl #24
    348c:	86000500 	strhi	r0, [r0], -r0, lsl #10
    3490:	05000066 	streq	r0, [r0, #-102]	; 0xffffff9a
    3494:	004b0600 	subeq	r0, fp, r0, lsl #12
    3498:	8e000500 	cfsh32hi	mvfx0, mvfx0, #0
    349c:	0500006c 	streq	r0, [r0, #-108]	; 0xffffff94
    34a0:	00432100 	subeq	r2, r3, r0, lsl #2
    34a4:	c2000500 	andgt	r0, r0, #0, 10
    34a8:	0500004d 	streq	r0, [r0, #-77]	; 0xffffffb3
    34ac:	00549d00 	subseq	r9, r4, r0, lsl #26
    34b0:	d0000500 	andle	r0, r0, r0, lsl #10
    34b4:	0500002f 	streq	r0, [r0, #-47]	; 0xffffffd1
    34b8:	0010d500 	andseq	sp, r0, r0, lsl #10
    34bc:	66000500 	strvs	r0, [r0], -r0, lsl #10
    34c0:	0500004d 	streq	r0, [r0, #-77]	; 0xffffffb3
    34c4:	003f4c00 	eorseq	r4, pc, r0, lsl #24
    34c8:	a2000500 	andge	r0, r0, #0, 10
    34cc:	05000009 	streq	r0, [r0, #-9]
    34d0:	002d7a00 	eoreq	r7, sp, r0, lsl #20
    34d4:	c3000500 	movwgt	r0, #1280	; 0x500
    34d8:	05000064 	streq	r0, [r0, #-100]	; 0xffffff9c
    34dc:	00182000 	andseq	r2, r8, r0
    34e0:	4a000500 	bmi	48e8 <_Min_Stack_Size+0x44e8>
    34e4:	0500001d 	streq	r0, [r0, #-29]	; 0xffffffe3
    34e8:	0056d000 	subseq	sp, r6, r0
    34ec:	e4000500 	str	r0, [r0], #-1280	; 0xfffffb00
    34f0:	05000056 	streq	r0, [r0, #-86]	; 0xffffffaa
    34f4:	00219700 	eoreq	r9, r1, r0, lsl #14
    34f8:	6a000500 	bvs	4900 <_Min_Stack_Size+0x4500>
    34fc:	05000040 	streq	r0, [r0, #-64]	; 0xffffffc0
    3500:	001ad500 	andseq	sp, sl, r0, lsl #10
    3504:	77000500 	strvc	r0, [r0, -r0, lsl #10]
    3508:	0500006c 	streq	r0, [r0, #-108]	; 0xffffff94
    350c:	0058c300 	subseq	ip, r8, r0, lsl #6
    3510:	56000500 	strpl	r0, [r0], -r0, lsl #10
    3514:	05000047 	streq	r0, [r0, #-71]	; 0xffffffb9
    3518:	00040b00 	andeq	r0, r4, r0, lsl #22
    351c:	60000500 	andvs	r0, r0, r0, lsl #10
    3520:	05000034 	streq	r0, [r0, #-52]	; 0xffffffcc
    3524:	00660a00 	rsbeq	r0, r6, r0, lsl #20
    3528:	3b000500 	blcc	4930 <_Min_Stack_Size+0x4530>
    352c:	05000002 	streq	r0, [r0, #-2]
    3530:	0001f100 	andeq	pc, r1, r0, lsl #2
    3534:	4a000500 	bmi	493c <_Min_Stack_Size+0x453c>
    3538:	05000068 	streq	r0, [r0, #-104]	; 0xffffff98
    353c:	002d1300 	eoreq	r1, sp, r0, lsl #6
    3540:	5e000500 	cfsh32pl	mvfx0, mvfx0, #0
    3544:	05000043 	streq	r0, [r0, #-67]	; 0xffffffbd
    3548:	004b7900 	subeq	r7, fp, r0, lsl #18
    354c:	6c000500 	cfstr32vs	mvfx0, [r0], {-0}
    3550:	05000033 	streq	r0, [r0, #-51]	; 0xffffffcd
    3554:	0035d700 	eorseq	sp, r5, r0, lsl #14
    3558:	a8000500 	stmdage	r0, {r8, sl}
    355c:	05000069 	streq	r0, [r0, #-105]	; 0xffffff97
    3560:	00634200 	rsbeq	r4, r3, r0, lsl #4
    3564:	f0000500 			; <UNDEFINED> instruction: 0xf0000500
    3568:	0500000c 	streq	r0, [r0, #-12]
    356c:	0010c300 	andseq	ip, r0, r0, lsl #6
    3570:	4b000500 	blmi	4978 <_Min_Stack_Size+0x4578>
    3574:	05000002 	streq	r0, [r0, #-2]
    3578:	00022500 	andeq	r2, r2, r0, lsl #10
    357c:	16000500 	strne	r0, [r0], -r0, lsl #10
    3580:	0500006c 	streq	r0, [r0, #-108]	; 0xffffff94
    3584:	00114f00 	andseq	r4, r1, r0, lsl #30
    3588:	46000500 	strmi	r0, [r0], -r0, lsl #10
    358c:	05000005 	streq	r0, [r0, #-5]
    3590:	005b3800 	subseq	r3, fp, r0, lsl #16
    3594:	d7000500 	strle	r0, [r0, -r0, lsl #10]
    3598:	05000025 	streq	r0, [r0, #-37]	; 0xffffffdb
    359c:	005e4a00 	subseq	r4, lr, r0, lsl #20
    35a0:	d2000500 	andle	r0, r0, #0, 10
    35a4:	0500002a 	streq	r0, [r0, #-42]	; 0xffffffd6
    35a8:	005cd900 	subseq	sp, ip, r0, lsl #18
    35ac:	ca000500 	bgt	49b4 <_Min_Stack_Size+0x45b4>
    35b0:	0500002d 	streq	r0, [r0, #-45]	; 0xffffffd3
    35b4:	00325300 	eorseq	r5, r2, r0, lsl #6
    35b8:	23000500 	movwcs	r0, #1280	; 0x500
    35bc:	0500001f 	streq	r0, [r0, #-31]	; 0xffffffe1
    35c0:	001a5800 	andseq	r5, sl, r0, lsl #16
    35c4:	e2000500 	and	r0, r0, #0, 10
    35c8:	05000028 	streq	r0, [r0, #-40]	; 0xffffffd8
    35cc:	00288800 	eoreq	r8, r8, r0, lsl #16
    35d0:	26000500 	strcs	r0, [r0], -r0, lsl #10
    35d4:	05000029 	streq	r0, [r0, #-41]	; 0xffffffd7
    35d8:	00486500 	subeq	r6, r8, r0, lsl #10
    35dc:	23000500 	movwcs	r0, #1280	; 0x500
    35e0:	05000066 	streq	r0, [r0, #-102]	; 0xffffff9a
    35e4:	0021ae00 	eoreq	sl, r1, r0, lsl #28
    35e8:	bb000500 	bllt	49f0 <_Min_Stack_Size+0x45f0>
    35ec:	05000069 	streq	r0, [r0, #-105]	; 0xffffff97
    35f0:	00269600 	eoreq	r9, r6, r0, lsl #12
    35f4:	10000500 	andne	r0, r0, r0, lsl #10
    35f8:	05000015 	streq	r0, [r0, #-21]	; 0xffffffeb
    35fc:	000c2100 	andeq	r2, ip, r0, lsl #2
    3600:	c8000500 	stmdagt	r0, {r8, sl}
    3604:	05000013 	streq	r0, [r0, #-19]	; 0xffffffed
    3608:	002e9300 	eoreq	r9, lr, r0, lsl #6
    360c:	3f000500 	svccc	0x00000500
    3610:	05000058 	streq	r0, [r0, #-88]	; 0xffffffa8
    3614:	002a8400 	eoreq	r8, sl, r0, lsl #8
    3618:	ad000500 	cfstr32ge	mvfx0, [r0, #-0]
    361c:	0500000c 	streq	r0, [r0, #-12]
    3620:	00080200 	andeq	r0, r8, r0, lsl #4
    3624:	47000500 	strmi	r0, [r0, -r0, lsl #10]
    3628:	05000009 	streq	r0, [r0, #-9]
    362c:	00597700 	subseq	r7, r9, r0, lsl #14
    3630:	f0000500 			; <UNDEFINED> instruction: 0xf0000500
    3634:	05000029 	streq	r0, [r0, #-41]	; 0xffffffd7
    3638:	0022eb00 	eoreq	lr, r2, r0, lsl #22
    363c:	24000500 	strcs	r0, [r0], #-1280	; 0xfffffb00
    3640:	0500004b 	streq	r0, [r0, #-75]	; 0xffffffb5
    3644:	002fb900 	eoreq	fp, pc, r0, lsl #18
    3648:	41000500 	tstmi	r0, r0, lsl #10
    364c:	05000061 	streq	r0, [r0, #-97]	; 0xffffff9f
    3650:	00407d00 	subeq	r7, r0, r0, lsl #26
    3654:	0d000500 	cfstr32eq	mvfx0, [r0, #-0]
    3658:	0500004f 	streq	r0, [r0, #-79]	; 0xffffffb1
    365c:	000da700 	andeq	sl, sp, r0, lsl #14
    3660:	0b000500 	bleq	4a68 <_Min_Stack_Size+0x4668>
    3664:	05000019 	streq	r0, [r0, #-25]	; 0xffffffe7
    3668:	00620800 	rsbeq	r0, r2, r0, lsl #16
    366c:	ee000500 	cfsh32	mvfx0, mvfx0, #0
    3670:	0500000f 	streq	r0, [r0, #-15]
    3674:	000b9300 	andeq	r9, fp, r0, lsl #6
    3678:	48000500 	stmdami	r0, {r8, sl}
    367c:	0500000d 	streq	r0, [r0, #-13]
    3680:	000e0e00 	andeq	r0, lr, r0, lsl #28
    3684:	1b000500 	blne	4a8c <_Min_Stack_Size+0x468c>
    3688:	05000013 	streq	r0, [r0, #-19]	; 0xffffffed
    368c:	0035ee00 	eorseq	lr, r5, r0, lsl #28
    3690:	ed000500 	cfstr32	mvfx0, [r0, #-0]
    3694:	0500000d 	streq	r0, [r0, #-13]
    3698:	00362f00 	eorseq	r2, r6, r0, lsl #30
    369c:	91000500 	tstls	r0, r0, lsl #10
    36a0:	0500000a 	streq	r0, [r0, #-10]
    36a4:	00419700 	subeq	r9, r1, r0, lsl #14
    36a8:	ea000500 	b	4ab0 <_Min_Stack_Size+0x46b0>
    36ac:	0500002b 	streq	r0, [r0, #-43]	; 0xffffffd5
    36b0:	00405400 	subeq	r5, r0, r0, lsl #8
    36b4:	dc000500 	cfstr32le	mvfx0, [r0], {-0}
    36b8:	0500002c 	streq	r0, [r0, #-44]	; 0xffffffd4
    36bc:	0026c300 	eoreq	ip, r6, r0, lsl #6
    36c0:	24000500 	strcs	r0, [r0], #-1280	; 0xfffffb00
    36c4:	05000035 	streq	r0, [r0, #-53]	; 0xffffffcb
    36c8:	0030d800 	eorseq	sp, r0, r0, lsl #16
    36cc:	07000500 	streq	r0, [r0, -r0, lsl #10]
    36d0:	05000040 	streq	r0, [r0, #-64]	; 0xffffffc0
    36d4:	00356d00 	eorseq	r6, r5, r0, lsl #26
    36d8:	73000500 	movwvc	r0, #1280	; 0x500
    36dc:	05000013 	streq	r0, [r0, #-19]	; 0xffffffed
    36e0:	00133b00 	andseq	r3, r3, r0, lsl #22
    36e4:	ca000500 	bgt	4aec <_Min_Stack_Size+0x46ec>
    36e8:	05000018 	streq	r0, [r0, #-24]	; 0xffffffe8
    36ec:	0014d100 	andseq	sp, r4, r0, lsl #2
    36f0:	e8000500 	stmda	r0, {r8, sl}
    36f4:	05000009 	streq	r0, [r0, #-9]
    36f8:	0055fe00 	subseq	pc, r5, r0, lsl #28
    36fc:	ec000500 	cfstr32	mvfx0, [r0], {-0}
    3700:	0500001d 	streq	r0, [r0, #-29]	; 0xffffffe3
    3704:	0023ab00 	eoreq	sl, r3, r0, lsl #22
    3708:	c9000500 	stmdbgt	r0, {r8, sl}
    370c:	05000021 	streq	r0, [r0, #-33]	; 0xffffffdf
    3710:	0005f400 	andeq	pc, r5, r0, lsl #8
    3714:	9d000500 	cfstr32ls	mvfx0, [r0, #-0]
    3718:	0500002a 	streq	r0, [r0, #-42]	; 0xffffffd6
    371c:	00446b00 	subeq	r6, r4, r0, lsl #22
    3720:	28000500 	stmdacs	r0, {r8, sl}
    3724:	05000026 	streq	r0, [r0, #-38]	; 0xffffffda
    3728:	00389d00 	eorseq	r9, r8, r0, lsl #26
    372c:	3c000500 	cfstr32cc	mvfx0, [r0], {-0}
    3730:	0500006c 	streq	r0, [r0, #-108]	; 0xffffff94
    3734:	00573f00 	subseq	r3, r7, r0, lsl #30
    3738:	96000500 	strls	r0, [r0], -r0, lsl #10
    373c:	05000048 	streq	r0, [r0, #-72]	; 0xffffffb8
    3740:	006b1f00 	rsbeq	r1, fp, r0, lsl #30
    3744:	98000500 	stmdals	r0, {r8, sl}
    3748:	05000030 	streq	r0, [r0, #-48]	; 0xffffffd0
    374c:	0004ae00 	andeq	sl, r4, r0, lsl #28
    3750:	6a000500 	bvs	4b58 <_Min_Stack_Size+0x4758>
    3754:	0500005c 	streq	r0, [r0, #-92]	; 0xffffffa4
    3758:	0066b300 	rsbeq	fp, r6, r0, lsl #6
    375c:	42000500 	andmi	r0, r0, #0, 10
    3760:	0500003e 	streq	r0, [r0, #-62]	; 0xffffffc2
    3764:	00103000 	andseq	r3, r0, r0
    3768:	12000500 	andne	r0, r0, #0, 10
    376c:	0500002a 	streq	r0, [r0, #-42]	; 0xffffffd6
    3770:	003ef800 	eorseq	pc, lr, r0, lsl #16
    3774:	b1000500 	tstlt	r0, r0, lsl #10
    3778:	05000020 	streq	r0, [r0, #-32]	; 0xffffffe0
    377c:	005b2100 	subseq	r2, fp, r0, lsl #2
    3780:	45000500 	strmi	r0, [r0, #-1280]	; 0xfffffb00
    3784:	05000056 	streq	r0, [r0, #-86]	; 0xffffffaa
    3788:	001d2500 	andseq	r2, sp, r0, lsl #10
    378c:	ed000500 	cfstr32	mvfx0, [r0, #-0]
    3790:	05000007 	streq	r0, [r0, #-7]
    3794:	00653d00 	rsbeq	r3, r5, r0, lsl #26
    3798:	7a000500 	bvc	4ba0 <_Min_Stack_Size+0x47a0>
    379c:	05000006 	streq	r0, [r0, #-6]
    37a0:	00443200 	subeq	r3, r4, r0, lsl #4
    37a4:	e9000500 	stmdb	r0, {r8, sl}
    37a8:	0500001a 	streq	r0, [r0, #-26]	; 0xffffffe6
    37ac:	00671b00 	rsbeq	r1, r7, r0, lsl #22
    37b0:	20000500 	andcs	r0, r0, r0, lsl #10
    37b4:	05000000 	streq	r0, [r0, #-0]
    37b8:	002ba500 	eoreq	sl, fp, r0, lsl #10
    37bc:	f1000500 			; <UNDEFINED> instruction: 0xf1000500
    37c0:	05000034 	streq	r0, [r0, #-52]	; 0xffffffcc
    37c4:	00461400 	subeq	r1, r6, r0, lsl #8
    37c8:	41000500 	tstmi	r0, r0, lsl #10
    37cc:	05000003 	streq	r0, [r0, #-3]
    37d0:	00300f00 	eorseq	r0, r0, r0, lsl #30
    37d4:	26000500 	strcs	r0, [r0], -r0, lsl #10
    37d8:	05000032 	streq	r0, [r0, #-50]	; 0xffffffce
    37dc:	004a3500 	subeq	r3, sl, r0, lsl #10
    37e0:	48000500 	stmdami	r0, {r8, sl}
    37e4:	05000025 	streq	r0, [r0, #-37]	; 0xffffffdb
    37e8:	00359600 	eorseq	r9, r5, r0, lsl #12
    37ec:	db000500 	blle	4bf4 <_Min_Stack_Size+0x47f4>
    37f0:	0500004c 	streq	r0, [r0, #-76]	; 0xffffffb4
    37f4:	002f2e00 	eoreq	r2, pc, r0, lsl #28
    37f8:	00000500 	andeq	r0, r0, r0, lsl #10
    37fc:	05000049 	streq	r0, [r0, #-73]	; 0xffffffb7
    3800:	000abc00 	andeq	fp, sl, r0, lsl #24
    3804:	96000500 	strls	r0, [r0], -r0, lsl #10
    3808:	05000045 	streq	r0, [r0, #-69]	; 0xffffffbb
    380c:	0011c700 	andseq	ip, r1, r0, lsl #14
    3810:	1a000500 	bne	4c18 <_Min_Stack_Size+0x4818>
    3814:	0500000d 	streq	r0, [r0, #-13]
    3818:	00066200 	andeq	r6, r6, r0, lsl #4
    381c:	17000500 	strne	r0, [r0, -r0, lsl #10]
    3820:	05000057 	streq	r0, [r0, #-87]	; 0xffffffa9
    3824:	006bc200 	rsbeq	ip, fp, r0, lsl #4
    3828:	23000500 	movwcs	r0, #1280	; 0x500
    382c:	05000006 	streq	r0, [r0, #-6]
    3830:	003d0d00 	eorseq	r0, sp, r0, lsl #26
    3834:	52000500 	andpl	r0, r0, #0, 10
    3838:	0500002f 	streq	r0, [r0, #-47]	; 0xffffffd1
    383c:	00615e00 	rsbeq	r5, r1, r0, lsl #28
    3840:	f6000500 			; <UNDEFINED> instruction: 0xf6000500
    3844:	05000066 	streq	r0, [r0, #-102]	; 0xffffff9a
    3848:	0024fd00 	eoreq	pc, r4, r0, lsl #26
    384c:	7e000500 	cfsh32vc	mvfx0, mvfx0, #0
    3850:	0500000a 	streq	r0, [r0, #-10]
    3854:	001e3700 	andseq	r3, lr, r0, lsl #14
    3858:	56000500 	strpl	r0, [r0], -r0, lsl #10
    385c:	0500005b 	streq	r0, [r0, #-91]	; 0xffffffa5
    3860:	0065f900 	rsbeq	pc, r5, r0, lsl #18
    3864:	d6000500 	strle	r0, [r0], -r0, lsl #10
    3868:	0500000c 	streq	r0, [r0, #-12]
    386c:	000b6200 	andeq	r6, fp, r0, lsl #4
    3870:	e0000500 	and	r0, r0, r0, lsl #10
    3874:	05000036 	streq	r0, [r0, #-54]	; 0xffffffca
    3878:	00179e00 	andseq	r9, r7, r0, lsl #28
    387c:	ab000500 	blge	4c84 <_Min_Stack_Size+0x4884>
    3880:	0500000b 	streq	r0, [r0, #-11]
    3884:	00085700 	andeq	r5, r8, r0, lsl #14
    3888:	9a000500 	bls	4c90 <_Min_Stack_Size+0x4890>
    388c:	05000031 	streq	r0, [r0, #-49]	; 0xffffffcf
    3890:	00370200 	eorseq	r0, r7, r0, lsl #4
    3894:	62000500 	andvs	r0, r0, #0, 10
    3898:	0500005e 	streq	r0, [r0, #-94]	; 0xffffffa2
    389c:	00009900 	andeq	r9, r0, r0, lsl #18
    38a0:	f0000500 			; <UNDEFINED> instruction: 0xf0000500
    38a4:	0500003f 	streq	r0, [r0, #-63]	; 0xffffffc1
    38a8:	00011600 	andeq	r1, r1, r0, lsl #12
    38ac:	84000500 	strhi	r0, [r0], #-1280	; 0xfffffb00
    38b0:	0500003f 	streq	r0, [r0, #-63]	; 0xffffffc1
    38b4:	004b6000 	subeq	r6, fp, r0
    38b8:	91000500 	tstls	r0, r0, lsl #10
    38bc:	05000069 	streq	r0, [r0, #-105]	; 0xffffff97
    38c0:	004e4300 	subeq	r4, lr, r0, lsl #6
    38c4:	26000500 	strcs	r0, [r0], -r0, lsl #10
    38c8:	05000003 	streq	r0, [r0, #-3]
    38cc:	00543400 	subseq	r3, r4, r0, lsl #8
    38d0:	d8000500 	stmdale	r0, {r8, sl}
    38d4:	05000029 	streq	r0, [r0, #-41]	; 0xffffffd7
    38d8:	00256f00 	eoreq	r6, r5, r0, lsl #30
    38dc:	16000500 	strne	r0, [r0], -r0, lsl #10
    38e0:	05000010 	streq	r0, [r0, #-16]
    38e4:	0052fd00 	subseq	pc, r2, r0, lsl #26
    38e8:	53000500 	movwpl	r0, #1280	; 0x500
    38ec:	05000045 	streq	r0, [r0, #-69]	; 0xffffffbb
    38f0:	00368800 	eorseq	r8, r6, r0, lsl #16
    38f4:	7a000500 	bvc	4cfc <_Min_Stack_Size+0x48fc>
    38f8:	05000010 	streq	r0, [r0, #-16]
    38fc:	00187800 	andseq	r7, r8, r0, lsl #16
    3900:	c0000500 	andgt	r0, r0, r0, lsl #10
    3904:	05000030 	streq	r0, [r0, #-48]	; 0xffffffd0
    3908:	000edb00 	andeq	sp, lr, r0, lsl #22
    390c:	5f000500 	svcpl	0x00000500
    3910:	05000010 	streq	r0, [r0, #-16]
    3914:	00263900 	eoreq	r3, r6, r0, lsl #18
    3918:	34000500 	strcc	r0, [r0], #-1280	; 0xfffffb00
    391c:	05000005 	streq	r0, [r0, #-5]
    3920:	003cae00 	eorseq	sl, ip, r0, lsl #28
    3924:	78000500 	stmdavc	r0, {r8, sl}
    3928:	0500002b 	streq	r0, [r0, #-43]	; 0xffffffd5
    392c:	00697800 	rsbeq	r7, r9, r0, lsl #16
    3930:	d6000500 	strle	r0, [r0], -r0, lsl #10
    3934:	0500000b 	streq	r0, [r0, #-11]
    3938:	00280800 	eoreq	r0, r8, r0, lsl #16
    393c:	50000500 	andpl	r0, r0, r0, lsl #10
    3940:	0500001e 	streq	r0, [r0, #-30]	; 0xffffffe2
    3944:	001ea300 	andseq	sl, lr, r0, lsl #6
    3948:	47000500 	strmi	r0, [r0, -r0, lsl #10]
    394c:	0500000a 	streq	r0, [r0, #-10]
    3950:	00273d00 	eoreq	r3, r7, r0, lsl #26
    3954:	5f000500 	svcpl	0x00000500
    3958:	05000028 	streq	r0, [r0, #-40]	; 0xffffffd8
    395c:	004b4f00 	subeq	r4, fp, r0, lsl #30
    3960:	e5000500 	str	r0, [r0, #-1280]	; 0xfffffb00
    3964:	05000004 	streq	r0, [r0, #-4]
    3968:	0018f100 	andseq	pc, r8, r0, lsl #2
    396c:	af000500 	svcge	0x00000500
    3970:	0500002d 	streq	r0, [r0, #-45]	; 0xffffffd3
    3974:	003e1f00 	eorseq	r1, lr, r0, lsl #30
    3978:	3f000500 	svccc	0x00000500
    397c:	05000048 	streq	r0, [r0, #-72]	; 0xffffffb8
    3980:	000ec600 	andeq	ip, lr, r0, lsl #12
    3984:	66000500 	strvs	r0, [r0], -r0, lsl #10
    3988:	05000038 	streq	r0, [r0, #-56]	; 0xffffffc8
    398c:	00344300 	eorseq	r4, r4, r0, lsl #6
    3990:	e8000500 	stmda	r0, {r8, sl}
    3994:	05000037 	streq	r0, [r0, #-55]	; 0xffffffc9
    3998:	00487300 	subeq	r7, r8, r0, lsl #6
    399c:	31000500 	tstcc	r0, r0, lsl #10
    39a0:	05000011 	streq	r0, [r0, #-17]	; 0xffffffef
    39a4:	00422400 	subeq	r2, r2, r0, lsl #8
    39a8:	c2000500 	andgt	r0, r0, #0, 10
    39ac:	05000044 	streq	r0, [r0, #-68]	; 0xffffffbc
    39b0:	0026af00 	eoreq	sl, r6, r0, lsl #30
    39b4:	50000500 	andpl	r0, r0, r0, lsl #10
    39b8:	0500006c 	streq	r0, [r0, #-108]	; 0xffffff94
    39bc:	00505100 	subseq	r5, r0, r0, lsl #2
    39c0:	a0000500 	andge	r0, r0, r0, lsl #10
    39c4:	0500004d 	streq	r0, [r0, #-77]	; 0xffffffb3
    39c8:	00574e00 	subseq	r4, r7, r0, lsl #28
    39cc:	e2000500 	and	r0, r0, #0, 10
    39d0:	05000066 	streq	r0, [r0, #-102]	; 0xffffff9a
    39d4:	0063ae00 	rsbeq	sl, r3, r0, lsl #28
    39d8:	cc000500 	cfstr32gt	mvfx0, [r0], {-0}
    39dc:	0500000d 	streq	r0, [r0, #-13]
    39e0:	00568b00 	subseq	r8, r6, r0, lsl #22
    39e4:	59000500 	stmdbpl	r0, {r8, sl}
    39e8:	05000069 	streq	r0, [r0, #-105]	; 0xffffff97
    39ec:	00097500 	andeq	r7, r9, r0, lsl #10
    39f0:	e5000500 	str	r0, [r0, #-1280]	; 0xfffffb00
    39f4:	05000032 	streq	r0, [r0, #-50]	; 0xffffffce
    39f8:	00635400 	rsbeq	r5, r3, r0, lsl #8
    39fc:	f8000500 			; <UNDEFINED> instruction: 0xf8000500
    3a00:	05000011 	streq	r0, [r0, #-17]	; 0xffffffef
    3a04:	005f8400 	subseq	r8, pc, r0, lsl #8
    3a08:	6b000500 	blvs	4e10 <_Min_Stack_Size+0x4a10>
    3a0c:	0500004a 	streq	r0, [r0, #-74]	; 0xffffffb6
    3a10:	004d3800 	subeq	r3, sp, r0, lsl #16
    3a14:	7e000500 	cfsh32vc	mvfx0, mvfx0, #0
    3a18:	0500004d 	streq	r0, [r0, #-77]	; 0xffffffb3
    3a1c:	0056b500 	subseq	fp, r6, r0, lsl #10
    3a20:	35000500 	strcc	r0, [r0, #-1280]	; 0xfffffb00
    3a24:	05000064 	streq	r0, [r0, #-100]	; 0xffffff9c
    3a28:	0024a300 	eoreq	sl, r4, r0, lsl #6
    3a2c:	ca000500 	bgt	4e34 <_Min_Stack_Size+0x4a34>
    3a30:	0500003f 	streq	r0, [r0, #-63]	; 0xffffffc1
    3a34:	00064b00 	andeq	r4, r6, r0, lsl #22
    3a38:	17000500 	strne	r0, [r0, -r0, lsl #10]
    3a3c:	05000005 	streq	r0, [r0, #-5]
    3a40:	00562700 	subseq	r2, r6, r0, lsl #14
    3a44:	68000500 	stmdavs	r0, {r8, sl}
    3a48:	0500000f 	streq	r0, [r0, #-15]
    3a4c:	0058ee00 	subseq	lr, r8, r0, lsl #28
    3a50:	b1000500 	tstlt	r0, r0, lsl #10
    3a54:	0500004a 	streq	r0, [r0, #-74]	; 0xffffffb6
    3a58:	002ab400 	eoreq	fp, sl, r0, lsl #8
    3a5c:	03000500 	movweq	r0, #1280	; 0x500
    3a60:	05000065 	streq	r0, [r0, #-101]	; 0xffffff9b
    3a64:	00339b00 	eorseq	r9, r3, r0, lsl #22
    3a68:	ad000500 	cfstr32ge	mvfx0, [r0, #-0]
    3a6c:	0500000f 	streq	r0, [r0, #-15]
    3a70:	00260400 	eoreq	r0, r6, r0, lsl #8
    3a74:	61000500 	tstvs	r0, r0, lsl #10
    3a78:	05000031 	streq	r0, [r0, #-49]	; 0xffffffcf
    3a7c:	00401500 	subeq	r1, r0, r0, lsl #10
    3a80:	f9000500 			; <UNDEFINED> instruction: 0xf9000500
    3a84:	05000016 	streq	r0, [r0, #-22]	; 0xffffffea
    3a88:	000d8500 	andeq	r8, sp, r0, lsl #10
    3a8c:	1d000500 	cfstr32ne	mvfx0, [r0, #-0]
    3a90:	05000061 	streq	r0, [r0, #-97]	; 0xffffff9f
    3a94:	004deb00 	subeq	lr, sp, r0, lsl #22
    3a98:	d4000500 	strle	r0, [r0], #-1280	; 0xfffffb00
    3a9c:	05000001 	streq	r0, [r0, #-1]
    3aa0:	0003f700 	andeq	pc, r3, r0, lsl #14
    3aa4:	c7000500 	strgt	r0, [r0, -r0, lsl #10]
    3aa8:	0500004c 	streq	r0, [r0, #-76]	; 0xffffffb4
    3aac:	0034b400 	eorseq	fp, r4, r0, lsl #8
    3ab0:	aa000500 	bge	4eb8 <_Min_Stack_Size+0x4ab8>
    3ab4:	0500004f 	streq	r0, [r0, #-79]	; 0xffffffb1
    3ab8:	00651e00 	rsbeq	r1, r5, r0, lsl #28
    3abc:	f8000500 			; <UNDEFINED> instruction: 0xf8000500
    3ac0:	05000053 	streq	r0, [r0, #-83]	; 0xffffffad
    3ac4:	002d9b00 	eoreq	r9, sp, r0, lsl #22
    3ac8:	93000500 	movwls	r0, #1280	; 0x500
    3acc:	05000001 	streq	r0, [r0, #-1]
    3ad0:	00281b00 	eoreq	r1, r8, r0, lsl #22
    3ad4:	f5000500 			; <UNDEFINED> instruction: 0xf5000500
    3ad8:	05000015 	streq	r0, [r0, #-21]	; 0xffffffeb
    3adc:	00687100 	rsbeq	r7, r8, r0, lsl #2
    3ae0:	f8000500 			; <UNDEFINED> instruction: 0xf8000500
    3ae4:	0500005e 	streq	r0, [r0, #-94]	; 0xffffffa2
    3ae8:	0061e000 	rsbeq	lr, r1, r0
    3aec:	9e000500 	cfsh32ls	mvfx0, mvfx0, #0
    3af0:	0500003f 	streq	r0, [r0, #-63]	; 0xffffffc1
    3af4:	00222700 	eoreq	r2, r2, r0, lsl #14
    3af8:	a5000500 	strge	r0, [r0, #-1280]	; 0xfffffb00
    3afc:	05000066 	streq	r0, [r0, #-102]	; 0xffffff9a
    3b00:	00538500 	subseq	r8, r3, r0, lsl #10
    3b04:	0a000500 	beq	4f0c <_Min_Stack_Size+0x4b0c>
    3b08:	05000068 	streq	r0, [r0, #-104]	; 0xffffff98
    3b0c:	006aec00 	rsbeq	lr, sl, r0, lsl #24
    3b10:	5f000500 	svcpl	0x00000500
    3b14:	0500000c 	streq	r0, [r0, #-12]
    3b18:	0005b100 	andeq	fp, r5, r0, lsl #2
    3b1c:	19000500 	stmdbne	r0, {r8, sl}
    3b20:	0500004d 	streq	r0, [r0, #-77]	; 0xffffffb3
    3b24:	00506800 	subseq	r6, r0, r0, lsl #16
    3b28:	c5000500 	strgt	r0, [r0, #-1280]	; 0xfffffb00
    3b2c:	0500001a 	streq	r0, [r0, #-26]	; 0xffffffe6
    3b30:	00030d00 	andeq	r0, r3, r0, lsl #26
    3b34:	53000500 	movwpl	r0, #1280	; 0x500
    3b38:	05000041 	streq	r0, [r0, #-65]	; 0xffffffbf
    3b3c:	00347100 	eorseq	r7, r4, r0, lsl #2
    3b40:	c6000500 	strgt	r0, [r0], -r0, lsl #10
    3b44:	0500000c 	streq	r0, [r0, #-12]
    3b48:	004d5700 	subeq	r5, sp, r0, lsl #14
    3b4c:	35000500 	strcc	r0, [r0, #-1280]	; 0xfffffb00
    3b50:	0500000c 	streq	r0, [r0, #-12]
    3b54:	0047bb00 	subeq	fp, r7, r0, lsl #22
    3b58:	32000500 	andcc	r0, r0, #0, 10
    3b5c:	0500003e 	streq	r0, [r0, #-62]	; 0xffffffc2
    3b60:	00310400 	eorseq	r0, r1, r0, lsl #8
    3b64:	65000500 	strvs	r0, [r0, #-1280]	; 0xfffffb00
    3b68:	0500004e 	streq	r0, [r0, #-78]	; 0xffffffb2
    3b6c:	0052ce00 	subseq	ip, r2, r0, lsl #28
    3b70:	1f000500 	svcne	0x00000500
    3b74:	0500001e 	streq	r0, [r0, #-30]	; 0xffffffe2
    3b78:	00362100 	eorseq	r2, r6, r0, lsl #2
    3b7c:	dd000500 	cfstr32le	mvfx0, [r0, #-0]
    3b80:	05000052 	streq	r0, [r0, #-82]	; 0xffffffae
    3b84:	002b9600 	eoreq	r9, fp, r0, lsl #12
    3b88:	64000500 	strvs	r0, [r0], #-1280	; 0xfffffb00
    3b8c:	05000021 	streq	r0, [r0, #-33]	; 0xffffffdf
    3b90:	0069ca00 	rsbeq	ip, r9, r0, lsl #20
    3b94:	60000500 	andvs	r0, r0, r0, lsl #10
    3b98:	05000025 	streq	r0, [r0, #-37]	; 0xffffffdb
    3b9c:	0046a000 	subeq	sl, r6, r0
    3ba0:	79000500 	stmdbvc	r0, {r8, sl}
    3ba4:	05000000 	streq	r0, [r0, #-0]
    3ba8:	0064e500 	rsbeq	lr, r4, r0, lsl #10
    3bac:	a2000500 	andge	r0, r0, #0, 10
    3bb0:	05000043 	streq	r0, [r0, #-67]	; 0xffffffbd
    3bb4:	001ca800 	andseq	sl, ip, r0, lsl #16
    3bb8:	15000500 	strne	r0, [r0, #-1280]	; 0xfffffb00
    3bbc:	05000011 	streq	r0, [r0, #-17]	; 0xffffffef
    3bc0:	0059ee00 	subseq	lr, r9, r0, lsl #28
    3bc4:	88000500 	stmdahi	r0, {r8, sl}
    3bc8:	05000014 	streq	r0, [r0, #-20]	; 0xffffffec
    3bcc:	005ee800 	subseq	lr, lr, r0, lsl #16
    3bd0:	02000500 	andeq	r0, r0, #0, 10
    3bd4:	05000057 	streq	r0, [r0, #-87]	; 0xffffffa9
    3bd8:	00287100 	eoreq	r7, r8, r0, lsl #2
    3bdc:	a0000500 	andge	r0, r0, r0, lsl #10
    3be0:	05000015 	streq	r0, [r0, #-21]	; 0xffffffeb
    3be4:	005a5d00 	subseq	r5, sl, r0, lsl #26
    3be8:	ea000500 	b	4ff0 <_Min_Stack_Size+0x4bf0>
    3bec:	05000000 	streq	r0, [r0, #-0]
    3bf0:	0008de00 	andeq	sp, r8, r0, lsl #28
    3bf4:	cd000500 	cfstr32gt	mvfx0, [r0, #-0]
    3bf8:	0500001c 	streq	r0, [r0, #-28]	; 0xffffffe4
    3bfc:	004a7d00 	subeq	r7, sl, r0, lsl #26
    3c00:	9c000500 	cfstr32ls	mvfx0, [r0], {-0}
    3c04:	05000011 	streq	r0, [r0, #-17]	; 0xffffffef
    3c08:	005d0000 	subseq	r0, sp, r0
    3c0c:	5b000500 	blpl	5014 <_Min_Stack_Size+0x4c14>
    3c10:	05000030 	streq	r0, [r0, #-48]	; 0xffffffd0
    3c14:	00162a00 	andseq	r2, r6, r0, lsl #20
    3c18:	c9000500 	stmdbgt	r0, {r8, sl}
    3c1c:	05000000 	streq	r0, [r0, #-0]
    3c20:	00247600 	eoreq	r7, r4, r0, lsl #12
    3c24:	18000500 	stmdane	r0, {r8, sl}
    3c28:	05000055 	streq	r0, [r0, #-85]	; 0xffffffab
    3c2c:	00349600 	eorseq	r9, r4, r0, lsl #12
    3c30:	43000500 	movwmi	r0, #1280	; 0x500
    3c34:	05000036 	streq	r0, [r0, #-54]	; 0xffffffca
    3c38:	0024b600 	eoreq	fp, r4, r0, lsl #12
    3c3c:	ba000500 	blt	5044 <_Min_Stack_Size+0x4c44>
    3c40:	05000001 	streq	r0, [r0, #-1]
    3c44:	00636d00 	rsbeq	r6, r3, r0, lsl #26
    3c48:	3e000500 	cfsh32cc	mvfx0, mvfx0, #0
    3c4c:	05000029 	streq	r0, [r0, #-41]	; 0xffffffd7
    3c50:	004a4b00 	subeq	r4, sl, r0, lsl #22
    3c54:	48000500 	stmdami	r0, {r8, sl}
    3c58:	0500002b 	streq	r0, [r0, #-43]	; 0xffffffd5
    3c5c:	001c4400 	andseq	r4, ip, r0, lsl #8
    3c60:	0a000500 	beq	5068 <_Min_Stack_Size+0x4c68>
    3c64:	05000038 	streq	r0, [r0, #-56]	; 0xffffffc8
    3c68:	00607800 	rsbeq	r7, r0, r0, lsl #16
    3c6c:	44000500 	strmi	r0, [r0], #-1280	; 0xfffffb00
    3c70:	05000042 	streq	r0, [r0, #-66]	; 0xffffffbe
    3c74:	00537100 	subseq	r7, r3, r0, lsl #2
    3c78:	5f000500 	svcpl	0x00000500
    3c7c:	05000029 	streq	r0, [r0, #-41]	; 0xffffffd7
    3c80:	00327600 	eorseq	r7, r2, r0, lsl #12
    3c84:	f1000600 			; <UNDEFINED> instruction: 0xf1000600
    3c88:	0600004a 	streq	r0, [r0], -sl, asr #32
    3c8c:	002ffd00 	eoreq	pc, pc, r0, lsl #26
    3c90:	3c000600 	stccc	6, cr0, [r0], {-0}
    3c94:	0500006a 	streq	r0, [r0, #-106]	; 0xffffff96
    3c98:	00608c00 	rsbeq	r8, r0, r0, lsl #24
    3c9c:	22000600 	andcs	r0, r0, #0, 12
    3ca0:	06000047 	streq	r0, [r0], -r7, asr #32
    3ca4:	005f0d00 	subseq	r0, pc, r0, lsl #26
    3ca8:	c9000600 	stmdbgt	r0, {r9, sl}
    3cac:	06000062 	streq	r0, [r0], -r2, rrx
    3cb0:	00299b00 	eoreq	r9, r9, r0, lsl #22
    3cb4:	51000500 	tstpl	r0, r0, lsl #10
    3cb8:	06000048 	streq	r0, [r0], -r8, asr #32
    3cbc:	0038d100 	eorseq	sp, r8, r0, lsl #2
    3cc0:	60000600 	andvs	r0, r0, r0, lsl #12
    3cc4:	0600000e 	streq	r0, [r0], -lr
    3cc8:	00059700 	andeq	r9, r5, r0, lsl #14
    3ccc:	86000600 	strhi	r0, [r0], -r0, lsl #12
    3cd0:	06000057 			; <UNDEFINED> instruction: 0x06000057
    3cd4:	002c0200 	eoreq	r0, ip, r0, lsl #4
    3cd8:	5a000600 	bpl	54e0 <_Min_Stack_Size+0x50e0>
    3cdc:	06000035 			; <UNDEFINED> instruction: 0x06000035
    3ce0:	0040be00 	subeq	fp, r0, r0, lsl #28
    3ce4:	f0000500 			; <UNDEFINED> instruction: 0xf0000500
    3ce8:	05000068 	streq	r0, [r0, #-104]	; 0xffffff98
    3cec:	00297400 	eoreq	r7, r9, r0, lsl #8
    3cf0:	c5000600 	strgt	r0, [r0, #-1536]	; 0xfffffa00
    3cf4:	05000054 	streq	r0, [r0, #-84]	; 0xffffffac
    3cf8:	005d8400 	subseq	r8, sp, r0, lsl #8
    3cfc:	25000500 	strcs	r0, [r0, #-1280]	; 0xfffffb00
    3d00:	05000045 	streq	r0, [r0, #-69]	; 0xffffffbb
    3d04:	0029c100 	eoreq	ip, r9, r0, lsl #2
    3d08:	b8000600 	stmdalt	r0, {r9, sl}
    3d0c:	05000037 	streq	r0, [r0, #-55]	; 0xffffffc9
    3d10:	0016e300 	andseq	lr, r6, r0, lsl #6
    3d14:	83000500 	movwhi	r0, #1280	; 0x500
    3d18:	06000045 	streq	r0, [r0], -r5, asr #32
    3d1c:	00688600 	rsbeq	r8, r8, r0, lsl #12
    3d20:	17000500 	strne	r0, [r0, -r0, lsl #10]
    3d24:	05000035 	streq	r0, [r0, #-53]	; 0xffffffcb
    3d28:	003ea500 	eorseq	sl, lr, r0, lsl #10
    3d2c:	51000500 	tstpl	r0, r0, lsl #10
    3d30:	05000064 	streq	r0, [r0, #-100]	; 0xffffff9c
    3d34:	00670f00 	rsbeq	r0, r7, r0, lsl #30
    3d38:	7b000500 	blvc	5140 <_Min_Stack_Size+0x4d40>
    3d3c:	0500001b 	streq	r0, [r0, #-27]	; 0xffffffe5
    3d40:	00536300 	subseq	r6, r3, r0, lsl #6
    3d44:	ff000600 			; <UNDEFINED> instruction: 0xff000600
    3d48:	05000023 	streq	r0, [r0, #-35]	; 0xffffffdd
    3d4c:	00473600 	subeq	r3, r7, r0, lsl #12
    3d50:	33000500 	movwcc	r0, #1280	; 0x500
    3d54:	05000067 	streq	r0, [r0, #-103]	; 0xffffff99
    3d58:	000dbf00 	andeq	fp, sp, r0, lsl #30
    3d5c:	18000600 	stmdane	r0, {r9, sl}
    3d60:	05000036 	streq	r0, [r0, #-54]	; 0xffffffca
    3d64:	0064a800 	rsbeq	sl, r4, r0, lsl #16
    3d68:	3f000600 	svccc	0x00000600
    3d6c:	0600002c 	streq	r0, [r0], -ip, lsr #32
    3d70:	0045dc00 	subeq	sp, r5, r0, lsl #24
    3d74:	87000600 	strhi	r0, [r0, -r0, lsl #12]
    3d78:	06000041 	streq	r0, [r0], -r1, asr #32
    3d7c:	0055d900 	subseq	sp, r5, r0, lsl #18
    3d80:	bb000600 	bllt	5588 <_Min_Stack_Size+0x5188>
    3d84:	06000012 			; <UNDEFINED> instruction: 0x06000012
    3d88:	0026d900 	eoreq	sp, r6, r0, lsl #18
    3d8c:	7d000500 	cfstr32vc	mvfx0, [r0, #-0]
    3d90:	06000015 			; <UNDEFINED> instruction: 0x06000015
    3d94:	0011ba00 	andseq	fp, r1, r0, lsl #20
    3d98:	18000600 	stmdane	r0, {r9, sl}
    3d9c:	0600001f 			; <UNDEFINED> instruction: 0x0600001f
    3da0:	003d3800 	eorseq	r3, sp, r0, lsl #16
    3da4:	e2000500 	and	r0, r0, #0, 10
    3da8:	05000011 	streq	r0, [r0, #-17]	; 0xffffffef
    3dac:	003fdd00 	eorseq	sp, pc, r0, lsl #26
    3db0:	0d000500 	cfstr32eq	mvfx0, [r0, #-0]
    3db4:	05000063 	streq	r0, [r0, #-99]	; 0xffffff9d
    3db8:	00533300 	subseq	r3, r3, r0, lsl #6
    3dbc:	2d000600 	stccs	6, cr0, [r0, #-0]
    3dc0:	0500001e 	streq	r0, [r0, #-30]	; 0xffffffe2
    3dc4:	00259900 	eoreq	r9, r5, r0, lsl #18
    3dc8:	8a000500 	bhi	51d0 <_Min_Stack_Size+0x4dd0>
    3dcc:	05000042 	streq	r0, [r0, #-66]	; 0xffffffbe
    3dd0:	00628a00 	rsbeq	r8, r2, r0, lsl #20
    3dd4:	f2000600 	vmax.s8	d0, d0, d0
    3dd8:	0500005a 	streq	r0, [r0, #-90]	; 0xffffffa6
    3ddc:	0009c400 	andeq	ip, r9, r0, lsl #8
    3de0:	dc000600 	stcle	6, cr0, [r0], {-0}
    3de4:	06000058 			; <UNDEFINED> instruction: 0x06000058
    3de8:	006cb100 	rsbeq	fp, ip, r0, lsl #2
    3dec:	3f000600 	svccc	0x00000600
    3df0:	06000024 	streq	r0, [r0], -r4, lsr #32
    3df4:	00673f00 	rsbeq	r3, r7, r0, lsl #30
    3df8:	ea000600 	b	5600 <_Min_Stack_Size+0x5200>
    3dfc:	0600002e 	streq	r0, [r0], -lr, lsr #32
    3e00:	00507600 	subseq	r7, r0, r0, lsl #12
    3e04:	09000500 	stmdbeq	r0, {r8, sl}
    3e08:	0500002e 	streq	r0, [r0, #-46]	; 0xffffffd2
    3e0c:	00535900 	subseq	r5, r3, r0, lsl #18
    3e10:	45000500 	strmi	r0, [r0, #-1280]	; 0xfffffb00
    3e14:	0500005c 	streq	r0, [r0, #-92]	; 0xffffffa4
    3e18:	000f1300 	andeq	r1, pc, r0, lsl #6
    3e1c:	af000500 	svcge	0x00000500
    3e20:	05000046 	streq	r0, [r0, #-70]	; 0xffffffba
    3e24:	00213100 	eoreq	r3, r1, r0, lsl #2
    3e28:	62000500 	andvs	r0, r0, #0, 10
    3e2c:	05000041 	streq	r0, [r0, #-65]	; 0xffffffbf
    3e30:	002d2500 	eoreq	r2, sp, r0, lsl #10
    3e34:	06180300 	ldreq	r0, [r8], -r0, lsl #6
    3e38:	002b7d07 	eoreq	r7, fp, r7, lsl #26
    3e3c:	05090300 	streq	r0, [r9, #-768]	; 0xfffffd00
    3e40:	7fa10905 	svcvc	0x00a10905
    3e44:	0b030000 	bleq	c3e4c <_Min_Stack_Size+0xc3a4c>
    3e48:	450b0507 	strmi	r0, [fp, #-1287]	; 0xfffffaf9
    3e4c:	03000040 	movweq	r0, #64	; 0x40
    3e50:	0805080d 	stmdaeq	r5, {r0, r2, r3, fp}
    3e54:	00003d80 	andeq	r3, r0, r0, lsl #27
    3e58:	05090a03 	streq	r0, [r9, #-2563]	; 0xfffff5fd
    3e5c:	000d9807 	andeq	r9, sp, r7, lsl #16
    3e60:	0a0a0300 	beq	284a68 <_Min_Stack_Size+0x284668>
    3e64:	000bea07 	andeq	lr, fp, r7, lsl #20
    3e68:	0c070400 	cfstrseq	mvf0, [r7], {-0}
    3e6c:	0400000c 	streq	r0, [r0], #-12
    3e70:	050b0b03 	streq	r0, [fp, #-2819]	; 0xfffff4fd
    3e74:	005cee02 	subseq	lr, ip, r2, lsl #28
    3e78:	0c040300 	stceq	3, cr0, [r4], {-0}
    3e7c:	000c6707 	andeq	r6, ip, r7, lsl #14
    3e80:	05030400 	streq	r0, [r3, #-1024]	; 0xfffffc00
    3e84:	0c91070d 	ldceq	7, cr0, [r1], {13}
    3e88:	07040000 	streq	r0, [r4, -r0]
    3e8c:	00000d25 	andeq	r0, r0, r5, lsr #26
    3e90:	0d680704 	stcleq	7, cr0, [r8, #-16]!
    3e94:	03040000 	movweq	r0, #16384	; 0x4000
    3e98:	3707020e 	strcc	r0, [r7, -lr, lsl #4]
    3e9c:	04000025 	streq	r0, [r0], #-37	; 0xffffffdb
    3ea0:	050e0f03 	streq	r0, [lr, #-3843]	; 0xfffff0fd
    3ea4:	0062202b 	rsbeq	r2, r2, fp, lsr #32
    3ea8:	032d0300 			; <UNDEFINED> instruction: 0x032d0300
    3eac:	000db207 	andeq	fp, sp, r7, lsl #4
    3eb0:	2f030400 	svccs	0x00030400
    3eb4:	a7070402 	strge	r0, [r7, -r2, lsl #8]
    3eb8:	0400000e 	streq	r0, [r0], #-14
    3ebc:	070f1003 	streq	r1, [pc, -r3]
    3ec0:	00001339 	andeq	r1, r0, r9, lsr r3
    3ec4:	07021803 	streq	r1, [r2, -r3, lsl #16]
    3ec8:	0000134f 	andeq	r1, r0, pc, asr #6
    3ecc:	101b0304 	andsne	r0, fp, r4, lsl #6
    3ed0:	43c60605 	bicmi	r0, r6, #5242880	; 0x500000
    3ed4:	07040000 	streq	r0, [r4, -r0]
    3ed8:	00001399 	muleq	r0, r9, r3
    3edc:	13cd0704 	bicne	r0, sp, #4, 14	; 0x100000
    3ee0:	23030000 	movwcs	r0, #12288	; 0x3000
    3ee4:	13dd0711 	bicsne	r0, sp, #4456448	; 0x440000
    3ee8:	07040000 	streq	r0, [r4, -r0]
    3eec:	00001435 	andeq	r1, r0, r5, lsr r4
    3ef0:	1203ce03 	andne	ip, r3, #3, 28	; 0x30
    3ef4:	04080903 	streq	r0, [r8], #-2307	; 0xfffff6fd
    3ef8:	0014c307 	andseq	ip, r4, r7, lsl #6
    3efc:	df070400 	svcle	0x00070400
    3f00:	04000014 	streq	r0, [r0], #-20	; 0xffffffec
    3f04:	003f3807 	eorseq	r3, pc, r7, lsl #16
    3f08:	03040400 	movweq	r0, #17408	; 0x4400
    3f0c:	09031319 	stmdbeq	r3, {r0, r3, r4, r8, r9, ip}
    3f10:	5c0a0514 	cfstr32pl	mvfx0, [sl], {20}
    3f14:	03000090 	movweq	r0, #144	; 0x90
    3f18:	fb07150d 	blx	1c9356 <_Min_Stack_Size+0x1c8f56>
    3f1c:	0400002d 	streq	r0, [r0], #-45	; 0xffffffd3
    3f20:	07040e03 	streq	r0, [r4, -r3, lsl #28]
    3f24:	00002743 	andeq	r2, r0, r3, asr #14
    3f28:	2efe0704 	cdpcs	7, 15, cr0, cr14, cr4, {0}
    3f2c:	05040000 	streq	r0, [r4, #-0]
    3f30:	0090530d 	addseq	r5, r0, sp, lsl #6
    3f34:	00040400 	andeq	r0, r4, r0, lsl #8
    3f38:	05000005 	streq	r0, [r0, #-5]
    3f3c:	008f1b12 	addeq	r1, pc, r2, lsl fp	; <UNPREDICTABLE>
    3f40:	cd230500 	cfstr32gt	mvfx0, [r3, #-0]
    3f44:	05000083 	streq	r0, [r0, #-131]	; 0xffffff7d
    3f48:	00769425 	rsbseq	r9, r6, r5, lsr #8
    3f4c:	9e260500 	cfsh64ls	mvdx0, mvdx6, #0
    3f50:	0500008f 	streq	r0, [r0, #-143]	; 0xffffff71
    3f54:	007d3e27 	rsbseq	r3, sp, r7, lsr #28
    3f58:	63280500 			; <UNDEFINED> instruction: 0x63280500
    3f5c:	05000091 	streq	r0, [r0, #-145]	; 0xffffff6f
    3f60:	00982c29 	addseq	r2, r8, r9, lsr #24
    3f64:	682a0500 	stmdavs	sl!, {r8, sl}
    3f68:	05000088 	streq	r0, [r0, #-136]	; 0xffffff78
    3f6c:	0082f22b 	addeq	pc, r2, fp, lsr #4
    3f70:	992c0500 	stmdbls	ip!, {r8, sl}
    3f74:	05000071 	streq	r0, [r0, #-113]	; 0xffffff8f
    3f78:	007efc2d 	rsbseq	pc, lr, sp, lsr #24
    3f7c:	6d2e0500 	cfstr32vs	mvfx0, [lr, #-0]
    3f80:	0500006f 	streq	r0, [r0, #-111]	; 0xffffff91
    3f84:	007e452f 	rsbseq	r4, lr, pc, lsr #10
    3f88:	e0300500 	eors	r0, r0, r0, lsl #10
    3f8c:	05000082 	streq	r0, [r0, #-130]	; 0xffffff7e
    3f90:	00856331 	addeq	r6, r5, r1, lsr r3
    3f94:	e0320500 	eors	r0, r2, r0, lsl #10
    3f98:	05000094 	streq	r0, [r0, #-148]	; 0xffffff6c
    3f9c:	00888a36 	addeq	r8, r8, r6, lsr sl
    3fa0:	7b370500 	blvc	dc53a8 <_Min_Stack_Size+0xdc4fa8>
    3fa4:	05000072 	streq	r0, [r0, #-114]	; 0xffffff8e
    3fa8:	00760238 	rsbseq	r0, r6, r8, lsr r2
    3fac:	a1390500 	teqge	r9, r0, lsl #10
    3fb0:	05000095 	streq	r0, [r0, #-149]	; 0xffffff6b
    3fb4:	00873c3a 	addeq	r3, r7, sl, lsr ip
    3fb8:	613b0500 	teqvs	fp, r0, lsl #10
    3fbc:	05000079 	streq	r0, [r0, #-121]	; 0xffffff87
    3fc0:	0089083c 	addeq	r0, r9, ip, lsr r8
    3fc4:	593d0500 	ldmdbpl	sp!, {r8, sl}
    3fc8:	05000091 	streq	r0, [r0, #-145]	; 0xffffff6f
    3fcc:	0076463e 	rsbseq	r4, r6, lr, lsr r6
    3fd0:	593f0500 	ldmdbpl	pc!, {r8, sl}	; <UNPREDICTABLE>
    3fd4:	05000084 	streq	r0, [r0, #-132]	; 0xffffff7c
    3fd8:	00742940 	rsbseq	r2, r4, r0, asr #18
    3fdc:	a2410500 	subge	r0, r1, #0, 10
    3fe0:	05000083 	streq	r0, [r0, #-131]	; 0xffffff7d
    3fe4:	00766e42 	rsbseq	r6, r6, r2, asr #28
    3fe8:	86430500 	strbhi	r0, [r3], -r0, lsl #10
    3fec:	0500007f 	streq	r0, [r0, #-127]	; 0xffffff81
    3ff0:	006e2644 	rsbeq	r2, lr, r4, asr #12
    3ff4:	dc450500 	cfstr64le	mvdx0, [r5], {-0}
    3ff8:	05000078 	streq	r0, [r0, #-120]	; 0xffffff88
    3ffc:	00726046 	rsbseq	r6, r2, r6, asr #32
    4000:	a9470500 	stmdbge	r7, {r8, sl}^
    4004:	0500008d 	streq	r0, [r0, #-141]	; 0xffffff73
    4008:	0089a048 	addeq	sl, r9, r8, asr #32
    400c:	0f490500 	svceq	0x00490500
    4010:	05000084 	streq	r0, [r0, #-132]	; 0xffffff7c
    4014:	0070944a 	rsbseq	r9, r0, sl, asr #8
    4018:	ea550500 	b	1545420 <_Min_Stack_Size+0x1545020>
    401c:	05000094 	streq	r0, [r0, #-148]	; 0xffffff6c
    4020:	0095da56 	addseq	sp, r5, r6, asr sl
    4024:	ec610500 	cfstr64	mvdx0, [r1], #-0
    4028:	05000075 	streq	r0, [r0, #-117]	; 0xffffff8b
    402c:	0085aa62 	addeq	sl, r5, r2, ror #20
    4030:	c4630500 	strbtgt	r0, [r3], #-1280	; 0xfffffb00
    4034:	05000083 	streq	r0, [r0, #-131]	; 0xffffff7d
    4038:	00932864 	addseq	r2, r3, r4, ror #16
    403c:	956a0500 	strbls	r0, [sl, #-1280]!	; 0xfffffb00
    4040:	0500007c 	streq	r0, [r0, #-124]	; 0xffffff84
    4044:	00881d70 	addeq	r1, r8, r0, ror sp
    4048:	54710500 	ldrbtpl	r0, [r1], #-1280	; 0xfffffb00
    404c:	05000094 	streq	r0, [r0, #-148]	; 0xffffff6c
    4050:	0071a376 	rsbseq	sl, r1, r6, ror r3
    4054:	48770500 	ldmdami	r7!, {r8, sl}^
    4058:	05000077 	streq	r0, [r0, #-119]	; 0xffffff89
    405c:	78c30182 	stmiavc	r3, {r1, r7, r8}^
    4060:	86050000 	strhi	r0, [r5], -r0
    4064:	0075df01 	rsbseq	sp, r5, r1, lsl #30
    4068:	01870500 	orreq	r0, r7, r0, lsl #10
    406c:	00006d08 	andeq	r6, r0, r8, lsl #26
    4070:	74018805 	strvc	r8, [r1], #-2053	; 0xfffff7fb
    4074:	05000073 	streq	r0, [r0, #-115]	; 0xffffff8d
    4078:	7a690189 	bvc	1a446a4 <_Min_Stack_Size+0x1a442a4>
    407c:	8a050000 	bhi	144084 <_Min_Stack_Size+0x143c84>
    4080:	006f5d01 	rsbeq	r5, pc, r1, lsl #26
    4084:	018b0500 	orreq	r0, fp, r0, lsl #10
    4088:	0000737d 	andeq	r7, r0, sp, ror r3
    408c:	2f018c05 	svccs	0x00018c05
    4090:	05000077 	streq	r0, [r0, #-119]	; 0xffffff89
    4094:	94cf018d 	strbls	r0, [pc], #397	; 409c <_Min_Stack_Size+0x3c9c>
    4098:	8e050000 	cdphi	0, 0, cr0, cr5, cr0, {0}
    409c:	00790b01 	rsbseq	r0, r9, r1, lsl #22
    40a0:	018f0500 	orreq	r0, pc, r0, lsl #10
    40a4:	00008cb9 			; <UNDEFINED> instruction: 0x00008cb9
    40a8:	e6019005 	str	r9, [r1], -r5
    40ac:	05000080 	streq	r0, [r0, #-128]	; 0xffffff80
    40b0:	7ac90194 	bvc	ff244708 <_estack+0xdf224708>
    40b4:	95050000 	strls	r0, [r5, #-0]
    40b8:	0081b301 	addeq	fp, r1, r1, lsl #6
    40bc:	01960500 	orrseq	r0, r6, r0, lsl #10
    40c0:	00008075 	andeq	r8, r0, r5, ror r0
    40c4:	0d019705 	stceq	7, cr9, [r1, #-20]	; 0xffffffec
    40c8:	0500007a 	streq	r0, [r0, #-122]	; 0xffffff86
    40cc:	6de10198 	stfvse	f0, [r1, #608]!	; 0x260
    40d0:	99050000 	stmdbls	r5, {}	; <UNPREDICTABLE>
    40d4:	00954001 	addseq	r4, r5, r1
    40d8:	019a0500 	orrseq	r0, sl, r0, lsl #10
    40dc:	00007476 	andeq	r7, r0, r6, ror r4
    40e0:	3a019b05 	bcc	6acfc <_Min_Stack_Size+0x6a8fc>
    40e4:	0500007f 	streq	r0, [r0, #-127]	; 0xffffff81
    40e8:	6f43019c 	svcvs	0x0043019c
    40ec:	9d050000 	stcls	0, cr0, [r5, #-0]
    40f0:	00960901 	addseq	r0, r6, r1, lsl #18
    40f4:	019e0500 	orrseq	r0, lr, r0, lsl #10
    40f8:	000073cf 	andeq	r7, r0, pc, asr #7
    40fc:	29019f05 	stmdbcs	r1, {r0, r2, r8, r9, sl, fp, ip, pc}
    4100:	05000084 	streq	r0, [r0, #-132]	; 0xffffff7c
    4104:	7f5a01a0 	svcvc	0x005a01a0
    4108:	a4050000 	strge	r0, [r5], #-0
    410c:	0096d101 	addseq	sp, r6, r1, lsl #2
    4110:	01a50500 			; <UNDEFINED> instruction: 0x01a50500
    4114:	000083b6 			; <UNDEFINED> instruction: 0x000083b6
    4118:	1101a605 	tstne	r1, r5, lsl #12
    411c:	05000070 	streq	r0, [r0, #-112]	; 0xffffff90
    4120:	836401a7 	cmnhi	r4, #-1073741783	; 0xc0000029
    4124:	a8050000 	stmdage	r5, {}	; <UNPREDICTABLE>
    4128:	0087c901 	addeq	ip, r7, r1, lsl #18
    412c:	01ad0500 			; <UNDEFINED> instruction: 0x01ad0500
    4130:	00006dbe 			; <UNDEFINED> instruction: 0x00006dbe
    4134:	1801ae05 	stmdane	r1, {r0, r2, r9, sl, fp, sp, pc}
    4138:	05000090 	streq	r0, [r0, #-144]	; 0xffffff70
    413c:	88bd01af 	pophi	{r0, r1, r2, r3, r5, r7, r8}
    4140:	b7050000 	strlt	r0, [r5, -r0]
    4144:	00843601 	addeq	r3, r4, r1, lsl #12
    4148:	01b80500 			; <UNDEFINED> instruction: 0x01b80500
    414c:	00009511 	andeq	r9, r0, r1, lsl r5
    4150:	ac01b905 			; <UNDEFINED> instruction: 0xac01b905
    4154:	05000070 	streq	r0, [r0, #-112]	; 0xffffff90
    4158:	91df01ba 	ldrhls	r0, [pc, #26]	; 417a <_Min_Stack_Size+0x3d7a>
    415c:	bb050000 	bllt	144164 <_Min_Stack_Size+0x143d64>
    4160:	0078cd01 	rsbseq	ip, r8, r1, lsl #26
    4164:	01bf0500 			; <UNDEFINED> instruction: 0x01bf0500
    4168:	00008747 	andeq	r8, r0, r7, asr #14
    416c:	9701c105 	strls	ip, [r1, -r5, lsl #2]
    4170:	0000008d 	andeq	r0, r0, sp, lsl #1

Disassembly of section .debug_line:

00000000 <.debug_line>:
       0:	0000052f 	andeq	r0, r0, pc, lsr #10
       4:	050e0003 	streq	r0, [lr, #-3]
       8:	01020000 	mrseq	r0, (UNDEF: 2)
       c:	000d0efb 	strdeq	r0, [sp], -fp
      10:	01010101 	tsteq	r1, r1, lsl #2
      14:	01000000 	mrseq	r0, (UNDEF: 0)
      18:	2e010000 	cdpcs	0, 0, cr0, cr1, cr0, {0}
      1c:	72532f2e 	subsvc	r2, r3, #46, 30	; 0xb8
      20:	3a430063 	bcc	10c01b4 <_Min_Stack_Size+0x10bfdb4>
      24:	5c54535c 	mrrcpl	3, 5, r5, r4, cr12
      28:	334d5453 	movtcc	r5, #54355	; 0xd453
      2c:	62754332 	rsbsvs	r4, r5, #-939524096	; 0xc8000000
      30:	45444965 	strbmi	r4, [r4, #-2405]	; 0xfffff69b
      34:	312e315f 			; <UNDEFINED> instruction: 0x312e315f
      38:	5c312e38 	ldcpl	14, cr2, [r1], #-224	; 0xffffff20
      3c:	334d5453 	movtcc	r5, #54355	; 0xd453
      40:	62754332 	rsbsvs	r4, r5, #-939524096	; 0xc8000000
      44:	45444965 	strbmi	r4, [r4, #-2405]	; 0xfffff69b
      48:	756c705c 	strbvc	r7, [ip, #-92]!	; 0xffffffa4
      4c:	736e6967 	cmnvc	lr, #1687552	; 0x19c000
      50:	6d6f635c 	stclvs	3, cr6, [pc, #-368]!	; fffffee8 <_estack+0xdffdfee8>
      54:	2e74732e 	cdpcs	3, 7, cr7, cr4, cr14, {1}
      58:	336d7473 	cmncc	sp, #1929379840	; 0x73000000
      5c:	62756332 	rsbsvs	r6, r5, #-939524096	; 0xc8000000
      60:	64692e65 	strbtvs	r2, [r9], #-3685	; 0xfffff19b
      64:	636d2e65 	cmnvs	sp, #1616	; 0x650
      68:	78652e75 	stmdavc	r5!, {r0, r2, r4, r5, r6, r9, sl, fp, sp}^
      6c:	6e726574 	mrcvs	5, 3, r6, cr2, cr4, {3}
      70:	6f746c61 	svcvs	0x00746c61
      74:	2e736c6f 	cdpcs	12, 7, cr6, cr3, cr15, {3}
      78:	2d756e67 	ldclcs	14, cr6, [r5, #-412]!	; 0xfffffe64
      7c:	6c6f6f74 	stclvs	15, cr6, [pc], #-464	; fffffeb4 <_estack+0xdffdfeb4>
      80:	6f662d73 	svcvs	0x00662d73
      84:	74732d72 	ldrbtvc	r2, [r3], #-3442	; 0xfffff28e
      88:	2e32336d 	cdpcs	3, 3, cr3, cr2, cr13, {3}
      8c:	332e3331 			; <UNDEFINED> instruction: 0x332e3331
      90:	6c65722e 	sfmvs	f7, 2, [r5], #-184	; 0xffffff48
      94:	69772e31 	ldmdbvs	r7!, {r0, r4, r5, r9, sl, fp, sp}^
      98:	5f32336e 	svcpl	0x0032336e
      9c:	2e302e31 	mrccs	14, 1, r2, cr0, cr1, {1}
      a0:	30322e30 	eorscc	r2, r2, r0, lsr lr
      a4:	31313432 	teqcc	r1, r2, lsr r4
      a8:	33313830 	teqcc	r1, #48, 16	; 0x300000
      ac:	745c3434 	ldrbvc	r3, [ip], #-1076	; 0xfffffbcc
      b0:	736c6f6f 	cmnvc	ip, #444	; 0x1bc
      b4:	6e69625c 	mcrvs	2, 3, r6, cr9, cr12, {2}
      b8:	2f2e2e2f 	svccs	0x002e2e2f
      bc:	2f62696c 	svccs	0x0062696c
      c0:	2f636367 	svccs	0x00636367
      c4:	2d6d7261 	sfmcs	f7, 2, [sp, #-388]!	; 0xfffffe7c
      c8:	656e6f6e 	strbvs	r6, [lr, #-3950]!	; 0xfffff092
      cc:	6261652d 	rsbvs	r6, r1, #188743680	; 0xb400000
      d0:	33312f69 	teqcc	r1, #420	; 0x1a4
      d4:	312e332e 			; <UNDEFINED> instruction: 0x312e332e
      d8:	2f2e2e2f 	svccs	0x002e2e2f
      dc:	2e2f2e2e 	cdpcs	14, 2, cr2, cr15, cr14, {1}
      e0:	2e2e2f2e 	cdpcs	15, 2, cr2, cr14, cr14, {1}
      e4:	6d72612f 	ldfvse	f6, [r2, #-188]!	; 0xffffff44
      e8:	6e6f6e2d 	cdpvs	14, 6, cr6, cr15, cr13, {1}
      ec:	61652d65 	cmnvs	r5, r5, ror #26
      f0:	692f6962 	stmdbvs	pc!, {r1, r5, r6, r8, fp, sp, lr}	; <UNPREDICTABLE>
      f4:	756c636e 	strbvc	r6, [ip, #-878]!	; 0xfffffc92
      f8:	43006564 	movwmi	r6, #1380	; 0x564
      fc:	54535c3a 	ldrbpl	r5, [r3], #-3130	; 0xfffff3c6
     100:	4d54535c 	ldclmi	3, cr5, [r4, #-368]	; 0xfffffe90
     104:	75433233 	strbvc	r3, [r3, #-563]	; 0xfffffdcd
     108:	44496562 	strbmi	r6, [r9], #-1378	; 0xfffffa9e
     10c:	2e315f45 	cdpcs	15, 3, cr5, cr1, cr5, {2}
     110:	312e3831 			; <UNDEFINED> instruction: 0x312e3831
     114:	4d54535c 	ldclmi	3, cr5, [r4, #-368]	; 0xfffffe90
     118:	75433233 	strbvc	r3, [r3, #-563]	; 0xfffffdcd
     11c:	44496562 	strbmi	r6, [r9], #-1378	; 0xfffffa9e
     120:	6c705c45 	ldclvs	12, cr5, [r0], #-276	; 0xfffffeec
     124:	6e696775 	mcrvs	7, 3, r6, cr9, cr5, {3}
     128:	6f635c73 	svcvs	0x00635c73
     12c:	74732e6d 	ldrbtvc	r2, [r3], #-3693	; 0xfffff193
     130:	6d74732e 	ldclvs	3, cr7, [r4, #-184]!	; 0xffffff48
     134:	75633233 	strbvc	r3, [r3, #-563]!	; 0xfffffdcd
     138:	692e6562 	stmdbvs	lr!, {r1, r5, r6, r8, sl, sp, lr}
     13c:	6d2e6564 	cfstr32vs	mvfx6, [lr, #-400]!	; 0xfffffe70
     140:	652e7563 	strvs	r7, [lr, #-1379]!	; 0xfffffa9d
     144:	72657478 	rsbvc	r7, r5, #120, 8	; 0x78000000
     148:	746c616e 	strbtvc	r6, [ip], #-366	; 0xfffffe92
     14c:	736c6f6f 	cmnvc	ip, #444	; 0x1bc
     150:	756e672e 	strbvc	r6, [lr, #-1838]!	; 0xfffff8d2
     154:	6f6f742d 	svcvs	0x006f742d
     158:	662d736c 	strtvs	r7, [sp], -ip, ror #6
     15c:	732d726f 			; <UNDEFINED> instruction: 0x732d726f
     160:	32336d74 	eorscc	r6, r3, #116, 26	; 0x1d00
     164:	2e33312e 	rsfcssp	f3, f3, #0.5
     168:	65722e33 	ldrbvs	r2, [r2, #-3635]!	; 0xfffff1cd
     16c:	772e316c 	strvc	r3, [lr, -ip, ror #2]!
     170:	32336e69 	eorscc	r6, r3, #1680	; 0x690
     174:	302e315f 	eorcc	r3, lr, pc, asr r1
     178:	322e302e 	eorcc	r3, lr, #46	; 0x2e
     17c:	31343230 	teqcc	r4, r0, lsr r2
     180:	31383031 	teqcc	r8, r1, lsr r0
     184:	5c343433 	cfldrspl	mvf3, [r4], #-204	; 0xffffff34
     188:	6c6f6f74 	stclvs	15, cr6, [pc], #-464	; ffffffc0 <_estack+0xdffdffc0>
     18c:	69625c73 	stmdbvs	r2!, {r0, r1, r4, r5, r6, sl, fp, ip, lr}^
     190:	2e2e2f6e 	cdpcs	15, 2, cr2, cr14, cr14, {3}
     194:	6d72612f 	ldfvse	f6, [r2, #-188]!	; 0xffffff44
     198:	6e6f6e2d 	cdpvs	14, 6, cr6, cr15, cr13, {1}
     19c:	61652d65 	cmnvs	r5, r5, ror #26
     1a0:	692f6962 	stmdbvs	pc!, {r1, r5, r6, r8, fp, sp, lr}	; <UNPREDICTABLE>
     1a4:	756c636e 	strbvc	r6, [ip, #-878]!	; 0xfffffc92
     1a8:	6e2f6564 	cfsh64vs	mvdx6, mvdx15, #52
     1ac:	696c7765 	stmdbvs	ip!, {r0, r2, r5, r6, r8, r9, sl, ip, sp, lr}^
     1b0:	616e2d62 	cmnvs	lr, r2, ror #26
     1b4:	43006f6e 	movwmi	r6, #3950	; 0xf6e
     1b8:	54535c3a 	ldrbpl	r5, [r3], #-3130	; 0xfffff3c6
     1bc:	4d54535c 	ldclmi	3, cr5, [r4, #-368]	; 0xfffffe90
     1c0:	75433233 	strbvc	r3, [r3, #-563]	; 0xfffffdcd
     1c4:	44496562 	strbmi	r6, [r9], #-1378	; 0xfffffa9e
     1c8:	2e315f45 	cdpcs	15, 3, cr5, cr1, cr5, {2}
     1cc:	312e3831 			; <UNDEFINED> instruction: 0x312e3831
     1d0:	4d54535c 	ldclmi	3, cr5, [r4, #-368]	; 0xfffffe90
     1d4:	75433233 	strbvc	r3, [r3, #-563]	; 0xfffffdcd
     1d8:	44496562 	strbmi	r6, [r9], #-1378	; 0xfffffa9e
     1dc:	6c705c45 	ldclvs	12, cr5, [r0], #-276	; 0xfffffeec
     1e0:	6e696775 	mcrvs	7, 3, r6, cr9, cr5, {3}
     1e4:	6f635c73 	svcvs	0x00635c73
     1e8:	74732e6d 	ldrbtvc	r2, [r3], #-3693	; 0xfffff193
     1ec:	6d74732e 	ldclvs	3, cr7, [r4, #-184]!	; 0xffffff48
     1f0:	75633233 	strbvc	r3, [r3, #-563]!	; 0xfffffdcd
     1f4:	692e6562 	stmdbvs	lr!, {r1, r5, r6, r8, sl, sp, lr}
     1f8:	6d2e6564 	cfstr32vs	mvfx6, [lr, #-400]!	; 0xfffffe70
     1fc:	652e7563 	strvs	r7, [lr, #-1379]!	; 0xfffffa9d
     200:	72657478 	rsbvc	r7, r5, #120, 8	; 0x78000000
     204:	746c616e 	strbtvc	r6, [ip], #-366	; 0xfffffe92
     208:	736c6f6f 	cmnvc	ip, #444	; 0x1bc
     20c:	756e672e 	strbvc	r6, [lr, #-1838]!	; 0xfffff8d2
     210:	6f6f742d 	svcvs	0x006f742d
     214:	662d736c 	strtvs	r7, [sp], -ip, ror #6
     218:	732d726f 			; <UNDEFINED> instruction: 0x732d726f
     21c:	32336d74 	eorscc	r6, r3, #116, 26	; 0x1d00
     220:	2e33312e 	rsfcssp	f3, f3, #0.5
     224:	65722e33 	ldrbvs	r2, [r2, #-3635]!	; 0xfffff1cd
     228:	772e316c 	strvc	r3, [lr, -ip, ror #2]!
     22c:	32336e69 	eorscc	r6, r3, #1680	; 0x690
     230:	302e315f 	eorcc	r3, lr, pc, asr r1
     234:	322e302e 	eorcc	r3, lr, #46	; 0x2e
     238:	31343230 	teqcc	r4, r0, lsr r2
     23c:	31383031 	teqcc	r8, r1, lsr r0
     240:	5c343433 	cfldrspl	mvf3, [r4], #-204	; 0xffffff34
     244:	6c6f6f74 	stclvs	15, cr6, [pc], #-464	; 7c <_Min_Heap_Size-0x184>
     248:	69625c73 	stmdbvs	r2!, {r0, r1, r4, r5, r6, sl, fp, ip, lr}^
     24c:	2e2e2f6e 	cdpcs	15, 2, cr2, cr14, cr14, {3}
     250:	62696c2f 	rsbvs	r6, r9, #12032	; 0x2f00
     254:	6363672f 	cmnvs	r3, #12320768	; 0xbc0000
     258:	6d72612f 	ldfvse	f6, [r2, #-188]!	; 0xffffff44
     25c:	6e6f6e2d 	cdpvs	14, 6, cr6, cr15, cr13, {1}
     260:	61652d65 	cmnvs	r5, r5, ror #26
     264:	312f6962 			; <UNDEFINED> instruction: 0x312f6962
     268:	2e332e33 	mrccs	14, 1, r2, cr3, cr3, {1}
     26c:	2e2e2f31 	mcrcs	15, 1, r2, cr14, cr1, {1}
     270:	2f2e2e2f 	svccs	0x002e2e2f
     274:	2e2f2e2e 	cdpcs	14, 2, cr2, cr15, cr14, {1}
     278:	72612f2e 	rsbvc	r2, r1, #46, 30	; 0xb8
     27c:	6f6e2d6d 	svcvs	0x006e2d6d
     280:	652d656e 	strvs	r6, [sp, #-1390]!	; 0xfffffa92
     284:	2f696261 	svccs	0x00696261
     288:	6c636e69 	stclvs	14, cr6, [r3], #-420	; 0xfffffe5c
     28c:	2f656475 	svccs	0x00656475
     290:	00737973 	rsbseq	r7, r3, r3, ror r9
     294:	535c3a43 	cmppl	ip, #274432	; 0x43000
     298:	54535c54 	ldrbpl	r5, [r3], #-3156	; 0xfffff3ac
     29c:	4332334d 	teqmi	r2, #872415233	; 0x34000001
     2a0:	49656275 	stmdbmi	r5!, {r0, r2, r4, r5, r6, r9, sp, lr}^
     2a4:	315f4544 	cmpcc	pc, r4, asr #10
     2a8:	2e38312e 	rsfcsep	f3, f0, #0.5
     2ac:	54535c31 	ldrbpl	r5, [r3], #-3121	; 0xfffff3cf
     2b0:	4332334d 	teqmi	r2, #872415233	; 0x34000001
     2b4:	49656275 	stmdbmi	r5!, {r0, r2, r4, r5, r6, r9, sp, lr}^
     2b8:	705c4544 	subsvc	r4, ip, r4, asr #10
     2bc:	6967756c 	stmdbvs	r7!, {r2, r3, r5, r6, r8, sl, ip, sp, lr}^
     2c0:	635c736e 	cmpvs	ip, #-1207959551	; 0xb8000001
     2c4:	732e6d6f 			; <UNDEFINED> instruction: 0x732e6d6f
     2c8:	74732e74 	ldrbtvc	r2, [r3], #-3700	; 0xfffff18c
     2cc:	6332336d 	teqvs	r2, #-1275068415	; 0xb4000001
     2d0:	2e656275 	mcrcs	2, 3, r6, cr5, cr5, {3}
     2d4:	2e656469 	cdpcs	4, 6, cr6, cr5, cr9, {3}
     2d8:	2e75636d 	cdpcs	3, 7, cr6, cr5, cr13, {3}
     2dc:	65747865 	ldrbvs	r7, [r4, #-2149]!	; 0xfffff79b
     2e0:	6c616e72 	stclvs	14, cr6, [r1], #-456	; 0xfffffe38
     2e4:	6c6f6f74 	stclvs	15, cr6, [pc], #-464	; 11c <_Min_Heap_Size-0xe4>
     2e8:	6e672e73 	mcrvs	14, 3, r2, cr7, cr3, {3}
     2ec:	6f742d75 	svcvs	0x00742d75
     2f0:	2d736c6f 	ldclcs	12, cr6, [r3, #-444]!	; 0xfffffe44
     2f4:	2d726f66 	ldclcs	15, cr6, [r2, #-408]!	; 0xfffffe68
     2f8:	336d7473 	cmncc	sp, #1929379840	; 0x73000000
     2fc:	33312e32 	teqcc	r1, #800	; 0x320
     300:	722e332e 	eorvc	r3, lr, #-1207959552	; 0xb8000000
     304:	2e316c65 	cdpcs	12, 3, cr6, cr1, cr5, {3}
     308:	336e6977 	cmncc	lr, #1949696	; 0x1dc000
     30c:	2e315f32 	mrccs	15, 1, r5, cr1, cr2, {1}
     310:	2e302e30 	mrccs	14, 1, r2, cr0, cr0, {1}
     314:	34323032 	ldrtcc	r3, [r2], #-50	; 0xffffffce
     318:	38303131 	ldmdacc	r0!, {r0, r4, r5, r8, ip, sp}
     31c:	34343331 	ldrtcc	r3, [r4], #-817	; 0xfffffccf
     320:	6f6f745c 	svcvs	0x006f745c
     324:	625c736c 	subsvs	r7, ip, #108, 6	; 0xb0000001
     328:	2e2f6e69 	cdpcs	14, 2, cr6, cr15, cr9, {3}
     32c:	696c2f2e 	stmdbvs	ip!, {r1, r2, r3, r5, r8, r9, sl, fp, sp}^
     330:	63672f62 	cmnvs	r7, #392	; 0x188
     334:	72612f63 	rsbvc	r2, r1, #396	; 0x18c
     338:	6f6e2d6d 	svcvs	0x006e2d6d
     33c:	652d656e 	strvs	r6, [sp, #-1390]!	; 0xfffffa92
     340:	2f696261 	svccs	0x00696261
     344:	332e3331 			; <UNDEFINED> instruction: 0x332e3331
     348:	2e2f312e 	sufcsep	f3, f7, #0.5
     34c:	2e2e2f2e 	cdpcs	15, 2, cr2, cr14, cr14, {1}
     350:	2f2e2e2f 	svccs	0x002e2e2f
     354:	612f2e2e 			; <UNDEFINED> instruction: 0x612f2e2e
     358:	6e2d6d72 	mcrvs	13, 1, r6, cr13, cr2, {3}
     35c:	2d656e6f 	stclcs	14, cr6, [r5, #-444]!	; 0xfffffe44
     360:	69626165 	stmdbvs	r2!, {r0, r2, r5, r6, r8, sp, lr}^
     364:	636e692f 	cmnvs	lr, #770048	; 0xbc000
     368:	6564756c 	strbvs	r7, [r4, #-1388]!	; 0xfffffa94
     36c:	63616d2f 	cmnvs	r1, #3008	; 0xbc0
     370:	656e6968 	strbvs	r6, [lr, #-2408]!	; 0xfffff698
     374:	5c3a4300 	ldcpl	3, cr4, [sl], #-0
     378:	535c5453 	cmppl	ip, #1392508928	; 0x53000000
     37c:	32334d54 	eorscc	r4, r3, #84, 26	; 0x1500
     380:	65627543 	strbvs	r7, [r2, #-1347]!	; 0xfffffabd
     384:	5f454449 	svcpl	0x00454449
     388:	38312e31 	ldmdacc	r1!, {r0, r4, r5, r9, sl, fp, sp}
     38c:	535c312e 	cmppl	ip, #-2147483637	; 0x8000000b
     390:	32334d54 	eorscc	r4, r3, #84, 26	; 0x1500
     394:	65627543 	strbvs	r7, [r2, #-1347]!	; 0xfffffabd
     398:	5c454449 	cfstrdpl	mvd4, [r5], {73}	; 0x49
     39c:	67756c70 			; <UNDEFINED> instruction: 0x67756c70
     3a0:	5c736e69 	ldclpl	14, cr6, [r3], #-420	; 0xfffffe5c
     3a4:	2e6d6f63 	cdpcs	15, 6, cr6, cr13, cr3, {3}
     3a8:	732e7473 			; <UNDEFINED> instruction: 0x732e7473
     3ac:	32336d74 	eorscc	r6, r3, #116, 26	; 0x1d00
     3b0:	65627563 	strbvs	r7, [r2, #-1379]!	; 0xfffffa9d
     3b4:	6564692e 	strbvs	r6, [r4, #-2350]!	; 0xfffff6d2
     3b8:	75636d2e 	strbvc	r6, [r3, #-3374]!	; 0xfffff2d2
     3bc:	7478652e 	ldrbtvc	r6, [r8], #-1326	; 0xfffffad2
     3c0:	616e7265 	cmnvs	lr, r5, ror #4
     3c4:	6f6f746c 	svcvs	0x006f746c
     3c8:	672e736c 	strvs	r7, [lr, -ip, ror #6]!
     3cc:	742d756e 	strtvc	r7, [sp], #-1390	; 0xfffffa92
     3d0:	736c6f6f 	cmnvc	ip, #444	; 0x1bc
     3d4:	726f662d 	rsbvc	r6, pc, #47185920	; 0x2d00000
     3d8:	6d74732d 	ldclvs	3, cr7, [r4, #-180]!	; 0xffffff4c
     3dc:	312e3233 			; <UNDEFINED> instruction: 0x312e3233
     3e0:	2e332e33 	mrccs	14, 1, r2, cr3, cr3, {1}
     3e4:	316c6572 	smccc	50770	; 0xc652
     3e8:	6e69772e 	cdpvs	7, 6, cr7, cr9, cr14, {1}
     3ec:	315f3233 	cmpcc	pc, r3, lsr r2	; <UNPREDICTABLE>
     3f0:	302e302e 	eorcc	r3, lr, lr, lsr #32
     3f4:	3230322e 	eorscc	r3, r0, #-536870910	; 0xe0000002
     3f8:	30313134 	eorscc	r3, r1, r4, lsr r1
     3fc:	34333138 	ldrtcc	r3, [r3], #-312	; 0xfffffec8
     400:	6f745c34 	svcvs	0x00745c34
     404:	5c736c6f 	ldclpl	12, cr6, [r3], #-444	; 0xfffffe44
     408:	2f6e6962 	svccs	0x006e6962
     40c:	6c2f2e2e 	stcvs	14, cr2, [pc], #-184	; 35c <_Min_Heap_Size+0x15c>
     410:	672f6269 	strvs	r6, [pc, -r9, ror #4]!
     414:	612f6363 			; <UNDEFINED> instruction: 0x612f6363
     418:	6e2d6d72 	mcrvs	13, 1, r6, cr13, cr2, {3}
     41c:	2d656e6f 	stclcs	14, cr6, [r5, #-444]!	; 0xfffffe44
     420:	69626165 	stmdbvs	r2!, {r0, r2, r5, r6, r8, sp, lr}^
     424:	2e33312f 	rsfcssp	f3, f3, #10.0
     428:	2f312e33 	svccs	0x00312e33
     42c:	6c636e69 	stclvs	14, cr6, [r3], #-420	; 0xfffffe5c
     430:	00656475 	rsbeq	r6, r5, r5, ror r4
     434:	69616d00 	stmdbvs	r1!, {r8, sl, fp, sp, lr}^
     438:	00632e6e 	rsbeq	r2, r3, lr, ror #28
     43c:	73000001 	movwvc	r0, #1
     440:	6f696474 	svcvs	0x00696474
     444:	0200682e 	andeq	r6, r0, #3014656	; 0x2e0000
     448:	615f0000 	cmpvs	pc, r0
     44c:	2e69736e 	cdpcs	3, 6, cr7, cr9, cr14, {3}
     450:	00020068 	andeq	r0, r2, r8, rrx
     454:	77656e00 	strbvc	r6, [r5, -r0, lsl #28]!
     458:	2e62696c 	vnmulcs.f16	s13, s4, s25	; <UNPREDICTABLE>
     45c:	00030068 	andeq	r0, r3, r8, rrx
     460:	656e5f00 	strbvs	r5, [lr, #-3840]!	; 0xfffff100
     464:	62696c77 	rsbvs	r6, r9, #30464	; 0x7700
     468:	7265765f 	rsbvc	r7, r5, #99614720	; 0x5f00000
     46c:	6e6f6973 			; <UNDEFINED> instruction: 0x6e6f6973
     470:	0200682e 	andeq	r6, r0, #3014656	; 0x2e0000
     474:	6f630000 	svcvs	0x00630000
     478:	6769666e 	strbvs	r6, [r9, -lr, ror #12]!
     47c:	0400682e 	streq	r6, [r0], #-2094	; 0xfffff7d2
     480:	65690000 	strbvs	r0, [r9, #-0]!
     484:	70666565 	rsbvc	r6, r6, r5, ror #10
     488:	0500682e 	streq	r6, [r0, #-2094]	; 0xfffff7d2
     48c:	65660000 	strbvs	r0, [r6, #-0]!
     490:	72757461 	rsbsvc	r7, r5, #1627389952	; 0x61000000
     494:	682e7365 	stmdavs	lr!, {r0, r2, r5, r6, r8, r9, ip, sp, lr}
     498:	00000400 	andeq	r0, r0, r0, lsl #8
     49c:	66656463 	strbtvs	r6, [r5], -r3, ror #8
     4a0:	00682e73 	rsbeq	r2, r8, r3, ror lr
     4a4:	5f000004 	svcpl	0x00000004
     4a8:	61666564 	cmnvs	r6, r4, ror #10
     4ac:	5f746c75 	svcpl	0x00746c75
     4b0:	65707974 	ldrbvs	r7, [r0, #-2420]!	; 0xfffff68c
     4b4:	00682e73 	rsbeq	r2, r8, r3, ror lr
     4b8:	73000005 	movwvc	r0, #5
     4bc:	65646474 	strbvs	r6, [r4, #-1140]!	; 0xfffffb8c
     4c0:	00682e66 	rsbeq	r2, r8, r6, ror #28
     4c4:	73000006 	movwvc	r0, #6
     4c8:	72616474 	rsbvc	r6, r1, #116, 8	; 0x74000000
     4cc:	00682e67 	rsbeq	r2, r8, r7, ror #28
     4d0:	72000006 	andvc	r0, r0, #6
     4d4:	746e6565 	strbtvc	r6, [lr], #-1381	; 0xfffffa9b
     4d8:	0400682e 	streq	r6, [r0], #-2094	; 0xfffff7d2
     4dc:	745f0000 	ldrbvc	r0, [pc], #-0	; 4e4 <_Min_Stack_Size+0xe4>
     4e0:	73657079 	cmnvc	r5, #121	; 0x79
     4e4:	0400682e 	streq	r6, [r0], #-2094	; 0xfffff7d2
     4e8:	745f0000 	ldrbvc	r0, [pc], #-0	; 4f0 <_Min_Stack_Size+0xf0>
     4ec:	73657079 	cmnvc	r5, #121	; 0x79
     4f0:	0500682e 	streq	r6, [r0, #-2094]	; 0xfffff7d2
     4f4:	6f6c0000 	svcvs	0x006c0000
     4f8:	682e6b63 	stmdavs	lr!, {r0, r1, r5, r6, r8, r9, fp, sp, lr}
     4fc:	00000400 	andeq	r0, r0, r0, lsl #8
     500:	65737361 	ldrbvs	r7, [r3, #-865]!	; 0xfffffc9f
     504:	682e7472 	stmdavs	lr!, {r1, r4, r5, r6, sl, ip, sp, lr}
     508:	00000200 	andeq	r0, r0, r0, lsl #4
     50c:	69647473 	stmdbvs	r4!, {r0, r1, r4, r5, r6, sl, ip, sp, lr}^
     510:	00682e6f 	rsbeq	r2, r8, pc, ror #28
     514:	00000004 	andeq	r0, r0, r4
     518:	05000105 	streq	r0, [r0, #-261]	; 0xfffffefb
     51c:	00027002 	andeq	r7, r2, r2
     520:	011e0308 	tsteq	lr, r8, lsl #6
     524:	05301305 	ldreq	r1, [r0, #-773]!	; 0xfffffcfb
     528:	02055809 	andeq	r5, r5, #589824	; 0x90000
     52c:	0b026930 	bleq	9a9f4 <_Min_Stack_Size+0x9a5f4>
     530:	e2010100 	and	r0, r1, #0, 2
     534:	03000008 	movweq	r0, #8
     538:	00067200 	andeq	r7, r6, r0, lsl #4
     53c:	fb010200 	blx	40d46 <_Min_Stack_Size+0x40946>
     540:	01000d0e 	tsteq	r0, lr, lsl #26
     544:	00010101 	andeq	r0, r1, r1, lsl #2
     548:	00010000 	andeq	r0, r1, r0
     54c:	2e2e0100 	sufcse	f0, f6, f0
     550:	6372532f 	cmnvs	r2, #-1140850688	; 0xbc000000
     554:	5c3a4300 	ldcpl	3, cr4, [sl], #-0
     558:	535c5453 	cmppl	ip, #1392508928	; 0x53000000
     55c:	32334d54 	eorscc	r4, r3, #84, 26	; 0x1500
     560:	65627543 	strbvs	r7, [r2, #-1347]!	; 0xfffffabd
     564:	5f454449 	svcpl	0x00454449
     568:	38312e31 	ldmdacc	r1!, {r0, r4, r5, r9, sl, fp, sp}
     56c:	535c312e 	cmppl	ip, #-2147483637	; 0x8000000b
     570:	32334d54 	eorscc	r4, r3, #84, 26	; 0x1500
     574:	65627543 	strbvs	r7, [r2, #-1347]!	; 0xfffffabd
     578:	5c454449 	cfstrdpl	mvd4, [r5], {73}	; 0x49
     57c:	67756c70 			; <UNDEFINED> instruction: 0x67756c70
     580:	5c736e69 	ldclpl	14, cr6, [r3], #-420	; 0xfffffe5c
     584:	2e6d6f63 	cdpcs	15, 6, cr6, cr13, cr3, {3}
     588:	732e7473 			; <UNDEFINED> instruction: 0x732e7473
     58c:	32336d74 	eorscc	r6, r3, #116, 26	; 0x1d00
     590:	65627563 	strbvs	r7, [r2, #-1379]!	; 0xfffffa9d
     594:	6564692e 	strbvs	r6, [r4, #-2350]!	; 0xfffff6d2
     598:	75636d2e 	strbvc	r6, [r3, #-3374]!	; 0xfffff2d2
     59c:	7478652e 	ldrbtvc	r6, [r8], #-1326	; 0xfffffad2
     5a0:	616e7265 	cmnvs	lr, r5, ror #4
     5a4:	6f6f746c 	svcvs	0x006f746c
     5a8:	672e736c 	strvs	r7, [lr, -ip, ror #6]!
     5ac:	742d756e 	strtvc	r7, [sp], #-1390	; 0xfffffa92
     5b0:	736c6f6f 	cmnvc	ip, #444	; 0x1bc
     5b4:	726f662d 	rsbvc	r6, pc, #47185920	; 0x2d00000
     5b8:	6d74732d 	ldclvs	3, cr7, [r4, #-180]!	; 0xffffff4c
     5bc:	312e3233 			; <UNDEFINED> instruction: 0x312e3233
     5c0:	2e332e33 	mrccs	14, 1, r2, cr3, cr3, {1}
     5c4:	316c6572 	smccc	50770	; 0xc652
     5c8:	6e69772e 	cdpvs	7, 6, cr7, cr9, cr14, {1}
     5cc:	315f3233 	cmpcc	pc, r3, lsr r2	; <UNPREDICTABLE>
     5d0:	302e302e 	eorcc	r3, lr, lr, lsr #32
     5d4:	3230322e 	eorscc	r3, r0, #-536870910	; 0xe0000002
     5d8:	30313134 	eorscc	r3, r1, r4, lsr r1
     5dc:	34333138 	ldrtcc	r3, [r3], #-312	; 0xfffffec8
     5e0:	6f745c34 	svcvs	0x00745c34
     5e4:	5c736c6f 	ldclpl	12, cr6, [r3], #-444	; 0xfffffe44
     5e8:	2f6e6962 	svccs	0x006e6962
     5ec:	6c2f2e2e 	stcvs	14, cr2, [pc], #-184	; 53c <_Min_Stack_Size+0x13c>
     5f0:	672f6269 	strvs	r6, [pc, -r9, ror #4]!
     5f4:	612f6363 			; <UNDEFINED> instruction: 0x612f6363
     5f8:	6e2d6d72 	mcrvs	13, 1, r6, cr13, cr2, {3}
     5fc:	2d656e6f 	stclcs	14, cr6, [r5, #-444]!	; 0xfffffe44
     600:	69626165 	stmdbvs	r2!, {r0, r2, r5, r6, r8, sp, lr}^
     604:	2e33312f 	rsfcssp	f3, f3, #10.0
     608:	2f312e33 	svccs	0x00312e33
     60c:	2e2f2e2e 	cdpcs	14, 2, cr2, cr15, cr14, {1}
     610:	2e2e2f2e 	cdpcs	15, 2, cr2, cr14, cr14, {1}
     614:	2f2e2e2f 	svccs	0x002e2e2f
     618:	2d6d7261 	sfmcs	f7, 2, [sp, #-388]!	; 0xfffffe7c
     61c:	656e6f6e 	strbvs	r6, [lr, #-3950]!	; 0xfffff092
     620:	6261652d 	rsbvs	r6, r1, #188743680	; 0xb400000
     624:	6e692f69 	cdpvs	15, 6, cr2, cr9, cr9, {3}
     628:	64756c63 	ldrbtvs	r6, [r5], #-3171	; 0xfffff39d
     62c:	616d2f65 	cmnvs	sp, r5, ror #30
     630:	6e696863 	cdpvs	8, 6, cr6, cr9, cr3, {3}
     634:	3a430065 	bcc	10c07d0 <_Min_Stack_Size+0x10c03d0>
     638:	5c54535c 	mrrcpl	3, 5, r5, r4, cr12
     63c:	334d5453 	movtcc	r5, #54355	; 0xd453
     640:	62754332 	rsbsvs	r4, r5, #-939524096	; 0xc8000000
     644:	45444965 	strbmi	r4, [r4, #-2405]	; 0xfffff69b
     648:	312e315f 			; <UNDEFINED> instruction: 0x312e315f
     64c:	5c312e38 	ldcpl	14, cr2, [r1], #-224	; 0xffffff20
     650:	334d5453 	movtcc	r5, #54355	; 0xd453
     654:	62754332 	rsbsvs	r4, r5, #-939524096	; 0xc8000000
     658:	45444965 	strbmi	r4, [r4, #-2405]	; 0xfffff69b
     65c:	756c705c 	strbvc	r7, [ip, #-92]!	; 0xffffffa4
     660:	736e6967 	cmnvc	lr, #1687552	; 0x19c000
     664:	6d6f635c 	stclvs	3, cr6, [pc, #-368]!	; 4fc <_Min_Stack_Size+0xfc>
     668:	2e74732e 	cdpcs	3, 7, cr7, cr4, cr14, {1}
     66c:	336d7473 	cmncc	sp, #1929379840	; 0x73000000
     670:	62756332 	rsbsvs	r6, r5, #-939524096	; 0xc8000000
     674:	64692e65 	strbtvs	r2, [r9], #-3685	; 0xfffff19b
     678:	636d2e65 	cmnvs	sp, #1616	; 0x650
     67c:	78652e75 	stmdavc	r5!, {r0, r2, r4, r5, r6, r9, sl, fp, sp}^
     680:	6e726574 	mrcvs	5, 3, r6, cr2, cr4, {3}
     684:	6f746c61 	svcvs	0x00746c61
     688:	2e736c6f 	cdpcs	12, 7, cr6, cr3, cr15, {3}
     68c:	2d756e67 	ldclcs	14, cr6, [r5, #-412]!	; 0xfffffe64
     690:	6c6f6f74 	stclvs	15, cr6, [pc], #-464	; 4c8 <_Min_Stack_Size+0xc8>
     694:	6f662d73 	svcvs	0x00662d73
     698:	74732d72 	ldrbtvc	r2, [r3], #-3442	; 0xfffff28e
     69c:	2e32336d 	cdpcs	3, 3, cr3, cr2, cr13, {3}
     6a0:	332e3331 			; <UNDEFINED> instruction: 0x332e3331
     6a4:	6c65722e 	sfmvs	f7, 2, [r5], #-184	; 0xffffff48
     6a8:	69772e31 	ldmdbvs	r7!, {r0, r4, r5, r9, sl, fp, sp}^
     6ac:	5f32336e 	svcpl	0x0032336e
     6b0:	2e302e31 	mrccs	14, 1, r2, cr0, cr1, {1}
     6b4:	30322e30 	eorscc	r2, r2, r0, lsr lr
     6b8:	31313432 	teqcc	r1, r2, lsr r4
     6bc:	33313830 	teqcc	r1, #48, 16	; 0x300000
     6c0:	745c3434 	ldrbvc	r3, [ip], #-1076	; 0xfffffbcc
     6c4:	736c6f6f 	cmnvc	ip, #444	; 0x1bc
     6c8:	6e69625c 	mcrvs	2, 3, r6, cr9, cr12, {2}
     6cc:	2f2e2e2f 	svccs	0x002e2e2f
     6d0:	2f62696c 	svccs	0x0062696c
     6d4:	2f636367 	svccs	0x00636367
     6d8:	2d6d7261 	sfmcs	f7, 2, [sp, #-388]!	; 0xfffffe7c
     6dc:	656e6f6e 	strbvs	r6, [lr, #-3950]!	; 0xfffff092
     6e0:	6261652d 	rsbvs	r6, r1, #188743680	; 0xb400000
     6e4:	33312f69 	teqcc	r1, #420	; 0x1a4
     6e8:	312e332e 			; <UNDEFINED> instruction: 0x312e332e
     6ec:	2f2e2e2f 	svccs	0x002e2e2f
     6f0:	2e2f2e2e 	cdpcs	14, 2, cr2, cr15, cr14, {1}
     6f4:	2e2e2f2e 	cdpcs	15, 2, cr2, cr14, cr14, {1}
     6f8:	6d72612f 	ldfvse	f6, [r2, #-188]!	; 0xffffff44
     6fc:	6e6f6e2d 	cdpvs	14, 6, cr6, cr15, cr13, {1}
     700:	61652d65 	cmnvs	r5, r5, ror #26
     704:	692f6962 	stmdbvs	pc!, {r1, r5, r6, r8, fp, sp, lr}	; <UNPREDICTABLE>
     708:	756c636e 	strbvc	r6, [ip, #-878]!	; 0xfffffc92
     70c:	732f6564 			; <UNDEFINED> instruction: 0x732f6564
     710:	43007379 	movwmi	r7, #889	; 0x379
     714:	54535c3a 	ldrbpl	r5, [r3], #-3130	; 0xfffff3c6
     718:	4d54535c 	ldclmi	3, cr5, [r4, #-368]	; 0xfffffe90
     71c:	75433233 	strbvc	r3, [r3, #-563]	; 0xfffffdcd
     720:	44496562 	strbmi	r6, [r9], #-1378	; 0xfffffa9e
     724:	2e315f45 	cdpcs	15, 3, cr5, cr1, cr5, {2}
     728:	312e3831 			; <UNDEFINED> instruction: 0x312e3831
     72c:	4d54535c 	ldclmi	3, cr5, [r4, #-368]	; 0xfffffe90
     730:	75433233 	strbvc	r3, [r3, #-563]	; 0xfffffdcd
     734:	44496562 	strbmi	r6, [r9], #-1378	; 0xfffffa9e
     738:	6c705c45 	ldclvs	12, cr5, [r0], #-276	; 0xfffffeec
     73c:	6e696775 	mcrvs	7, 3, r6, cr9, cr5, {3}
     740:	6f635c73 	svcvs	0x00635c73
     744:	74732e6d 	ldrbtvc	r2, [r3], #-3693	; 0xfffff193
     748:	6d74732e 	ldclvs	3, cr7, [r4, #-184]!	; 0xffffff48
     74c:	75633233 	strbvc	r3, [r3, #-563]!	; 0xfffffdcd
     750:	692e6562 	stmdbvs	lr!, {r1, r5, r6, r8, sl, sp, lr}
     754:	6d2e6564 	cfstr32vs	mvfx6, [lr, #-400]!	; 0xfffffe70
     758:	652e7563 	strvs	r7, [lr, #-1379]!	; 0xfffffa9d
     75c:	72657478 	rsbvc	r7, r5, #120, 8	; 0x78000000
     760:	746c616e 	strbtvc	r6, [ip], #-366	; 0xfffffe92
     764:	736c6f6f 	cmnvc	ip, #444	; 0x1bc
     768:	756e672e 	strbvc	r6, [lr, #-1838]!	; 0xfffff8d2
     76c:	6f6f742d 	svcvs	0x006f742d
     770:	662d736c 	strtvs	r7, [sp], -ip, ror #6
     774:	732d726f 			; <UNDEFINED> instruction: 0x732d726f
     778:	32336d74 	eorscc	r6, r3, #116, 26	; 0x1d00
     77c:	2e33312e 	rsfcssp	f3, f3, #0.5
     780:	65722e33 	ldrbvs	r2, [r2, #-3635]!	; 0xfffff1cd
     784:	772e316c 	strvc	r3, [lr, -ip, ror #2]!
     788:	32336e69 	eorscc	r6, r3, #1680	; 0x690
     78c:	302e315f 	eorcc	r3, lr, pc, asr r1
     790:	322e302e 	eorcc	r3, lr, #46	; 0x2e
     794:	31343230 	teqcc	r4, r0, lsr r2
     798:	31383031 	teqcc	r8, r1, lsr r0
     79c:	5c343433 	cfldrspl	mvf3, [r4], #-204	; 0xffffff34
     7a0:	6c6f6f74 	stclvs	15, cr6, [pc], #-464	; 5d8 <_Min_Stack_Size+0x1d8>
     7a4:	69625c73 	stmdbvs	r2!, {r0, r1, r4, r5, r6, sl, fp, ip, lr}^
     7a8:	2e2e2f6e 	cdpcs	15, 2, cr2, cr14, cr14, {3}
     7ac:	62696c2f 	rsbvs	r6, r9, #12032	; 0x2f00
     7b0:	6363672f 	cmnvs	r3, #12320768	; 0xbc0000
     7b4:	6d72612f 	ldfvse	f6, [r2, #-188]!	; 0xffffff44
     7b8:	6e6f6e2d 	cdpvs	14, 6, cr6, cr15, cr13, {1}
     7bc:	61652d65 	cmnvs	r5, r5, ror #26
     7c0:	312f6962 			; <UNDEFINED> instruction: 0x312f6962
     7c4:	2e332e33 	mrccs	14, 1, r2, cr3, cr3, {1}
     7c8:	2e2e2f31 	mcrcs	15, 1, r2, cr14, cr1, {1}
     7cc:	2f2e2e2f 	svccs	0x002e2e2f
     7d0:	2e2f2e2e 	cdpcs	14, 2, cr2, cr15, cr14, {1}
     7d4:	72612f2e 	rsbvc	r2, r1, #46, 30	; 0xb8
     7d8:	6f6e2d6d 	svcvs	0x006e2d6d
     7dc:	652d656e 	strvs	r6, [sp, #-1390]!	; 0xfffffa92
     7e0:	2f696261 	svccs	0x00696261
     7e4:	6c636e69 	stclvs	14, cr6, [r3], #-420	; 0xfffffe5c
     7e8:	00656475 	rsbeq	r6, r5, r5, ror r4
     7ec:	535c3a43 	cmppl	ip, #274432	; 0x43000
     7f0:	54535c54 	ldrbpl	r5, [r3], #-3156	; 0xfffff3ac
     7f4:	4332334d 	teqmi	r2, #872415233	; 0x34000001
     7f8:	49656275 	stmdbmi	r5!, {r0, r2, r4, r5, r6, r9, sp, lr}^
     7fc:	315f4544 	cmpcc	pc, r4, asr #10
     800:	2e38312e 	rsfcsep	f3, f0, #0.5
     804:	54535c31 	ldrbpl	r5, [r3], #-3121	; 0xfffff3cf
     808:	4332334d 	teqmi	r2, #872415233	; 0x34000001
     80c:	49656275 	stmdbmi	r5!, {r0, r2, r4, r5, r6, r9, sp, lr}^
     810:	705c4544 	subsvc	r4, ip, r4, asr #10
     814:	6967756c 	stmdbvs	r7!, {r2, r3, r5, r6, r8, sl, ip, sp, lr}^
     818:	635c736e 	cmpvs	ip, #-1207959551	; 0xb8000001
     81c:	732e6d6f 			; <UNDEFINED> instruction: 0x732e6d6f
     820:	74732e74 	ldrbtvc	r2, [r3], #-3700	; 0xfffff18c
     824:	6332336d 	teqvs	r2, #-1275068415	; 0xb4000001
     828:	2e656275 	mcrcs	2, 3, r6, cr5, cr5, {3}
     82c:	2e656469 	cdpcs	4, 6, cr6, cr5, cr9, {3}
     830:	2e75636d 	cdpcs	3, 7, cr6, cr5, cr13, {3}
     834:	65747865 	ldrbvs	r7, [r4, #-2149]!	; 0xfffff79b
     838:	6c616e72 	stclvs	14, cr6, [r1], #-456	; 0xfffffe38
     83c:	6c6f6f74 	stclvs	15, cr6, [pc], #-464	; 674 <_Min_Stack_Size+0x274>
     840:	6e672e73 	mcrvs	14, 3, r2, cr7, cr3, {3}
     844:	6f742d75 	svcvs	0x00742d75
     848:	2d736c6f 	ldclcs	12, cr6, [r3, #-444]!	; 0xfffffe44
     84c:	2d726f66 	ldclcs	15, cr6, [r2, #-408]!	; 0xfffffe68
     850:	336d7473 	cmncc	sp, #1929379840	; 0x73000000
     854:	33312e32 	teqcc	r1, #800	; 0x320
     858:	722e332e 	eorvc	r3, lr, #-1207959552	; 0xb8000000
     85c:	2e316c65 	cdpcs	12, 3, cr6, cr1, cr5, {3}
     860:	336e6977 	cmncc	lr, #1949696	; 0x1dc000
     864:	2e315f32 	mrccs	15, 1, r5, cr1, cr2, {1}
     868:	2e302e30 	mrccs	14, 1, r2, cr0, cr0, {1}
     86c:	34323032 	ldrtcc	r3, [r2], #-50	; 0xffffffce
     870:	38303131 	ldmdacc	r0!, {r0, r4, r5, r8, ip, sp}
     874:	34343331 	ldrtcc	r3, [r4], #-817	; 0xfffffccf
     878:	6f6f745c 	svcvs	0x006f745c
     87c:	625c736c 	subsvs	r7, ip, #108, 6	; 0xb0000001
     880:	2e2f6e69 	cdpcs	14, 2, cr6, cr15, cr9, {3}
     884:	72612f2e 	rsbvc	r2, r1, #46, 30	; 0xb8
     888:	6f6e2d6d 	svcvs	0x006e2d6d
     88c:	652d656e 	strvs	r6, [sp, #-1390]!	; 0xfffffa92
     890:	2f696261 	svccs	0x00696261
     894:	6c636e69 	stclvs	14, cr6, [r3], #-420	; 0xfffffe5c
     898:	2f656475 	svccs	0x00656475
     89c:	6c77656e 	cfldr64vs	mvdx6, [r7], #-440	; 0xfffffe48
     8a0:	6e2d6269 	cdpvs	2, 2, cr6, cr13, cr9, {3}
     8a4:	006f6e61 	rsbeq	r6, pc, r1, ror #28
     8a8:	535c3a43 	cmppl	ip, #274432	; 0x43000
     8ac:	54535c54 	ldrbpl	r5, [r3], #-3156	; 0xfffff3ac
     8b0:	4332334d 	teqmi	r2, #872415233	; 0x34000001
     8b4:	49656275 	stmdbmi	r5!, {r0, r2, r4, r5, r6, r9, sp, lr}^
     8b8:	315f4544 	cmpcc	pc, r4, asr #10
     8bc:	2e38312e 	rsfcsep	f3, f0, #0.5
     8c0:	54535c31 	ldrbpl	r5, [r3], #-3121	; 0xfffff3cf
     8c4:	4332334d 	teqmi	r2, #872415233	; 0x34000001
     8c8:	49656275 	stmdbmi	r5!, {r0, r2, r4, r5, r6, r9, sp, lr}^
     8cc:	705c4544 	subsvc	r4, ip, r4, asr #10
     8d0:	6967756c 	stmdbvs	r7!, {r2, r3, r5, r6, r8, sl, ip, sp, lr}^
     8d4:	635c736e 	cmpvs	ip, #-1207959551	; 0xb8000001
     8d8:	732e6d6f 			; <UNDEFINED> instruction: 0x732e6d6f
     8dc:	74732e74 	ldrbtvc	r2, [r3], #-3700	; 0xfffff18c
     8e0:	6332336d 	teqvs	r2, #-1275068415	; 0xb4000001
     8e4:	2e656275 	mcrcs	2, 3, r6, cr5, cr5, {3}
     8e8:	2e656469 	cdpcs	4, 6, cr6, cr5, cr9, {3}
     8ec:	2e75636d 	cdpcs	3, 7, cr6, cr5, cr13, {3}
     8f0:	65747865 	ldrbvs	r7, [r4, #-2149]!	; 0xfffff79b
     8f4:	6c616e72 	stclvs	14, cr6, [r1], #-456	; 0xfffffe38
     8f8:	6c6f6f74 	stclvs	15, cr6, [pc], #-464	; 730 <_Min_Stack_Size+0x330>
     8fc:	6e672e73 	mcrvs	14, 3, r2, cr7, cr3, {3}
     900:	6f742d75 	svcvs	0x00742d75
     904:	2d736c6f 	ldclcs	12, cr6, [r3, #-444]!	; 0xfffffe44
     908:	2d726f66 	ldclcs	15, cr6, [r2, #-408]!	; 0xfffffe68
     90c:	336d7473 	cmncc	sp, #1929379840	; 0x73000000
     910:	33312e32 	teqcc	r1, #800	; 0x320
     914:	722e332e 	eorvc	r3, lr, #-1207959552	; 0xb8000000
     918:	2e316c65 	cdpcs	12, 3, cr6, cr1, cr5, {3}
     91c:	336e6977 	cmncc	lr, #1949696	; 0x1dc000
     920:	2e315f32 	mrccs	15, 1, r5, cr1, cr2, {1}
     924:	2e302e30 	mrccs	14, 1, r2, cr0, cr0, {1}
     928:	34323032 	ldrtcc	r3, [r2], #-50	; 0xffffffce
     92c:	38303131 	ldmdacc	r0!, {r0, r4, r5, r8, ip, sp}
     930:	34343331 	ldrtcc	r3, [r4], #-817	; 0xfffffccf
     934:	6f6f745c 	svcvs	0x006f745c
     938:	625c736c 	subsvs	r7, ip, #108, 6	; 0xb0000001
     93c:	2e2f6e69 	cdpcs	14, 2, cr6, cr15, cr9, {3}
     940:	696c2f2e 	stmdbvs	ip!, {r1, r2, r3, r5, r8, r9, sl, fp, sp}^
     944:	63672f62 	cmnvs	r7, #392	; 0x188
     948:	72612f63 	rsbvc	r2, r1, #396	; 0x18c
     94c:	6f6e2d6d 	svcvs	0x006e2d6d
     950:	652d656e 	strvs	r6, [sp, #-1390]!	; 0xfffffa92
     954:	2f696261 	svccs	0x00696261
     958:	332e3331 			; <UNDEFINED> instruction: 0x332e3331
     95c:	692f312e 	stmdbvs	pc!, {r1, r2, r3, r5, r8, ip, sp}	; <UNPREDICTABLE>
     960:	756c636e 	strbvc	r6, [ip, #-878]!	; 0xfffffc92
     964:	00006564 	andeq	r6, r0, r4, ror #10
     968:	63737973 	cmnvs	r3, #1884160	; 0x1cc000
     96c:	736c6c61 	cmnvc	ip, #24832	; 0x6100
     970:	0100632e 	tsteq	r0, lr, lsr #6
     974:	645f0000 	ldrbvs	r0, [pc], #-0	; 97c <_Min_Stack_Size+0x57c>
     978:	75616665 	strbvc	r6, [r1, #-1637]!	; 0xfffff99b
     97c:	745f746c 	ldrbvc	r7, [pc], #-1132	; 984 <_Min_Stack_Size+0x584>
     980:	73657079 	cmnvc	r5, #121	; 0x79
     984:	0200682e 	andeq	r6, r0, #3014656	; 0x2e0000
     988:	745f0000 	ldrbvc	r0, [pc], #-0	; 990 <_Min_Stack_Size+0x590>
     98c:	73657079 	cmnvc	r5, #121	; 0x79
     990:	0300682e 	movweq	r6, #2094	; 0x82e
     994:	735f0000 	cmpvc	pc, #0
     998:	6e696474 	mcrvs	4, 3, r6, cr9, cr4, {3}
     99c:	00682e74 	rsbeq	r2, r8, r4, ror lr
     9a0:	5f000003 	svcpl	0x00000003
     9a4:	656d6974 	strbvs	r6, [sp, #-2420]!	; 0xfffff68c
     9a8:	2e6c6176 	mcrcs	1, 3, r6, cr12, cr6, {3}
     9ac:	00030068 	andeq	r0, r3, r8, rrx
     9b0:	69745f00 	ldmdbvs	r4!, {r8, r9, sl, fp, ip, lr}^
     9b4:	7073656d 	rsbsvc	r6, r3, sp, ror #10
     9b8:	682e6365 	stmdavs	lr!, {r0, r2, r5, r6, r8, r9, sp, lr}
     9bc:	00000300 	andeq	r0, r0, r0, lsl #6
     9c0:	65707974 	ldrbvs	r7, [r0, #-2420]!	; 0xfffff68c
     9c4:	00682e73 	rsbeq	r2, r8, r3, ror lr
     9c8:	73000003 	movwvc	r0, #3
     9cc:	2e746174 	mrccs	1, 3, r6, cr4, cr4, {3}
     9d0:	00030068 	andeq	r0, r3, r8, rrx
     9d4:	6d697400 	cfstrdvs	mvd7, [r9, #-0]
     9d8:	682e7365 	stmdavs	lr!, {r0, r2, r5, r6, r8, r9, ip, sp, lr}
     9dc:	00000300 	andeq	r0, r0, r0, lsl #6
     9e0:	6e727265 	cdpvs	2, 7, cr7, cr2, cr5, {3}
     9e4:	00682e6f 	rsbeq	r2, r8, pc, ror #28
     9e8:	5f000003 	svcpl	0x00000003
     9ec:	69736e61 	ldmdbvs	r3!, {r0, r5, r6, r9, sl, fp, sp, lr}^
     9f0:	0400682e 	streq	r6, [r0], #-2094	; 0xfffff7d2
     9f4:	656e0000 	strbvs	r0, [lr, #-0]!
     9f8:	62696c77 	rsbvs	r6, r9, #30464	; 0x7700
     9fc:	0500682e 	streq	r6, [r0, #-2094]	; 0xfffff7d2
     a00:	6e5f0000 	cdpvs	0, 5, cr0, cr15, cr0, {0}
     a04:	696c7765 	stmdbvs	ip!, {r0, r2, r5, r6, r8, r9, sl, ip, sp, lr}^
     a08:	65765f62 	ldrbvs	r5, [r6, #-3938]!	; 0xfffff09e
     a0c:	6f697372 	svcvs	0x00697372
     a10:	00682e6e 	rsbeq	r2, r8, lr, ror #28
     a14:	63000004 	movwvs	r0, #4
     a18:	69666e6f 	stmdbvs	r6!, {r0, r1, r2, r3, r5, r6, r9, sl, fp, sp, lr}^
     a1c:	00682e67 	rsbeq	r2, r8, r7, ror #28
     a20:	69000003 	stmdbvs	r0, {r0, r1}
     a24:	66656565 	strbtvs	r6, [r5], -r5, ror #10
     a28:	00682e70 	rsbeq	r2, r8, r0, ror lr
     a2c:	66000002 	strvs	r0, [r0], -r2
     a30:	75746165 	ldrbvc	r6, [r4, #-357]!	; 0xfffffe9b
     a34:	2e736572 	mrccs	5, 3, r6, cr3, cr2, {3}
     a38:	00030068 	andeq	r0, r3, r8, rrx
     a3c:	6d697400 	cfstrdvs	mvd7, [r9, #-0]
     a40:	00682e65 	rsbeq	r2, r8, r5, ror #28
     a44:	63000004 	movwvs	r0, #4
     a48:	73666564 	cmnvc	r6, #100, 10	; 0x19000000
     a4c:	0300682e 	movweq	r6, #2094	; 0x82e
     a50:	74730000 	ldrbtvc	r0, [r3], #-0
     a54:	66656464 	strbtvs	r6, [r5], -r4, ror #8
     a58:	0600682e 	streq	r6, [r0], -lr, lsr #16
     a5c:	65720000 	ldrbvs	r0, [r2, #-0]!
     a60:	2e746e65 	cdpcs	14, 7, cr6, cr4, cr5, {3}
     a64:	00030068 	andeq	r0, r3, r8, rrx
     a68:	79745f00 	ldmdbvc	r4!, {r8, r9, sl, fp, ip, lr}^
     a6c:	2e736570 	mrccs	5, 3, r6, cr3, cr0, {3}
     a70:	00020068 	andeq	r0, r2, r8, rrx
     a74:	636f6c00 	cmnvs	pc, #0, 24
     a78:	00682e6b 	rsbeq	r2, r8, fp, ror #28
     a7c:	61000003 	tstvs	r0, r3
     a80:	72657373 	rsbvc	r7, r5, #-872415231	; 0xcc000001
     a84:	00682e74 	rsbeq	r2, r8, r4, ror lr
     a88:	74000004 	strvc	r0, [r0], #-4
     a8c:	2e656d69 	cdpcs	13, 6, cr6, cr5, cr9, {3}
     a90:	00020068 	andeq	r0, r2, r8, rrx
     a94:	646e6500 	strbtvs	r6, [lr], #-1280	; 0xfffffb00
     a98:	2e6e6169 	powcsez	f6, f6, #1.0
     a9c:	00020068 	andeq	r0, r2, r8, rrx
     aa0:	6e655f00 	cdpvs	15, 6, cr5, cr5, cr0, {0}
     aa4:	6e616964 	vnmulvs.f16	s13, s2, s9	; <UNPREDICTABLE>
     aa8:	0200682e 	andeq	r6, r0, #3014656	; 0x2e0000
     aac:	65730000 	ldrbvs	r0, [r3, #-0]!
     ab0:	7463656c 	strbtvc	r6, [r3], #-1388	; 0xfffffa94
     ab4:	0300682e 	movweq	r6, #2094	; 0x82e
     ab8:	735f0000 	cmpvc	pc, #0
     abc:	65736769 	ldrbvs	r6, [r3, #-1897]!	; 0xfffff897
     ac0:	00682e74 	rsbeq	r2, r8, r4, ror lr
     ac4:	74000003 	strvc	r0, [r0], #-3
     ac8:	73656d69 	cmnvc	r5, #6720	; 0x1a40
     acc:	2e636570 	mcrcs	5, 3, r6, cr3, cr0, {3}
     ad0:	00030068 	andeq	r0, r3, r8, rrx
     ad4:	74705f00 	ldrbtvc	r5, [r0], #-3840	; 0xfffff100
     ad8:	61657268 	cmnvs	r5, r8, ror #4
     adc:	70797464 	rsbsvc	r7, r9, r4, ror #8
     ae0:	682e7365 	stmdavs	lr!, {r0, r2, r5, r6, r8, r9, ip, sp, lr}
     ae4:	00000300 	andeq	r0, r0, r0, lsl #6
     ae8:	65686373 	strbvs	r6, [r8, #-883]!	; 0xfffffc8d
     aec:	00682e64 	rsbeq	r2, r8, r4, ror #28
     af0:	74000003 	strvc	r0, [r0], #-3
     af4:	73657079 	cmnvc	r5, #121	; 0x79
     af8:	0200682e 	andeq	r6, r0, #3014656	; 0x2e0000
     afc:	6c5f0000 	mravs	r0, pc, acc0
     b00:	6c61636f 	stclvs	3, cr6, [r1], #-444	; 0xfffffe44
     b04:	00682e65 	rsbeq	r2, r8, r5, ror #28
     b08:	73000003 	movwvc	r0, #3
     b0c:	696c6474 	stmdbvs	ip!, {r2, r4, r5, r6, sl, sp, lr}^
     b10:	00682e62 	rsbeq	r2, r8, r2, ror #28
     b14:	73000004 	movwvc	r0, #4
     b18:	696c6474 	stmdbvs	ip!, {r2, r4, r5, r6, sl, sp, lr}^
     b1c:	00682e62 	rsbeq	r2, r8, r2, ror #28
     b20:	61000002 	tstvs	r0, r2
     b24:	636f6c6c 	cmnvs	pc, #108, 24	; 0x6c00
     b28:	00682e61 	rsbeq	r2, r8, r1, ror #28
     b2c:	65000004 	strvs	r0, [r0, #-4]
     b30:	6f6e7272 	svcvs	0x006e7272
     b34:	0400682e 	streq	r6, [r0], #-2094	; 0xfffff7d2
     b38:	74730000 	ldrbtvc	r0, [r3], #-0
     b3c:	2e6f6964 	vnmulcs.f16	s13, s30, s9	; <UNPREDICTABLE>
     b40:	00040068 	andeq	r0, r4, r8, rrx
     b44:	64747300 	ldrbtvs	r7, [r4], #-768	; 0xfffffd00
     b48:	2e677261 	cdpcs	2, 6, cr7, cr7, cr1, {3}
     b4c:	00060068 	andeq	r0, r6, r8, rrx
     b50:	64747300 	ldrbtvs	r7, [r4], #-768	; 0xfffffd00
     b54:	682e6f69 	stmdavs	lr!, {r0, r3, r5, r6, r8, r9, sl, fp, sp, lr}
     b58:	00000300 	andeq	r0, r0, r0, lsl #6
     b5c:	6e676973 			; <UNDEFINED> instruction: 0x6e676973
     b60:	682e6c61 	stmdavs	lr!, {r0, r5, r6, sl, fp, sp, lr}
     b64:	00000400 	andeq	r0, r0, r0, lsl #8
     b68:	6e676973 			; <UNDEFINED> instruction: 0x6e676973
     b6c:	682e6c61 	stmdavs	lr!, {r0, r5, r6, sl, fp, sp, lr}
     b70:	00000300 	andeq	r0, r0, r0, lsl #6
     b74:	69647473 	stmdbvs	r4!, {r0, r1, r4, r5, r6, sl, ip, sp, lr}^
     b78:	682e746e 	stmdavs	lr!, {r1, r2, r3, r5, r6, sl, ip, sp, lr}
     b7c:	00000600 	andeq	r0, r0, r0, lsl #12
     b80:	69647473 	stmdbvs	r4!, {r0, r1, r4, r5, r6, sl, ip, sp, lr}^
     b84:	682e746e 	stmdavs	lr!, {r1, r2, r3, r5, r6, sl, ip, sp, lr}
     b88:	00000400 	andeq	r0, r0, r0, lsl #8
     b8c:	746e695f 	strbtvc	r6, [lr], #-2399	; 0xfffff6a1
     b90:	2e707573 	mrccs	5, 3, r7, cr0, cr3, {3}
     b94:	00030068 	andeq	r0, r3, r8, rrx
     b98:	6d697400 	cfstrdvs	mvd7, [r9, #-0]
     b9c:	00682e65 	rsbeq	r2, r8, r5, ror #28
     ba0:	5f000003 	svcpl	0x00000003
     ba4:	656d6974 	strbvs	r6, [sp, #-2420]!	; 0xfffff68c
     ba8:	0200682e 	andeq	r6, r0, #3014656	; 0x2e0000
     bac:	05000000 	streq	r0, [r0, #-0]
     bb0:	02050001 	andeq	r0, r5, #1
     bb4:	080002a4 	stmdaeq	r0, {r2, r5, r7, r9}
     bb8:	05013003 	streq	r3, [r1, #-3]
     bbc:	27055b02 	strcs	r5, [r5, -r2, lsl #22]
     bc0:	3f02053c 	svccc	0x0002053c
     bc4:	053c2605 	ldreq	r2, [ip, #-1541]!	; 0xfffff9fb
     bc8:	0a053f07 	beq	1507ec <_Min_Stack_Size+0x1503ec>
     bcc:	01040200 	mrseq	r0, R12_usr
     bd0:	002e0520 	eoreq	r0, lr, r0, lsr #10
     bd4:	3c010402 	cfstrscc	mvf0, [r1], {2}
     bd8:	02000805 	andeq	r0, r0, #327680	; 0x50000
     bdc:	052e0104 	streq	r0, [lr, #-260]!	; 0xfffffefc
     be0:	26053102 	strcs	r3, [r5], -r2, lsl #2
     be4:	2f01052e 	svccs	0x0001052e
     be8:	01000b02 	tsteq	r0, r2, lsl #22
     bec:	00010501 	andeq	r0, r1, r1, lsl #10
     bf0:	00000205 	andeq	r0, r0, r5, lsl #4
     bf4:	cc030000 	stcgt	0, cr0, [r3], {-0}
     bf8:	022f0100 	eoreq	r0, pc, #0, 2
     bfc:	01010005 	tsteq	r1, r5
     c00:	05000105 	streq	r0, [r0, #-261]	; 0xfffffefb
     c04:	00000002 	andeq	r0, r0, r2
     c08:	00d00300 	sbcseq	r0, r0, r0, lsl #6
     c0c:	2f0a0501 	svccs	0x000a0501
     c10:	02210105 	eoreq	r0, r1, #1073741825	; 0x40000001
     c14:	01010005 	tsteq	r1, r5
     c18:	05000105 	streq	r0, [r0, #-261]	; 0xfffffefb
     c1c:	00000002 	andeq	r0, r0, r2
     c20:	00d50300 	sbcseq	r0, r5, r0, lsl #6
     c24:	5b040501 	blpl	102030 <_Min_Stack_Size+0x101c30>
     c28:	02000805 	andeq	r0, r0, #327680	; 0x50000
     c2c:	053c0104 	ldreq	r0, [ip, #-260]!	; 0xfffffefc
     c30:	01052f0a 	tsteq	r5, sl, lsl #30
     c34:	0004022f 	andeq	r0, r4, pc, lsr #4
     c38:	01050101 	tsteq	r5, r1, lsl #2
     c3c:	00020500 	andeq	r0, r2, r0, lsl #10
     c40:	03000000 	movweq	r0, #0
     c44:	050100dd 	streq	r0, [r1, #-221]	; 0xffffff23
     c48:	09054b03 	stmdbeq	r5, {r0, r1, r8, r9, fp, lr}
     c4c:	00020259 	andeq	r0, r2, r9, asr r2
     c50:	01050101 	tsteq	r5, r1, lsl #2
     c54:	f4020500 	vst3.8	{d0,d2,d4}, [r2], r0
     c58:	03080002 	movweq	r0, #32770	; 0x8002
     c5c:	050100e3 	streq	r0, [r1, #-227]	; 0xffffff1d
     c60:	03056a10 	movweq	r6, #23056	; 0x5a10
     c64:	220e052e 	andcs	r0, lr, #192937984	; 0xb800000
     c68:	02000905 	andeq	r0, r0, #81920	; 0x14000
     c6c:	053c0104 	ldreq	r0, [ip, #-260]!	; 0xfffffefc
     c70:	0402000c 	streq	r0, [r2], #-12
     c74:	2b053c01 	blcs	14fc80 <_Min_Stack_Size+0x14f880>
     c78:	03040200 	movweq	r0, #16896	; 0x4200
     c7c:	001d052c 	andseq	r0, sp, ip, lsr #10
     c80:	3c010402 	cfstrscc	mvf0, [r1], {2}
     c84:	054f0a05 	strbeq	r0, [pc, #-2565]	; 287 <_Min_Heap_Size+0x87>
     c88:	04022101 	streq	r2, [r2], #-257	; 0xfffffeff
     c8c:	05010100 	streq	r0, [r1, #-256]	; 0xffffff00
     c90:	02050001 	andeq	r0, r5, #1
     c94:	0800032e 	stmdaeq	r0, {r1, r2, r3, r5, r8, r9}
     c98:	0100f003 	tsteq	r0, r3	; <UNPREDICTABLE>
     c9c:	056a1005 	strbeq	r1, [sl, #-5]!
     ca0:	15052e03 	strne	r2, [r5, #-3587]	; 0xfffff1fd
     ca4:	3c040523 	cfstr32cc	mvfx0, [r4], {35}	; 0x23
     ca8:	02002b05 	andeq	r2, r0, #5120	; 0x1400
     cac:	05470304 	strbeq	r0, [r7, #-772]	; 0xfffffcfc
     cb0:	0402001d 	streq	r0, [r2], #-29	; 0xffffffe3
     cb4:	0a053c01 	beq	14fcc0 <_Min_Stack_Size+0x14f8c0>
     cb8:	2101054f 	tstcs	r1, pc, asr #10
     cbc:	01000402 	tsteq	r0, r2, lsl #8
     cc0:	00010501 	andeq	r0, r1, r1, lsl #10
     cc4:	03660205 	cmneq	r6, #1342177280	; 0x50000000
     cc8:	fd030800 	stc2	8, cr0, [r3, #-0]
     ccc:	0a050100 	beq	1410d4 <_Min_Stack_Size+0x140cd4>
     cd0:	2f01054c 	svccs	0x0001054c
     cd4:	01000602 	tsteq	r0, r2, lsl #12
     cd8:	00010501 	andeq	r0, r1, r1, lsl #10
     cdc:	037e0205 	cmneq	lr, #1342177280	; 0x50000000
     ce0:	84030800 	strhi	r0, [r3], #-2048	; 0xfffff800
     ce4:	0f050101 	svceq	0x00050101
     ce8:	4b0a055a 	blmi	282258 <_Min_Stack_Size+0x281e58>
     cec:	02210105 	eoreq	r0, r1, #1073741825	; 0x40000001
     cf0:	01010006 	tsteq	r1, r6
     cf4:	05000105 	streq	r0, [r0, #-261]	; 0xfffffefb
     cf8:	00039e02 	andeq	r9, r3, r2, lsl #28
     cfc:	018b0308 	orreq	r0, fp, r8, lsl #6
     d00:	4c0a0501 	cfstr32mi	mvfx0, [sl], {1}
     d04:	02210105 	eoreq	r0, r1, #1073741825	; 0x40000001
     d08:	01010006 	tsteq	r1, r6
     d0c:	05000105 	streq	r0, [r0, #-261]	; 0xfffffefb
     d10:	0003b402 	andeq	fp, r3, r2, lsl #8
     d14:	01910308 	orrseq	r0, r1, r8, lsl #6
     d18:	6a0a0501 	bvs	282124 <_Min_Stack_Size+0x281d24>
     d1c:	02210105 	eoreq	r0, r1, #1073741825	; 0x40000001
     d20:	01010006 	tsteq	r1, r6
     d24:	05000105 	streq	r0, [r0, #-261]	; 0xfffffefb
     d28:	00000002 	andeq	r0, r0, r2
     d2c:	01990300 	orrseq	r0, r9, r0, lsl #6
     d30:	5c0a0501 	cfstr32pl	mvfx0, [sl], {1}
     d34:	022f0105 	eoreq	r0, pc, #1073741825	; 0x40000001
     d38:	01010007 	tsteq	r1, r7
     d3c:	05000105 	streq	r0, [r0, #-261]	; 0xfffffefb
     d40:	00000002 	andeq	r0, r0, r2
     d44:	01a10300 			; <UNDEFINED> instruction: 0x01a10300
     d48:	4c040501 	cfstr32mi	mvfx0, [r4], {1}
     d4c:	02000805 	andeq	r0, r0, #327680	; 0x50000
     d50:	053c0104 	ldreq	r0, [ip, #-260]!	; 0xfffffefc
     d54:	01052f0a 	tsteq	r5, sl, lsl #30
     d58:	0004022f 	andeq	r0, r4, pc, lsr #4
     d5c:	01050101 	tsteq	r5, r1, lsl #2
     d60:	00020500 	andeq	r0, r2, r0, lsl #10
     d64:	03000000 	movweq	r0, #0
     d68:	050101a8 	streq	r0, [r1, #-424]	; 0xfffffe58
     d6c:	08054c04 	stmdaeq	r5, {r2, sl, fp, lr}
     d70:	01040200 	mrseq	r0, R12_usr
     d74:	2f0a053c 	svccs	0x000a053c
     d78:	022f0105 	eoreq	r0, pc, #1073741825	; 0x40000001
     d7c:	01010004 	tsteq	r1, r4
     d80:	05000105 	streq	r0, [r0, #-261]	; 0xfffffefb
     d84:	00000002 	andeq	r0, r0, r2
     d88:	01af0300 			; <UNDEFINED> instruction: 0x01af0300
     d8c:	4c0a0501 	cfstr32mi	mvfx0, [sl], {1}
     d90:	022f0105 	eoreq	r0, pc, #1073741825	; 0x40000001
     d94:	01010006 	tsteq	r1, r6
     d98:	05000105 	streq	r0, [r0, #-261]	; 0xfffffefb
     d9c:	00000002 	andeq	r0, r0, r2
     da0:	01b50300 			; <UNDEFINED> instruction: 0x01b50300
     da4:	5a0f0501 	bpl	3c21b0 <_Min_Stack_Size+0x3c1db0>
     da8:	054b0a05 	strbeq	r0, [fp, #-2565]	; 0xfffff5fb
     dac:	06022101 	streq	r2, [r2], -r1, lsl #2
     db0:	05010100 	streq	r0, [r1, #-256]	; 0xffffff00
     db4:	02050001 	andeq	r0, r5, #1
     db8:	00000000 	andeq	r0, r0, r0
     dbc:	0101bc03 	tsteq	r1, r3, lsl #24
     dc0:	055b0405 	ldrbeq	r0, [fp, #-1029]	; 0xfffffbfb
     dc4:	04020008 	streq	r0, [r2], #-8
     dc8:	0a053c01 	beq	14fdd4 <_Min_Stack_Size+0x14f9d4>
     dcc:	2f01052f 	svccs	0x0001052f
     dd0:	01000402 	tsteq	r0, r2, lsl #8
     dd4:	00010501 	andeq	r0, r1, r1, lsl #10
     dd8:	00000205 	andeq	r0, r0, r5, lsl #4
     ddc:	c4030000 	strgt	r0, [r3], #-0
     de0:	04050101 	streq	r0, [r5], #-257	; 0xfffffeff
     de4:	0008052f 	andeq	r0, r8, pc, lsr #10
     de8:	3c010402 	cfstrscc	mvf0, [r1], {2}
     dec:	052f0a05 	streq	r0, [pc, #-2565]!	; 3ef <_Min_Heap_Size+0x1ef>
     df0:	02022f01 	andeq	r2, r2, #1, 30
     df4:	05010100 	streq	r0, [r1, #-256]	; 0xffffff00
     df8:	02050001 	andeq	r0, r5, #1
     dfc:	00000000 	andeq	r0, r0, r0
     e00:	0101ca03 	tsteq	r1, r3, lsl #20
     e04:	056a0405 	strbeq	r0, [sl, #-1029]!	; 0xfffffbfb
     e08:	04020008 	streq	r0, [r2], #-8
     e0c:	0a053c01 	beq	14fe18 <_Min_Stack_Size+0x14fa18>
     e10:	2f01052f 	svccs	0x0001052f
     e14:	01000402 	tsteq	r0, r2, lsl #8
     e18:	00057d01 	andeq	r7, r5, r1, lsl #26
     e1c:	36000300 	strcc	r0, [r0], -r0, lsl #6
     e20:	02000005 	andeq	r0, r0, #5
     e24:	0d0efb01 	vstreq	d15, [lr, #-4]
     e28:	01010100 	mrseq	r0, (UNDEF: 17)
     e2c:	00000001 	andeq	r0, r0, r1
     e30:	01000001 	tsteq	r0, r1
     e34:	532f2e2e 			; <UNDEFINED> instruction: 0x532f2e2e
     e38:	43006372 	movwmi	r6, #882	; 0x372
     e3c:	54535c3a 	ldrbpl	r5, [r3], #-3130	; 0xfffff3c6
     e40:	4d54535c 	ldclmi	3, cr5, [r4, #-368]	; 0xfffffe90
     e44:	75433233 	strbvc	r3, [r3, #-563]	; 0xfffffdcd
     e48:	44496562 	strbmi	r6, [r9], #-1378	; 0xfffffa9e
     e4c:	2e315f45 	cdpcs	15, 3, cr5, cr1, cr5, {2}
     e50:	312e3831 			; <UNDEFINED> instruction: 0x312e3831
     e54:	4d54535c 	ldclmi	3, cr5, [r4, #-368]	; 0xfffffe90
     e58:	75433233 	strbvc	r3, [r3, #-563]	; 0xfffffdcd
     e5c:	44496562 	strbmi	r6, [r9], #-1378	; 0xfffffa9e
     e60:	6c705c45 	ldclvs	12, cr5, [r0], #-276	; 0xfffffeec
     e64:	6e696775 	mcrvs	7, 3, r6, cr9, cr5, {3}
     e68:	6f635c73 	svcvs	0x00635c73
     e6c:	74732e6d 	ldrbtvc	r2, [r3], #-3693	; 0xfffff193
     e70:	6d74732e 	ldclvs	3, cr7, [r4, #-184]!	; 0xffffff48
     e74:	75633233 	strbvc	r3, [r3, #-563]!	; 0xfffffdcd
     e78:	692e6562 	stmdbvs	lr!, {r1, r5, r6, r8, sl, sp, lr}
     e7c:	6d2e6564 	cfstr32vs	mvfx6, [lr, #-400]!	; 0xfffffe70
     e80:	652e7563 	strvs	r7, [lr, #-1379]!	; 0xfffffa9d
     e84:	72657478 	rsbvc	r7, r5, #120, 8	; 0x78000000
     e88:	746c616e 	strbtvc	r6, [ip], #-366	; 0xfffffe92
     e8c:	736c6f6f 	cmnvc	ip, #444	; 0x1bc
     e90:	756e672e 	strbvc	r6, [lr, #-1838]!	; 0xfffff8d2
     e94:	6f6f742d 	svcvs	0x006f742d
     e98:	662d736c 	strtvs	r7, [sp], -ip, ror #6
     e9c:	732d726f 			; <UNDEFINED> instruction: 0x732d726f
     ea0:	32336d74 	eorscc	r6, r3, #116, 26	; 0x1d00
     ea4:	2e33312e 	rsfcssp	f3, f3, #0.5
     ea8:	65722e33 	ldrbvs	r2, [r2, #-3635]!	; 0xfffff1cd
     eac:	772e316c 	strvc	r3, [lr, -ip, ror #2]!
     eb0:	32336e69 	eorscc	r6, r3, #1680	; 0x690
     eb4:	302e315f 	eorcc	r3, lr, pc, asr r1
     eb8:	322e302e 	eorcc	r3, lr, #46	; 0x2e
     ebc:	31343230 	teqcc	r4, r0, lsr r2
     ec0:	31383031 	teqcc	r8, r1, lsr r0
     ec4:	5c343433 	cfldrspl	mvf3, [r4], #-204	; 0xffffff34
     ec8:	6c6f6f74 	stclvs	15, cr6, [pc], #-464	; d00 <_Min_Stack_Size+0x900>
     ecc:	69625c73 	stmdbvs	r2!, {r0, r1, r4, r5, r6, sl, fp, ip, lr}^
     ed0:	2e2e2f6e 	cdpcs	15, 2, cr2, cr14, cr14, {3}
     ed4:	62696c2f 	rsbvs	r6, r9, #12032	; 0x2f00
     ed8:	6363672f 	cmnvs	r3, #12320768	; 0xbc0000
     edc:	6d72612f 	ldfvse	f6, [r2, #-188]!	; 0xffffff44
     ee0:	6e6f6e2d 	cdpvs	14, 6, cr6, cr15, cr13, {1}
     ee4:	61652d65 	cmnvs	r5, r5, ror #26
     ee8:	312f6962 			; <UNDEFINED> instruction: 0x312f6962
     eec:	2e332e33 	mrccs	14, 1, r2, cr3, cr3, {1}
     ef0:	6e692f31 	mcrvs	15, 3, r2, cr9, cr1, {1}
     ef4:	64756c63 	ldrbtvs	r6, [r5], #-3171	; 0xfffff39d
     ef8:	3a430065 	bcc	10c1094 <_Min_Stack_Size+0x10c0c94>
     efc:	5c54535c 	mrrcpl	3, 5, r5, r4, cr12
     f00:	334d5453 	movtcc	r5, #54355	; 0xd453
     f04:	62754332 	rsbsvs	r4, r5, #-939524096	; 0xc8000000
     f08:	45444965 	strbmi	r4, [r4, #-2405]	; 0xfffff69b
     f0c:	312e315f 			; <UNDEFINED> instruction: 0x312e315f
     f10:	5c312e38 	ldcpl	14, cr2, [r1], #-224	; 0xffffff20
     f14:	334d5453 	movtcc	r5, #54355	; 0xd453
     f18:	62754332 	rsbsvs	r4, r5, #-939524096	; 0xc8000000
     f1c:	45444965 	strbmi	r4, [r4, #-2405]	; 0xfffff69b
     f20:	756c705c 	strbvc	r7, [ip, #-92]!	; 0xffffffa4
     f24:	736e6967 	cmnvc	lr, #1687552	; 0x19c000
     f28:	6d6f635c 	stclvs	3, cr6, [pc, #-368]!	; dc0 <_Min_Stack_Size+0x9c0>
     f2c:	2e74732e 	cdpcs	3, 7, cr7, cr4, cr14, {1}
     f30:	336d7473 	cmncc	sp, #1929379840	; 0x73000000
     f34:	62756332 	rsbsvs	r6, r5, #-939524096	; 0xc8000000
     f38:	64692e65 	strbtvs	r2, [r9], #-3685	; 0xfffff19b
     f3c:	636d2e65 	cmnvs	sp, #1616	; 0x650
     f40:	78652e75 	stmdavc	r5!, {r0, r2, r4, r5, r6, r9, sl, fp, sp}^
     f44:	6e726574 	mrcvs	5, 3, r6, cr2, cr4, {3}
     f48:	6f746c61 	svcvs	0x00746c61
     f4c:	2e736c6f 	cdpcs	12, 7, cr6, cr3, cr15, {3}
     f50:	2d756e67 	ldclcs	14, cr6, [r5, #-412]!	; 0xfffffe64
     f54:	6c6f6f74 	stclvs	15, cr6, [pc], #-464	; d8c <_Min_Stack_Size+0x98c>
     f58:	6f662d73 	svcvs	0x00662d73
     f5c:	74732d72 	ldrbtvc	r2, [r3], #-3442	; 0xfffff28e
     f60:	2e32336d 	cdpcs	3, 3, cr3, cr2, cr13, {3}
     f64:	332e3331 			; <UNDEFINED> instruction: 0x332e3331
     f68:	6c65722e 	sfmvs	f7, 2, [r5], #-184	; 0xffffff48
     f6c:	69772e31 	ldmdbvs	r7!, {r0, r4, r5, r9, sl, fp, sp}^
     f70:	5f32336e 	svcpl	0x0032336e
     f74:	2e302e31 	mrccs	14, 1, r2, cr0, cr1, {1}
     f78:	30322e30 	eorscc	r2, r2, r0, lsr lr
     f7c:	31313432 	teqcc	r1, r2, lsr r4
     f80:	33313830 	teqcc	r1, #48, 16	; 0x300000
     f84:	745c3434 	ldrbvc	r3, [ip], #-1076	; 0xfffffbcc
     f88:	736c6f6f 	cmnvc	ip, #444	; 0x1bc
     f8c:	6e69625c 	mcrvs	2, 3, r6, cr9, cr12, {2}
     f90:	2f2e2e2f 	svccs	0x002e2e2f
     f94:	2f62696c 	svccs	0x0062696c
     f98:	2f636367 	svccs	0x00636367
     f9c:	2d6d7261 	sfmcs	f7, 2, [sp, #-388]!	; 0xfffffe7c
     fa0:	656e6f6e 	strbvs	r6, [lr, #-3950]!	; 0xfffff092
     fa4:	6261652d 	rsbvs	r6, r1, #188743680	; 0xb400000
     fa8:	33312f69 	teqcc	r1, #420	; 0x1a4
     fac:	312e332e 			; <UNDEFINED> instruction: 0x312e332e
     fb0:	2f2e2e2f 	svccs	0x002e2e2f
     fb4:	2e2f2e2e 	cdpcs	14, 2, cr2, cr15, cr14, {1}
     fb8:	2e2e2f2e 	cdpcs	15, 2, cr2, cr14, cr14, {1}
     fbc:	6d72612f 	ldfvse	f6, [r2, #-188]!	; 0xffffff44
     fc0:	6e6f6e2d 	cdpvs	14, 6, cr6, cr15, cr13, {1}
     fc4:	61652d65 	cmnvs	r5, r5, ror #26
     fc8:	692f6962 	stmdbvs	pc!, {r1, r5, r6, r8, fp, sp, lr}	; <UNPREDICTABLE>
     fcc:	756c636e 	strbvc	r6, [ip, #-878]!	; 0xfffffc92
     fd0:	6d2f6564 	cfstr32vs	mvfx6, [pc, #-400]!	; e48 <_Min_Stack_Size+0xa48>
     fd4:	69686361 	stmdbvs	r8!, {r0, r5, r6, r8, r9, sp, lr}^
     fd8:	4300656e 	movwmi	r6, #1390	; 0x56e
     fdc:	54535c3a 	ldrbpl	r5, [r3], #-3130	; 0xfffff3c6
     fe0:	4d54535c 	ldclmi	3, cr5, [r4, #-368]	; 0xfffffe90
     fe4:	75433233 	strbvc	r3, [r3, #-563]	; 0xfffffdcd
     fe8:	44496562 	strbmi	r6, [r9], #-1378	; 0xfffffa9e
     fec:	2e315f45 	cdpcs	15, 3, cr5, cr1, cr5, {2}
     ff0:	312e3831 			; <UNDEFINED> instruction: 0x312e3831
     ff4:	4d54535c 	ldclmi	3, cr5, [r4, #-368]	; 0xfffffe90
     ff8:	75433233 	strbvc	r3, [r3, #-563]	; 0xfffffdcd
     ffc:	44496562 	strbmi	r6, [r9], #-1378	; 0xfffffa9e
    1000:	6c705c45 	ldclvs	12, cr5, [r0], #-276	; 0xfffffeec
    1004:	6e696775 	mcrvs	7, 3, r6, cr9, cr5, {3}
    1008:	6f635c73 	svcvs	0x00635c73
    100c:	74732e6d 	ldrbtvc	r2, [r3], #-3693	; 0xfffff193
    1010:	6d74732e 	ldclvs	3, cr7, [r4, #-184]!	; 0xffffff48
    1014:	75633233 	strbvc	r3, [r3, #-563]!	; 0xfffffdcd
    1018:	692e6562 	stmdbvs	lr!, {r1, r5, r6, r8, sl, sp, lr}
    101c:	6d2e6564 	cfstr32vs	mvfx6, [lr, #-400]!	; 0xfffffe70
    1020:	652e7563 	strvs	r7, [lr, #-1379]!	; 0xfffffa9d
    1024:	72657478 	rsbvc	r7, r5, #120, 8	; 0x78000000
    1028:	746c616e 	strbtvc	r6, [ip], #-366	; 0xfffffe92
    102c:	736c6f6f 	cmnvc	ip, #444	; 0x1bc
    1030:	756e672e 	strbvc	r6, [lr, #-1838]!	; 0xfffff8d2
    1034:	6f6f742d 	svcvs	0x006f742d
    1038:	662d736c 	strtvs	r7, [sp], -ip, ror #6
    103c:	732d726f 			; <UNDEFINED> instruction: 0x732d726f
    1040:	32336d74 	eorscc	r6, r3, #116, 26	; 0x1d00
    1044:	2e33312e 	rsfcssp	f3, f3, #0.5
    1048:	65722e33 	ldrbvs	r2, [r2, #-3635]!	; 0xfffff1cd
    104c:	772e316c 	strvc	r3, [lr, -ip, ror #2]!
    1050:	32336e69 	eorscc	r6, r3, #1680	; 0x690
    1054:	302e315f 	eorcc	r3, lr, pc, asr r1
    1058:	322e302e 	eorcc	r3, lr, #46	; 0x2e
    105c:	31343230 	teqcc	r4, r0, lsr r2
    1060:	31383031 	teqcc	r8, r1, lsr r0
    1064:	5c343433 	cfldrspl	mvf3, [r4], #-204	; 0xffffff34
    1068:	6c6f6f74 	stclvs	15, cr6, [pc], #-464	; ea0 <_Min_Stack_Size+0xaa0>
    106c:	69625c73 	stmdbvs	r2!, {r0, r1, r4, r5, r6, sl, fp, ip, lr}^
    1070:	2e2e2f6e 	cdpcs	15, 2, cr2, cr14, cr14, {3}
    1074:	62696c2f 	rsbvs	r6, r9, #12032	; 0x2f00
    1078:	6363672f 	cmnvs	r3, #12320768	; 0xbc0000
    107c:	6d72612f 	ldfvse	f6, [r2, #-188]!	; 0xffffff44
    1080:	6e6f6e2d 	cdpvs	14, 6, cr6, cr15, cr13, {1}
    1084:	61652d65 	cmnvs	r5, r5, ror #26
    1088:	312f6962 			; <UNDEFINED> instruction: 0x312f6962
    108c:	2e332e33 	mrccs	14, 1, r2, cr3, cr3, {1}
    1090:	2e2e2f31 	mcrcs	15, 1, r2, cr14, cr1, {1}
    1094:	2f2e2e2f 	svccs	0x002e2e2f
    1098:	2e2f2e2e 	cdpcs	14, 2, cr2, cr15, cr14, {1}
    109c:	72612f2e 	rsbvc	r2, r1, #46, 30	; 0xb8
    10a0:	6f6e2d6d 	svcvs	0x006e2d6d
    10a4:	652d656e 	strvs	r6, [sp, #-1390]!	; 0xfffffa92
    10a8:	2f696261 	svccs	0x00696261
    10ac:	6c636e69 	stclvs	14, cr6, [r3], #-420	; 0xfffffe5c
    10b0:	2f656475 	svccs	0x00656475
    10b4:	00737973 	rsbseq	r7, r3, r3, ror r9
    10b8:	535c3a43 	cmppl	ip, #274432	; 0x43000
    10bc:	54535c54 	ldrbpl	r5, [r3], #-3156	; 0xfffff3ac
    10c0:	4332334d 	teqmi	r2, #872415233	; 0x34000001
    10c4:	49656275 	stmdbmi	r5!, {r0, r2, r4, r5, r6, r9, sp, lr}^
    10c8:	315f4544 	cmpcc	pc, r4, asr #10
    10cc:	2e38312e 	rsfcsep	f3, f0, #0.5
    10d0:	54535c31 	ldrbpl	r5, [r3], #-3121	; 0xfffff3cf
    10d4:	4332334d 	teqmi	r2, #872415233	; 0x34000001
    10d8:	49656275 	stmdbmi	r5!, {r0, r2, r4, r5, r6, r9, sp, lr}^
    10dc:	705c4544 	subsvc	r4, ip, r4, asr #10
    10e0:	6967756c 	stmdbvs	r7!, {r2, r3, r5, r6, r8, sl, ip, sp, lr}^
    10e4:	635c736e 	cmpvs	ip, #-1207959551	; 0xb8000001
    10e8:	732e6d6f 			; <UNDEFINED> instruction: 0x732e6d6f
    10ec:	74732e74 	ldrbtvc	r2, [r3], #-3700	; 0xfffff18c
    10f0:	6332336d 	teqvs	r2, #-1275068415	; 0xb4000001
    10f4:	2e656275 	mcrcs	2, 3, r6, cr5, cr5, {3}
    10f8:	2e656469 	cdpcs	4, 6, cr6, cr5, cr9, {3}
    10fc:	2e75636d 	cdpcs	3, 7, cr6, cr5, cr13, {3}
    1100:	65747865 	ldrbvs	r7, [r4, #-2149]!	; 0xfffff79b
    1104:	6c616e72 	stclvs	14, cr6, [r1], #-456	; 0xfffffe38
    1108:	6c6f6f74 	stclvs	15, cr6, [pc], #-464	; f40 <_Min_Stack_Size+0xb40>
    110c:	6e672e73 	mcrvs	14, 3, r2, cr7, cr3, {3}
    1110:	6f742d75 	svcvs	0x00742d75
    1114:	2d736c6f 	ldclcs	12, cr6, [r3, #-444]!	; 0xfffffe44
    1118:	2d726f66 	ldclcs	15, cr6, [r2, #-408]!	; 0xfffffe68
    111c:	336d7473 	cmncc	sp, #1929379840	; 0x73000000
    1120:	33312e32 	teqcc	r1, #800	; 0x320
    1124:	722e332e 	eorvc	r3, lr, #-1207959552	; 0xb8000000
    1128:	2e316c65 	cdpcs	12, 3, cr6, cr1, cr5, {3}
    112c:	336e6977 	cmncc	lr, #1949696	; 0x1dc000
    1130:	2e315f32 	mrccs	15, 1, r5, cr1, cr2, {1}
    1134:	2e302e30 	mrccs	14, 1, r2, cr0, cr0, {1}
    1138:	34323032 	ldrtcc	r3, [r2], #-50	; 0xffffffce
    113c:	38303131 	ldmdacc	r0!, {r0, r4, r5, r8, ip, sp}
    1140:	34343331 	ldrtcc	r3, [r4], #-817	; 0xfffffccf
    1144:	6f6f745c 	svcvs	0x006f745c
    1148:	625c736c 	subsvs	r7, ip, #108, 6	; 0xb0000001
    114c:	2e2f6e69 	cdpcs	14, 2, cr6, cr15, cr9, {3}
    1150:	696c2f2e 	stmdbvs	ip!, {r1, r2, r3, r5, r8, r9, sl, fp, sp}^
    1154:	63672f62 	cmnvs	r7, #392	; 0x188
    1158:	72612f63 	rsbvc	r2, r1, #396	; 0x18c
    115c:	6f6e2d6d 	svcvs	0x006e2d6d
    1160:	652d656e 	strvs	r6, [sp, #-1390]!	; 0xfffffa92
    1164:	2f696261 	svccs	0x00696261
    1168:	332e3331 			; <UNDEFINED> instruction: 0x332e3331
    116c:	2e2f312e 	sufcsep	f3, f7, #0.5
    1170:	2e2e2f2e 	cdpcs	15, 2, cr2, cr14, cr14, {1}
    1174:	2f2e2e2f 	svccs	0x002e2e2f
    1178:	612f2e2e 			; <UNDEFINED> instruction: 0x612f2e2e
    117c:	6e2d6d72 	mcrvs	13, 1, r6, cr13, cr2, {3}
    1180:	2d656e6f 	stclcs	14, cr6, [r5, #-444]!	; 0xfffffe44
    1184:	69626165 	stmdbvs	r2!, {r0, r2, r5, r6, r8, sp, lr}^
    1188:	636e692f 	cmnvs	lr, #770048	; 0xbc000
    118c:	6564756c 	strbvs	r7, [r4, #-1388]!	; 0xfffffa94
    1190:	5c3a4300 	ldcpl	3, cr4, [sl], #-0
    1194:	535c5453 	cmppl	ip, #1392508928	; 0x53000000
    1198:	32334d54 	eorscc	r4, r3, #84, 26	; 0x1500
    119c:	65627543 	strbvs	r7, [r2, #-1347]!	; 0xfffffabd
    11a0:	5f454449 	svcpl	0x00454449
    11a4:	38312e31 	ldmdacc	r1!, {r0, r4, r5, r9, sl, fp, sp}
    11a8:	535c312e 	cmppl	ip, #-2147483637	; 0x8000000b
    11ac:	32334d54 	eorscc	r4, r3, #84, 26	; 0x1500
    11b0:	65627543 	strbvs	r7, [r2, #-1347]!	; 0xfffffabd
    11b4:	5c454449 	cfstrdpl	mvd4, [r5], {73}	; 0x49
    11b8:	67756c70 			; <UNDEFINED> instruction: 0x67756c70
    11bc:	5c736e69 	ldclpl	14, cr6, [r3], #-420	; 0xfffffe5c
    11c0:	2e6d6f63 	cdpcs	15, 6, cr6, cr13, cr3, {3}
    11c4:	732e7473 			; <UNDEFINED> instruction: 0x732e7473
    11c8:	32336d74 	eorscc	r6, r3, #116, 26	; 0x1d00
    11cc:	65627563 	strbvs	r7, [r2, #-1379]!	; 0xfffffa9d
    11d0:	6564692e 	strbvs	r6, [r4, #-2350]!	; 0xfffff6d2
    11d4:	75636d2e 	strbvc	r6, [r3, #-3374]!	; 0xfffff2d2
    11d8:	7478652e 	ldrbtvc	r6, [r8], #-1326	; 0xfffffad2
    11dc:	616e7265 	cmnvs	lr, r5, ror #4
    11e0:	6f6f746c 	svcvs	0x006f746c
    11e4:	672e736c 	strvs	r7, [lr, -ip, ror #6]!
    11e8:	742d756e 	strtvc	r7, [sp], #-1390	; 0xfffffa92
    11ec:	736c6f6f 	cmnvc	ip, #444	; 0x1bc
    11f0:	726f662d 	rsbvc	r6, pc, #47185920	; 0x2d00000
    11f4:	6d74732d 	ldclvs	3, cr7, [r4, #-180]!	; 0xffffff4c
    11f8:	312e3233 			; <UNDEFINED> instruction: 0x312e3233
    11fc:	2e332e33 	mrccs	14, 1, r2, cr3, cr3, {1}
    1200:	316c6572 	smccc	50770	; 0xc652
    1204:	6e69772e 	cdpvs	7, 6, cr7, cr9, cr14, {1}
    1208:	315f3233 	cmpcc	pc, r3, lsr r2	; <UNPREDICTABLE>
    120c:	302e302e 	eorcc	r3, lr, lr, lsr #32
    1210:	3230322e 	eorscc	r3, r0, #-536870910	; 0xe0000002
    1214:	30313134 	eorscc	r3, r1, r4, lsr r1
    1218:	34333138 	ldrtcc	r3, [r3], #-312	; 0xfffffec8
    121c:	6f745c34 	svcvs	0x00745c34
    1220:	5c736c6f 	ldclpl	12, cr6, [r3], #-444	; 0xfffffe44
    1224:	2f6e6962 	svccs	0x006e6962
    1228:	612f2e2e 			; <UNDEFINED> instruction: 0x612f2e2e
    122c:	6e2d6d72 	mcrvs	13, 1, r6, cr13, cr2, {3}
    1230:	2d656e6f 	stclcs	14, cr6, [r5, #-444]!	; 0xfffffe44
    1234:	69626165 	stmdbvs	r2!, {r0, r2, r5, r6, r8, sp, lr}^
    1238:	636e692f 	cmnvs	lr, #770048	; 0xbc000
    123c:	6564756c 	strbvs	r7, [r4, #-1388]!	; 0xfffffa94
    1240:	77656e2f 	strbvc	r6, [r5, -pc, lsr #28]!
    1244:	2d62696c 			; <UNDEFINED> instruction: 0x2d62696c
    1248:	6f6e616e 	svcvs	0x006e616e
    124c:	79730000 	ldmdbvc	r3!, {}^	; <UNPREDICTABLE>
    1250:	6d656d73 	stclvs	13, cr6, [r5, #-460]!	; 0xfffffe34
    1254:	0100632e 	tsteq	r0, lr, lsr #6
    1258:	74730000 	ldrbtvc	r0, [r3], #-0
    125c:	66656464 	strbtvs	r6, [r5], -r4, ror #8
    1260:	0200682e 	andeq	r6, r0, #3014656	; 0x2e0000
    1264:	645f0000 	ldrbvs	r0, [pc], #-0	; 126c <_Min_Stack_Size+0xe6c>
    1268:	75616665 	strbvc	r6, [r1, #-1637]!	; 0xfffff99b
    126c:	745f746c 	ldrbvc	r7, [pc], #-1132	; 1274 <_Min_Stack_Size+0xe74>
    1270:	73657079 	cmnvc	r5, #121	; 0x79
    1274:	0300682e 	movweq	r6, #2094	; 0x82e
    1278:	735f0000 	cmpvc	pc, #0
    127c:	6e696474 	mcrvs	4, 3, r6, cr9, cr4, {3}
    1280:	00682e74 	rsbeq	r2, r8, r4, ror lr
    1284:	65000004 	strvs	r0, [r0, #-4]
    1288:	6f6e7272 	svcvs	0x006e7272
    128c:	0400682e 	streq	r6, [r0], #-2094	; 0xfffff7d2
    1290:	72650000 	rsbvc	r0, r5, #0
    1294:	2e6f6e72 	mcrcs	14, 3, r6, cr15, cr2, {3}
    1298:	00050068 	andeq	r0, r5, r8, rrx
    129c:	65657200 	strbvs	r7, [r5, #-512]!	; 0xfffffe00
    12a0:	682e746e 	stmdavs	lr!, {r1, r2, r3, r5, r6, sl, ip, sp, lr}
    12a4:	00000400 	andeq	r0, r0, r0, lsl #8
    12a8:	736e615f 	cmnvc	lr, #-1073741801	; 0xc0000017
    12ac:	00682e69 	rsbeq	r2, r8, r9, ror #28
    12b0:	6e000005 	cdpvs	0, 0, cr0, cr0, cr5, {0}
    12b4:	696c7765 	stmdbvs	ip!, {r0, r2, r5, r6, r8, r9, sl, ip, sp, lr}^
    12b8:	00682e62 	rsbeq	r2, r8, r2, ror #28
    12bc:	5f000006 	svcpl	0x00000006
    12c0:	6c77656e 	cfldr64vs	mvdx6, [r7], #-440	; 0xfffffe48
    12c4:	765f6269 	ldrbvc	r6, [pc], -r9, ror #4
    12c8:	69737265 	ldmdbvs	r3!, {r0, r2, r5, r6, r9, ip, sp, lr}^
    12cc:	682e6e6f 	stmdavs	lr!, {r0, r1, r2, r3, r5, r6, r9, sl, fp, sp, lr}
    12d0:	00000500 	andeq	r0, r0, r0, lsl #10
    12d4:	666e6f63 	strbtvs	r6, [lr], -r3, ror #30
    12d8:	682e6769 	stmdavs	lr!, {r0, r3, r5, r6, r8, r9, sl, sp, lr}
    12dc:	00000400 	andeq	r0, r0, r0, lsl #8
    12e0:	65656569 	strbvs	r6, [r5, #-1385]!	; 0xfffffa97
    12e4:	682e7066 	stmdavs	lr!, {r1, r2, r5, r6, ip, sp, lr}
    12e8:	00000300 	andeq	r0, r0, r0, lsl #6
    12ec:	74616566 	strbtvc	r6, [r1], #-1382	; 0xfffffa9a
    12f0:	73657275 	cmnvc	r5, #1342177287	; 0x50000007
    12f4:	0400682e 	streq	r6, [r0], #-2094	; 0xfffff7d2
    12f8:	64630000 	strbtvs	r0, [r3], #-0
    12fc:	2e736665 	cdpcs	6, 7, cr6, cr3, cr5, {3}
    1300:	00040068 	andeq	r0, r4, r8, rrx
    1304:	79745f00 	ldmdbvc	r4!, {r8, r9, sl, fp, ip, lr}^
    1308:	2e736570 	mrccs	5, 3, r6, cr3, cr0, {3}
    130c:	00040068 	andeq	r0, r4, r8, rrx
    1310:	79745f00 	ldmdbvc	r4!, {r8, r9, sl, fp, ip, lr}^
    1314:	2e736570 	mrccs	5, 3, r6, cr3, cr0, {3}
    1318:	00030068 	andeq	r0, r3, r8, rrx
    131c:	636f6c00 	cmnvs	pc, #0, 24
    1320:	00682e6b 	rsbeq	r2, r8, fp, ror #28
    1324:	61000004 	tstvs	r0, r4
    1328:	72657373 	rsbvc	r7, r5, #-872415231	; 0xcc000001
    132c:	00682e74 	rsbeq	r2, r8, r4, ror lr
    1330:	73000005 	movwvc	r0, #5
    1334:	6e696474 	mcrvs	4, 3, r6, cr9, cr4, {3}
    1338:	00682e74 	rsbeq	r2, r8, r4, ror lr
    133c:	73000002 	movwvc	r0, #2
    1340:	6e696474 	mcrvs	4, 3, r6, cr9, cr4, {3}
    1344:	00682e74 	rsbeq	r2, r8, r4, ror lr
    1348:	5f000005 	svcpl	0x00000005
    134c:	73746e69 	cmnvc	r4, #1680	; 0x690
    1350:	682e7075 	stmdavs	lr!, {r0, r2, r4, r5, r6, ip, sp, lr}
    1354:	00000400 	andeq	r0, r0, r0, lsl #8
    1358:	00010500 	andeq	r0, r1, r0, lsl #10
    135c:	03d00205 	bicseq	r0, r0, #1342177280	; 0x50000000
    1360:	35030800 	strcc	r0, [r3, #-2048]	; 0xfffff800
    1364:	4e200501 	cfsh64mi	mvdx0, mvdx0, #1
    1368:	05203505 	streq	r3, [r0, #-1285]!	; 0xfffffafb
    136c:	052f2012 	streq	r2, [pc, #-18]!	; 1362 <_Min_Stack_Size+0xf62>
    1370:	0605320b 	streq	r3, [r5], -fp, lsl #4
    1374:	3015052e 	andscc	r0, r5, lr, lsr #10
    1378:	05401705 	strbeq	r1, [r0, #-1797]	; 0xfffff8fb
    137c:	053e4a06 	ldreq	r4, [lr, #-2566]!	; 0xfffff5fa
    1380:	0402000a 	streq	r0, [r2], #-10
    1384:	0c053c01 	stceq	12, cr3, [r5], {1}
    1388:	3f11052f 	svccc	0x0011052f
    138c:	053d1305 	ldreq	r1, [sp, #-773]!	; 0xfffffcfb
    1390:	0105680a 	tsteq	r5, sl, lsl #16
    1394:	000c0221 	andeq	r0, ip, r1, lsr #4
    1398:	00770101 	rsbseq	r0, r7, r1, lsl #2
    139c:	00050000 	andeq	r0, r5, r0
    13a0:	002e0004 	eoreq	r0, lr, r4
    13a4:	01020000 	mrseq	r0, (UNDEF: 2)
    13a8:	0d0efb01 	vstreq	d15, [lr, #-4]
    13ac:	01010100 	mrseq	r0, (UNDEF: 17)
    13b0:	00000001 	andeq	r0, r0, r1
    13b4:	01000001 	tsteq	r0, r1
    13b8:	021f0101 	andseq	r0, pc, #1073741824	; 0x40000000
    13bc:	00000000 	andeq	r0, r0, r0
    13c0:	0000006d 	andeq	r0, r0, sp, rrx
    13c4:	021f0102 	andseq	r0, pc, #-2147483648	; 0x80000000
    13c8:	0078020f 	rsbseq	r0, r8, pc, lsl #4
    13cc:	78010000 	stmdavc	r1, {}	; <UNPREDICTABLE>
    13d0:	01000000 	mrseq	r0, (UNDEF: 0)
    13d4:	3c020500 	cfstr32cc	mvfx0, [r2], {-0}
    13d8:	03080004 	movweq	r0, #32772	; 0x8004
    13dc:	22210139 	eorcs	r0, r1, #1073741838	; 0x4000000e
    13e0:	21212131 			; <UNDEFINED> instruction: 0x21212131
    13e4:	21212321 			; <UNDEFINED> instruction: 0x21212321
    13e8:	23212123 			; <UNDEFINED> instruction: 0x23212123
    13ec:	23212121 			; <UNDEFINED> instruction: 0x23212121
    13f0:	23212321 			; <UNDEFINED> instruction: 0x23212321
    13f4:	56033130 			; <UNDEFINED> instruction: 0x56033130
    13f8:	2f2f3420 	svccs	0x002f3420
    13fc:	2f2e0f03 	svccs	0x002e0f03
    1400:	01000202 	tsteq	r0, r2, lsl #4
    1404:	02050001 	andeq	r0, r5, #1
    1408:	0800048c 	stmdaeq	r0, {r2, r3, r7, sl}
    140c:	0100f203 	tsteq	r0, r3, lsl #4	; <UNPREDICTABLE>
    1410:	01000102 	tsteq	r0, r2, lsl #2
    1414:	Address 0x0000000000001414 is out of bounds.


Disassembly of section .debug_str:

00000000 <.debug_str>:
       0:	4e475f5f 	mcrmi	15, 2, r5, cr7, cr15, {2}
       4:	494c4355 	stmdbmi	ip, {r0, r2, r4, r6, r8, r9, lr}^
       8:	5f5f454b 	svcpl	0x005f454b
       c:	4345535f 	movtmi	r5, #21343	; 0x535f
      10:	4e4f4954 			; <UNDEFINED> instruction: 0x4e4f4954
      14:	5f003120 	svcpl	0x00003120
      18:	42464f49 	submi	r4, r6, #292	; 0x124
      1c:	00302046 	eorseq	r2, r0, r6, asr #32
      20:	45445f5f 	strbmi	r5, [r4, #-3935]	; 0xfffff0a1
      24:	414d4943 	cmpmi	sp, r3, asr #18
      28:	49445f4c 	stmdbmi	r4, {r2, r3, r6, r8, r9, sl, fp, ip, lr}^
      2c:	205f5f47 	subscs	r5, pc, r7, asr #30
      30:	5f003731 	svcpl	0x00003731
      34:	6975625f 	ldmdbvs	r5!, {r0, r1, r2, r3, r4, r6, r9, sp, lr}^
      38:	6e69746c 	cdpvs	4, 6, cr7, cr9, cr12, {3}
      3c:	5f73695f 	svcpl	0x0073695f
      40:	67696c61 	strbvs	r6, [r9, -r1, ror #24]!
      44:	2864656e 	stmdacs	r4!, {r1, r2, r3, r5, r6, r8, sl, sp, lr}^
      48:	6c612c78 	stclvs	12, cr2, [r1], #-480	; 0xfffffe20
      4c:	296e6769 	stmdbcs	lr!, {r0, r3, r5, r6, r8, r9, sl, sp, lr}^
      50:	28282820 	stmdacs	r8!, {r5, fp, sp}
      54:	69755f5f 	ldmdbvs	r5!, {r0, r1, r2, r3, r4, r6, r8, r9, sl, fp, ip, lr}^
      58:	7470746e 	ldrbtvc	r7, [r0], #-1134	; 0xfffffb92
      5c:	29745f72 	ldmdbcs	r4!, {r1, r4, r5, r6, r8, r9, sl, fp, ip, lr}^
      60:	20262078 	eorcs	r2, r6, r8, ror r0
      64:	6c612828 	stclvs	8, cr2, [r1], #-160	; 0xffffff60
      68:	296e6769 	stmdbcs	lr!, {r0, r3, r5, r6, r8, r9, sl, sp, lr}^
      6c:	31202d20 			; <UNDEFINED> instruction: 0x31202d20
      70:	3d202929 			; <UNDEFINED> instruction: 0x3d202929
      74:	2930203d 	ldmdbcs	r0!, {r0, r2, r3, r4, r5, sp}
      78:	555f5f00 	ldrbpl	r5, [pc, #-3840]	; fffff180 <_estack+0xdffdf180>
      7c:	465f4148 	ldrbmi	r4, [pc], -r8, asr #2
      80:	5f544942 	svcpl	0x00544942
      84:	0038205f 	eorseq	r2, r8, pc, asr r0
      88:	56535f5f 	usaxpl	r5, r3, pc	; <UNPREDICTABLE>
      8c:	565f4449 	ldrbpl	r4, [pc], -r9, asr #8
      90:	42495349 	submi	r5, r9, #603979777	; 0x24000001
      94:	3120454c 			; <UNDEFINED> instruction: 0x3120454c
      98:	465f5f00 	ldrbmi	r5, [pc], -r0, lsl #30
      9c:	3436544c 	ldrtcc	r5, [r6], #-1100	; 0xfffffbb4
      a0:	4e45445f 	mcrmi	4, 2, r4, cr5, cr15, {2}
      a4:	5f4d524f 	svcpl	0x004d524f
      a8:	5f4e494d 	svcpl	0x004e494d
      ac:	2e34205f 	mrccs	0, 1, r2, cr4, cr15, {2}
      b0:	36303439 			; <UNDEFINED> instruction: 0x36303439
      b4:	35343635 	ldrcc	r3, [r4, #-1589]!	; 0xfffff9cb
      b8:	32313438 	eorscc	r3, r1, #56, 8	; 0x38000000
      bc:	34353634 	ldrtcc	r3, [r5], #-1588	; 0xfffff9cc
      c0:	32332d65 	eorscc	r2, r3, #6464	; 0x1940
      c4:	34364634 	ldrtcc	r4, [r6], #-1588	; 0xfffff9cc
      c8:	475f5f00 	ldrbmi	r5, [pc, -r0, lsl #30]
      cc:	415f4343 	cmpmi	pc, r3, asr #6
      d0:	494d4f54 	stmdbmi	sp, {r2, r4, r6, r8, r9, sl, fp, lr}^
      d4:	43575f43 	cmpmi	r7, #268	; 0x10c
      d8:	5f524148 	svcpl	0x00524148
      dc:	4f4c5f54 	svcmi	0x004c5f54
      e0:	465f4b43 	ldrbmi	r4, [pc], -r3, asr #22
      e4:	20454552 	subcs	r4, r5, r2, asr r5
      e8:	5f5f0032 	svcpl	0x005f0032
      ec:	52414843 	subpl	r4, r1, #4390912	; 0x430000
      f0:	534e555f 	movtpl	r5, #58719	; 0xe55f
      f4:	454e4749 	strbmi	r4, [lr, #-1865]	; 0xfffff8b7
      f8:	205f5f44 	subscs	r5, pc, r4, asr #30
      fc:	4e5f0031 	mrcmi	0, 2, r0, cr15, cr1, {1}
     100:	494c5745 	stmdbmi	ip, {r0, r2, r6, r8, r9, sl, ip, lr}^
     104:	45565f42 	ldrbmi	r5, [r6, #-3906]	; 0xfffff0be
     108:	4f495352 	svcmi	0x00495352
     10c:	3422204e 	strtcc	r2, [r2], #-78	; 0xffffffb2
     110:	302e342e 	eorcc	r3, lr, lr, lsr #8
     114:	5f5f0022 	svcpl	0x005f0022
     118:	36544c46 	ldrbcc	r4, [r4], -r6, asr #24
     11c:	41485f34 	cmpmi	r8, r4, lsr pc
     120:	4e495f53 	mcrmi	15, 2, r5, cr9, cr3, {2}
     124:	494e4946 	stmdbmi	lr, {r1, r2, r6, r8, fp, lr}^
     128:	5f5f5954 	svcpl	0x005f5954
     12c:	5f003120 	svcpl	0x00003120
     130:	6c63735f 	stclvs	3, cr7, [r3], #-380	; 0xfffffe84
     134:	65726165 	ldrbvs	r6, [r2, #-357]!	; 0xfffffe9b
     138:	70287272 	eorvc	r7, r8, r2, ror r2
     13c:	28282029 	stmdacs	r8!, {r0, r3, r5, sp}
     140:	64696f76 	strbtvs	r6, [r9], #-3958	; 0xfffff08a
     144:	70282829 	eorvc	r2, r8, r9, lsr #16
     148:	5f3e2d29 	svcpl	0x003e2d29
     14c:	67616c66 	strbvs	r6, [r1, -r6, ror #24]!
     150:	3d262073 	stccc	0, cr2, [r6, #-460]!	; 0xfffffe34
     154:	5f287e20 	svcpl	0x00287e20
     158:	5245535f 	subpl	r5, r5, #2080374785	; 0x7c000001
     15c:	5f5f7c52 	svcpl	0x005f7c52
     160:	464f4553 			; <UNDEFINED> instruction: 0x464f4553
     164:	00292929 	eoreq	r2, r9, r9, lsr #18
     168:	4545525f 	strbmi	r5, [r5, #-607]	; 0xfffffda1
     16c:	525f544e 	subspl	r5, pc, #1308622848	; 0x4e000000
     170:	34444e41 	strbcc	r4, [r4], #-3649	; 0xfffff1bf
     174:	44415f38 	strbmi	r5, [r1], #-3896	; 0xfffff0c8
     178:	74702844 	ldrbtvc	r2, [r0], #-2116	; 0xfffff7bc
     17c:	28202972 	stmdacs	r0!, {r1, r4, r5, r6, r8, fp, sp}
     180:	72747028 	rsbsvc	r7, r4, #40	; 0x28
     184:	5f3e2d29 	svcpl	0x003e2d29
     188:	2d383472 	cfldrscs	mvf3, [r8, #-456]!	; 0xfffffe38
     18c:	64615f3e 	strbtvs	r5, [r1], #-3902	; 0xfffff0c2
     190:	5f002964 	svcpl	0x00002964
     194:	414c4c5f 	cmpmi	ip, pc, asr ip
     198:	4d554343 	ldclmi	3, cr4, [r5, #-268]	; 0xfffffef4
     19c:	4e494d5f 	mcrmi	13, 2, r4, cr9, cr15, {2}
     1a0:	28205f5f 	stmdacs	r0!, {r0, r1, r2, r3, r4, r6, r8, r9, sl, fp, ip, lr}
     1a4:	3158302d 	cmpcc	r8, sp, lsr #32
     1a8:	4c313350 	ldcmi	3, cr3, [r1], #-320	; 0xfffffec0
     1ac:	302d4b4c 	eorcc	r4, sp, ip, asr #22
     1b0:	33503158 	cmpcc	r0, #88, 2
     1b4:	4b4c4c31 	blmi	1313280 <_Min_Stack_Size+0x1312e80>
     1b8:	5f5f0029 	svcpl	0x005f0029
     1bc:	5f434347 	svcpl	0x00434347
     1c0:	54534544 	ldrbpl	r4, [r3], #-1348	; 0xfffffabc
     1c4:	54435552 	strbpl	r5, [r3], #-1362	; 0xfffffaae
     1c8:	5f455649 	svcpl	0x00455649
     1cc:	455a4953 	ldrbmi	r4, [sl, #-2387]	; 0xfffff6ad
     1d0:	00343620 	eorseq	r3, r4, r0, lsr #12
     1d4:	414c5f5f 	cmpmi	ip, pc, asr pc
     1d8:	4d554343 	ldclmi	3, cr4, [r5, #-268]	; 0xfffffef4
     1dc:	5350455f 	cmppl	r0, #398458880	; 0x17c00000
     1e0:	4e4f4c49 	cdpmi	12, 4, cr4, cr15, cr9, {2}
     1e4:	30205f5f 	eorcc	r5, r0, pc, asr pc
     1e8:	2d503178 	ldfcse	f3, [r0, #-480]	; 0xfffffe20
     1ec:	4b4c3133 	blmi	130c6c0 <_Min_Stack_Size+0x130c2c0>
     1f0:	505f5f00 	subspl	r5, pc, r0, lsl #30
     1f4:	49445254 	stmdbmi	r4, {r2, r4, r6, r9, ip, lr}^
     1f8:	4d5f4646 	ldclmi	6, cr4, [pc, #-280]	; e8 <_Min_Heap_Size-0x118>
     1fc:	5f5f5841 	svcpl	0x005f5841
     200:	37783020 	ldrbcc	r3, [r8, -r0, lsr #32]!
     204:	66666666 	strbtvs	r6, [r6], -r6, ror #12
     208:	00666666 	rsbeq	r6, r6, r6, ror #12
     20c:	4e4f4c5f 	mcrmi	12, 2, r4, cr15, cr15, {2}
     210:	4f445f47 	svcmi	0x00445f47
     214:	454c4255 	strbmi	r4, [ip, #-597]	; 0xfffffdab
     218:	6e6f6c20 	cdpvs	12, 6, cr6, cr15, cr0, {1}
     21c:	6f642067 	svcvs	0x00642067
     220:	656c6275 	strbvs	r6, [ip, #-629]!	; 0xfffffd8b
     224:	495f5f00 	ldmdbmi	pc, {r8, r9, sl, fp, ip, lr}^	; <UNPREDICTABLE>
     228:	414d544e 	cmpmi	sp, lr, asr #8
     22c:	28435f58 	stmdacs	r3, {r3, r4, r6, r8, r9, sl, fp, ip, lr}^
     230:	63202963 			; <UNDEFINED> instruction: 0x63202963
     234:	20232320 	eorcs	r2, r3, r0, lsr #6
     238:	5f004c4c 	svcpl	0x00004c4c
     23c:	4e49575f 	mcrmi	7, 2, r5, cr9, cr15, {2}
     240:	494d5f54 	stmdbmi	sp, {r2, r4, r6, r8, r9, sl, fp, ip, lr}^
     244:	205f5f4e 	subscs	r5, pc, lr, asr #30
     248:	5f005530 	svcpl	0x00005530
     24c:	544e495f 	strbpl	r4, [lr], #-2399	; 0xfffff6a1
     250:	5f58414d 	svcpl	0x0058414d
     254:	5f58414d 	svcpl	0x0058414d
     258:	7830205f 	ldmdavc	r0!, {r0, r1, r2, r3, r4, r6, sp}
     25c:	66666637 			; <UNDEFINED> instruction: 0x66666637
     260:	66666666 	strbtvs	r6, [r6], -r6, ror #12
     264:	66666666 	strbtvs	r6, [r6], -r6, ror #12
     268:	66666666 	strbtvs	r6, [r6], -r6, ror #12
     26c:	5f004c4c 	svcpl	0x00004c4c
     270:	4e454552 	mcrmi	5, 2, r4, cr5, cr2, {2}
     274:	4e495f54 	mcrmi	15, 2, r5, cr9, cr4, {2}
     278:	4d5f5449 	cfldrdmi	mvd5, [pc, #-292]	; 15c <_Min_Heap_Size-0xa4>
     27c:	61762850 	cmnvs	r6, r0, asr r8
     280:	64202972 	strtvs	r2, [r0], #-2418	; 0xfffff68e
     284:	207b206f 	rsbscs	r2, fp, pc, rrx
     288:	75727473 	ldrbvc	r7, [r2, #-1139]!	; 0xfffffb8d
     28c:	5f207463 	svcpl	0x00207463
     290:	6e656572 	mcrvs	5, 3, r6, cr5, cr2, {3}
     294:	5f2a2074 	svcpl	0x002a2074
     298:	203d2072 	eorscs	r2, sp, r2, ror r0
     29c:	72617628 	rsbvc	r7, r1, #40, 12	; 0x2800000
     2a0:	5f203b29 	svcpl	0x00203b29
     2a4:	5f3e2d72 	svcpl	0x003e2d72
     2a8:	3e2d706d 	cdpcc	0, 2, cr7, cr13, cr13, {3}
     2ac:	7365725f 	cmnvc	r5, #-268435451	; 0xf0000005
     2b0:	5f746c75 	svcpl	0x00746c75
     2b4:	203d206b 	eorscs	r2, sp, fp, rrx
     2b8:	5f203b30 	svcpl	0x00203b30
     2bc:	5f3e2d72 	svcpl	0x003e2d72
     2c0:	3e2d706d 	cdpcc	0, 2, cr7, cr13, cr13, {3}
     2c4:	7365725f 	cmnvc	r5, #-268435451	; 0xf0000005
     2c8:	20746c75 	rsbscs	r6, r4, r5, ror ip
     2cc:	725f203d 	subsvc	r2, pc, #61	; 0x3d
     2d0:	6d5f3e2d 	ldclvs	14, cr3, [pc, #-180]	; 224 <_Min_Heap_Size+0x24>
     2d4:	5f3e2d70 	svcpl	0x003e2d70
     2d8:	20733570 	rsbscs	r3, r3, r0, ror r5
     2dc:	4e5f203d 	mrcmi	0, 2, r2, cr15, cr13, {1}
     2e0:	3b4c4c55 	blcc	131343c <_Min_Stack_Size+0x131303c>
     2e4:	2d725f20 	ldclcs	15, cr5, [r2, #-128]!	; 0xffffff80
     2e8:	706d5f3e 	rsbvc	r5, sp, lr, lsr pc
     2ec:	665f3e2d 	ldrbvs	r3, [pc], -sp, lsr #28
     2f0:	6c656572 	cfstr64vs	mvdx6, [r5], #-456	; 0xfffffe38
     2f4:	20747369 	rsbscs	r7, r4, r9, ror #6
     2f8:	4e5f203d 	mrcmi	0, 2, r2, cr15, cr13, {1}
     2fc:	3b4c4c55 	blcc	1313458 <_Min_Stack_Size+0x1313058>
     300:	77207d20 	strvc	r7, [r0, -r0, lsr #26]!
     304:	656c6968 	strbvs	r6, [ip, #-2408]!	; 0xfffff698
     308:	29302820 	ldmdbcs	r0!, {r5, fp, sp}
     30c:	545f5f00 	ldrbpl	r5, [pc], #-3840	; 314 <_Min_Heap_Size+0x114>
     310:	42495f51 	submi	r5, r9, #324	; 0x144
     314:	5f5f5449 	svcpl	0x005f5449
     318:	53003020 	movwpl	r3, #32
     31c:	5f4b4545 	svcpl	0x004b4545
     320:	20544553 	subscs	r4, r4, r3, asr r5
     324:	5f5f0030 	svcpl	0x005f0030
     328:	33544c46 	cmpcc	r4, #17920	; 0x4600
     32c:	4d5f5832 	ldclmi	8, cr5, [pc, #-200]	; 26c <_Min_Heap_Size+0x6c>
     330:	455f4e49 	ldrbmi	r4, [pc, #-3657]	; fffff4ef <_estack+0xdffdf4ef>
     334:	5f5f5058 	svcpl	0x005f5058
     338:	312d2820 			; <UNDEFINED> instruction: 0x312d2820
     33c:	29313230 	ldmdbcs	r1!, {r4, r5, r9, ip, sp}
     340:	4c5f5f00 	mrrcmi	15, 0, r5, pc, cr0	; <UNPREDICTABLE>
     344:	5f4c4244 	svcpl	0x004c4244
     348:	5f4e494d 	svcpl	0x004e494d
     34c:	2e32205f 	mrccs	0, 1, r2, cr2, cr15, {2}
     350:	30353232 	eorscc	r3, r5, r2, lsr r2
     354:	35383337 	ldrcc	r3, [r8, #-823]!	; 0xfffffcc9
     358:	37303538 			; <UNDEFINED> instruction: 0x37303538
     35c:	34313032 	ldrtcc	r3, [r1], #-50	; 0xffffffce
     360:	30332d65 	eorscc	r2, r3, r5, ror #26
     364:	5f004c38 	svcpl	0x00004c38
     368:	4e454552 	mcrmi	5, 2, r4, cr5, cr2, {2}
     36c:	49535f54 	ldmdbmi	r3, {r2, r4, r6, r8, r9, sl, fp, ip, lr}^
     370:	4c414e47 	mcrrmi	14, 4, r4, r1, cr7
     374:	5a49535f 	bpl	12550f8 <_Min_Stack_Size+0x1254cf8>
     378:	34322045 	ldrtcc	r2, [r2], #-69	; 0xffffffbb
     37c:	6d4b5f00 	stclvs	15, cr5, [fp, #-0]
     380:	28207861 	stmdacs	r0!, {r0, r5, r6, fp, ip, sp, lr}
     384:	657a6973 	ldrbvs	r6, [sl, #-2419]!	; 0xfffff68d
     388:	2820666f 	stmdacs	r0!, {r0, r1, r2, r3, r5, r6, r9, sl, sp, lr}
     38c:	657a6973 	ldrbvs	r6, [sl, #-2419]!	; 0xfffff68d
     390:	2029745f 	eorcs	r7, r9, pc, asr r4
     394:	33203c3c 			; <UNDEFINED> instruction: 0x33203c3c
     398:	5f5f0029 	svcpl	0x005f0029
     39c:	6c697562 	cfstr64vs	mvdx7, [r9], #-392	; 0xfffffe78
     3a0:	5f6e6974 	svcpl	0x006e6974
     3a4:	67696c61 	strbvs	r6, [r9, -r1, ror #24]!
     3a8:	70755f6e 	rsbsvc	r5, r5, lr, ror #30
     3ac:	612c7828 			; <UNDEFINED> instruction: 0x612c7828
     3b0:	6e67696c 	vnmulvs.f16	s13, s14, s25	; <UNPREDICTABLE>
     3b4:	28282029 	stmdacs	r8!, {r0, r3, r5, sp}
     3b8:	79745f5f 	ldmdbvc	r4!, {r0, r1, r2, r3, r4, r6, r8, r9, sl, fp, ip, lr}^
     3bc:	666f6570 			; <UNDEFINED> instruction: 0x666f6570
     3c0:	78285f5f 	stmdavc	r8!, {r0, r1, r2, r3, r4, r6, r8, r9, sl, fp, ip, lr}
     3c4:	28282929 	stmdacs	r8!, {r0, r3, r5, r8, fp, sp}
     3c8:	755f5f28 	ldrbvc	r5, [pc, #-3880]	; fffff4a8 <_estack+0xdffdf4a8>
     3cc:	70746e69 	rsbsvc	r6, r4, r9, ror #28
     3d0:	745f7274 	ldrbvc	r7, [pc], #-628	; 3d8 <_Min_Heap_Size+0x1d8>
     3d4:	29782829 	ldmdbcs	r8!, {r0, r3, r5, fp, sp}^
     3d8:	6128282b 			; <UNDEFINED> instruction: 0x6128282b
     3dc:	6e67696c 	vnmulvs.f16	s13, s14, s25	; <UNPREDICTABLE>
     3e0:	29312d29 	ldmdbcs	r1!, {r0, r3, r5, r8, sl, fp, sp}
     3e4:	7e282629 	cfmadda32vc	mvax1, mvax2, mvfx8, mvfx9
     3e8:	6c612828 	stclvs	8, cr2, [r1], #-160	; 0xffffff60
     3ec:	296e6769 	stmdbcs	lr!, {r0, r3, r5, r6, r8, r9, sl, sp, lr}^
     3f0:	2929312d 	stmdbcs	r9!, {r0, r2, r3, r5, r8, ip, sp}
     3f4:	5f002929 	svcpl	0x00002929
     3f8:	414c555f 	cmpmi	ip, pc, asr r5
     3fc:	4d554343 	ldclmi	3, cr4, [r5, #-268]	; 0xfffffef4
     400:	4942465f 	stmdbmi	r2, {r0, r1, r2, r3, r4, r6, r9, sl, lr}^
     404:	205f5f54 	subscs	r5, pc, r4, asr pc	; <UNPREDICTABLE>
     408:	5f003233 	svcpl	0x00003233
     40c:	4843575f 	stmdami	r3, {r0, r1, r2, r3, r4, r6, r8, r9, sl, ip, lr}^
     410:	4d5f5241 	lfmmi	f5, 2, [pc, #-260]	; 314 <_Min_Heap_Size+0x114>
     414:	5f5f5841 	svcpl	0x005f5841
     418:	66783020 	ldrbtvs	r3, [r8], -r0, lsr #32
     41c:	66666666 	strbtvs	r6, [r6], -r6, ror #12
     420:	55666666 	strbpl	r6, [r6, #-1638]!	; 0xfffff99a
     424:	735f5f00 	cmpvc	pc, #0, 30
     428:	63746567 	cmnvs	r4, #432013312	; 0x19c00000
     42c:	5f28725f 	svcpl	0x0028725f
     430:	7274705f 	rsbsvc	r7, r4, #95	; 0x5f
     434:	705f5f2c 	subsvc	r5, pc, ip, lsr #30
     438:	5f5f2029 	svcpl	0x005f2029
     43c:	74656773 	strbtvc	r6, [r5], #-1907	; 0xfffff88d
     440:	61725f63 	cmnvs	r2, r3, ror #30
     444:	28725f77 	ldmdacs	r2!, {r0, r1, r2, r4, r5, r6, r8, r9, sl, fp, ip, lr}^
     448:	74705f5f 	ldrbtvc	r5, [r0], #-3935	; 0xfffff0a1
     44c:	5f202c72 	svcpl	0x00202c72
     450:	0029705f 	eoreq	r7, r9, pc, asr r0
     454:	4f435f5f 	svcmi	0x00435f5f
     458:	5441434e 	strbpl	r4, [r1], #-846	; 0xfffffcb2
     45c:	792c7828 	stmdbvc	ip!, {r3, r5, fp, ip, sp, lr}
     460:	5f5f2029 	svcpl	0x005f2029
     464:	434e4f43 	movtmi	r4, #61251	; 0xef43
     468:	28315441 	ldmdacs	r1!, {r0, r6, sl, ip, lr}
     46c:	29792c78 	ldmdbcs	r9!, {r3, r4, r5, r6, sl, fp, sp}^
     470:	45445f00 	strbmi	r5, [r4, #-3840]	; 0xfffff100
     474:	4c554146 	ldfmie	f4, [r5], {70}	; 0x46
     478:	4f535f54 	svcmi	0x00535f54
     47c:	45435255 	strbmi	r5, [r3, #-597]	; 0xfffffdab
     480:	475f5f00 	ldrbmi	r5, [pc, -r0, lsl #30]
     484:	4c43554e 	cfstr64mi	mvdx5, [r3], {78}	; 0x4e
     488:	5f454b49 	svcpl	0x00454b49
     48c:	59545f5f 	ldmdbpl	r4, {r0, r1, r2, r3, r4, r6, r8, r9, sl, fp, ip, lr}^
     490:	464f4550 			; <UNDEFINED> instruction: 0x464f4550
     494:	5f003120 	svcpl	0x00003120
     498:	5a49535f 	bpl	125521c <_Min_Stack_Size+0x1254e1c>
     49c:	5f464f45 	svcpl	0x00464f45
     4a0:	474e4f4c 	strbmi	r4, [lr, -ip, asr #30]
     4a4:	4e4f4c5f 	mcrmi	12, 2, r4, cr15, cr15, {2}
     4a8:	205f5f47 	subscs	r5, pc, r7, asr #30
     4ac:	5f5f0038 	svcpl	0x005f0038
     4b0:	5f4c4244 	svcpl	0x004c4244
     4b4:	5f58414d 	svcpl	0x0058414d
     4b8:	455f3031 	ldrbmi	r3, [pc, #-49]	; 48f <_Min_Stack_Size+0x8f>
     4bc:	5f5f5058 	svcpl	0x005f5058
     4c0:	38303320 	ldmdacc	r0!, {r5, r8, r9, ip, sp}
     4c4:	525f5f00 	subspl	r5, pc, #0, 30
     4c8:	44495343 	strbmi	r5, [r9], #-835	; 0xfffffcbd
     4cc:	554f535f 	strbpl	r5, [pc, #-863]	; 175 <_Min_Heap_Size-0x8b>
     4d0:	28454352 	stmdacs	r5, {r1, r4, r6, r8, r9, lr}^
     4d4:	73202973 			; <UNDEFINED> instruction: 0x73202973
     4d8:	63757274 	cmnvs	r5, #116, 4	; 0x40000007
     4dc:	5f5f2074 	svcpl	0x005f2074
     4e0:	6b636168 	blvs	18d8a88 <_Min_Stack_Size+0x18d8688>
     4e4:	465f5f00 	ldrbmi	r5, [pc], -r0, lsl #30
     4e8:	54434152 	strbpl	r4, [r3], #-338	; 0xfffffeae
     4ec:	4e494d5f 	mcrmi	13, 2, r4, cr9, cr15, {2}
     4f0:	28205f5f 	stmdacs	r0!, {r0, r1, r2, r3, r4, r6, r8, r9, sl, fp, ip, lr}
     4f4:	352e302d 	strcc	r3, [lr, #-45]!	; 0xffffffd3
     4f8:	2e302d52 	mrccs	13, 1, r2, cr0, cr2, {2}
     4fc:	00295235 	eoreq	r5, r9, r5, lsr r2
     500:	4f505f5f 	svcmi	0x00505f5f
     504:	5f584953 	svcpl	0x00584953
     508:	49534956 	ldmdbmi	r3, {r1, r2, r4, r6, r8, fp, lr}^
     50c:	20454c42 	subcs	r4, r5, r2, asr #24
     510:	38303032 	ldmdacc	r0!, {r1, r4, r5, ip, sp}
     514:	5f003930 	svcpl	0x00003930
     518:	4153555f 	cmpmi	r3, pc, asr r5
     51c:	4d554343 	ldclmi	3, cr4, [r5, #-268]	; 0xfffffef4
     520:	58414d5f 	stmdapl	r1, {r0, r1, r2, r3, r4, r6, r8, sl, fp, lr}^
     524:	30205f5f 	eorcc	r5, r0, pc, asr pc
     528:	46464658 			; <UNDEFINED> instruction: 0x46464658
     52c:	382d5046 	stmdacc	sp!, {r1, r2, r6, ip, lr}
     530:	004b4855 	subeq	r4, fp, r5, asr r8
     534:	46535f5f 	usaxmi	r5, r3, pc	; <UNPREDICTABLE>
     538:	54434152 	strbpl	r4, [r3], #-338	; 0xfffffeae
     53c:	4942465f 	stmdbmi	r2, {r0, r1, r2, r3, r4, r6, r9, sl, lr}^
     540:	205f5f54 	subscs	r5, pc, r4, asr pc	; <UNPREDICTABLE>
     544:	5f5f0037 	svcpl	0x005f0037
     548:	4d544e49 	ldclmi	14, cr4, [r4, #-292]	; 0xfffffedc
     54c:	575f5841 	ldrbpl	r5, [pc, -r1, asr #16]
     550:	48544449 	ldmdami	r4, {r0, r3, r6, sl, lr}^
     554:	36205f5f 	qsaxcc	r5, r0, pc	; <UNPREDICTABLE>
     558:	525f0034 	subspl	r0, pc, #52	; 0x34
     55c:	544e4545 	strbpl	r4, [lr], #-1349	; 0xfffffabb
     560:	53424d5f 	movtpl	r4, #11615	; 0x2d5f
     564:	574f5452 	smlsldpl	r5, pc, r2, r4	; <UNPREDICTABLE>
     568:	535f5343 	cmppl	pc, #201326593	; 0xc000001
     56c:	45544154 	ldrbmi	r4, [r4, #-340]	; 0xfffffeac
     570:	72747028 	rsbsvc	r7, r4, #40	; 0x28
     574:	28282029 	stmdacs	r8!, {r0, r3, r5, sp}
     578:	29727470 	ldmdbcs	r2!, {r4, r5, r6, sl, ip, sp, lr}^
     57c:	6d5f3e2d 	ldclvs	14, cr3, [pc, #-180]	; 4d0 <_Min_Stack_Size+0xd0>
     580:	2d637369 	stclcs	3, cr7, [r3, #-420]!	; 0xfffffe5c
     584:	626d5f3e 	rsbvs	r5, sp, #62, 30	; 0xf8
     588:	6f747273 	svcvs	0x00747273
     58c:	5f736377 	svcpl	0x00736377
     590:	74617473 	strbtvc	r7, [r1], #-1139	; 0xfffffb8d
     594:	5f002965 	svcpl	0x00002965
     598:	4d52415f 	ldfmie	f4, [r2, #-380]	; 0xfffffe84
     59c:	4145465f 	cmpmi	r5, pc, asr r6
     5a0:	45525554 	ldrbmi	r5, [r2, #-1364]	; 0xfffffaac
     5a4:	4954425f 	ldmdbmi	r4, {r0, r1, r2, r3, r4, r6, r9, lr}^
     5a8:	4645445f 			; <UNDEFINED> instruction: 0x4645445f
     5ac:	544c5541 	strbpl	r5, [ip], #-1345	; 0xfffffabf
     5b0:	535f5f00 	cmppl	pc, #0, 30
     5b4:	42495f51 	submi	r5, r9, #324	; 0x144
     5b8:	5f5f5449 	svcpl	0x005f5449
     5bc:	5f003020 	svcpl	0x00003020
     5c0:	44524f5f 	ldrbmi	r4, [r2], #-3935	; 0xfffff0a1
     5c4:	505f5245 	subspl	r5, pc, r5, asr #4
     5c8:	455f5044 	ldrbmi	r5, [pc, #-68]	; 58c <_Min_Stack_Size+0x18c>
     5cc:	4149444e 	cmpmi	r9, lr, asr #8
     5d0:	205f5f4e 	subscs	r5, pc, lr, asr #30
     5d4:	32313433 	eorscc	r3, r1, #855638016	; 0x33000000
     5d8:	535f5f00 	cmppl	pc, #0, 30
     5dc:	5f455a49 	svcpl	0x00455a49
     5e0:	45505954 	ldrbmi	r5, [r0, #-2388]	; 0xfffff6ac
     5e4:	75205f5f 	strvc	r5, [r0, #-3935]!	; 0xfffff0a1
     5e8:	6769736e 	strbvs	r7, [r9, -lr, ror #6]!
     5ec:	2064656e 	rsbcs	r6, r4, lr, ror #10
     5f0:	00746e69 	rsbseq	r6, r4, r9, ror #28
     5f4:	4c465f5f 	mcrrmi	15, 5, r5, r6, cr15
     5f8:	41485f54 	cmpmi	r8, r4, asr pc
     5fc:	45445f53 	strbmi	r5, [r4, #-3923]	; 0xfffff0ad
     600:	4d524f4e 	ldclmi	15, cr4, [r2, #-312]	; 0xfffffec8
     604:	31205f5f 			; <UNDEFINED> instruction: 0x31205f5f
     608:	495f5f00 	ldmdbmi	pc, {r8, r9, sl, fp, ip, lr}^	; <UNPREDICTABLE>
     60c:	5f38544e 	svcpl	0x0038544e
     610:	45505954 	ldrbmi	r5, [r0, #-2388]	; 0xfffff6ac
     614:	73205f5f 			; <UNDEFINED> instruction: 0x73205f5f
     618:	656e6769 	strbvs	r6, [lr, #-1897]!	; 0xfffff897
     61c:	68632064 	stmdavs	r3!, {r2, r5, r6, sp}^
     620:	5f007261 	svcpl	0x00007261
     624:	544c465f 	strbpl	r4, [ip], #-1631	; 0xfffff9a1
     628:	4d5f3233 	lfmmi	f3, 2, [pc, #-204]	; 564 <_Min_Stack_Size+0x164>
     62c:	5f5f4e49 	svcpl	0x005f4e49
     630:	312e3120 			; <UNDEFINED> instruction: 0x312e3120
     634:	39343537 	ldmdbcc	r4!, {r0, r1, r2, r4, r5, r8, sl, ip, sp}
     638:	30353334 	eorscc	r3, r5, r4, lsr r3
     63c:	32323238 	eorscc	r3, r2, #56, 4	; 0x80000003
     640:	65353738 	ldrvs	r3, [r5, #-1848]!	; 0xfffff8c8
     644:	4638332d 	ldrtmi	r3, [r8], -sp, lsr #6
     648:	5f003233 	svcpl	0x00003233
     64c:	4153555f 	cmpmi	r3, pc, asr r5
     650:	4d554343 	ldclmi	3, cr4, [r5, #-268]	; 0xfffffef4
     654:	4e494d5f 	mcrmi	13, 2, r4, cr9, cr15, {2}
     658:	30205f5f 	eorcc	r5, r0, pc, asr pc
     65c:	4855302e 	ldmdami	r5, {r1, r2, r3, r5, ip, sp}^
     660:	5f5f004b 	svcpl	0x005f004b
     664:	33544c46 	cmpcc	r4, #17920	; 0x4600
     668:	45445f32 	strbmi	r5, [r4, #-3890]	; 0xfffff0ce
     66c:	414d4943 	cmpmi	sp, r3, asr #18
     670:	49445f4c 	stmdbmi	r4, {r2, r3, r6, r8, r9, sl, fp, ip, lr}^
     674:	205f5f47 	subscs	r5, pc, r7, asr #30
     678:	5f5f0039 	svcpl	0x005f0039
     67c:	4c42444c 	cfstrdmi	mvd4, [r2], {76}	; 0x4c
     680:	4e494d5f 	mcrmi	13, 2, r4, cr9, cr15, {2}
     684:	5058455f 	subspl	r4, r8, pc, asr r5
     688:	28205f5f 	stmdacs	r0!, {r0, r1, r2, r3, r4, r6, r8, r9, sl, fp, ip, lr}
     68c:	3230312d 	eorscc	r3, r0, #1073741835	; 0x4000000b
     690:	5f002931 	svcpl	0x00002931
     694:	4e454552 	mcrmi	5, 2, r4, cr5, cr2, {2}
     698:	4e495f54 	mcrmi	15, 2, r5, cr9, cr4, {2}
     69c:	525f5449 	subspl	r5, pc, #1224736768	; 0x49000000
     6a0:	34444e41 	strbcc	r4, [r4], #-3649	; 0xfffff1bf
     6a4:	61762838 	cmnvs	r6, r8, lsr r8
     6a8:	64202972 	strtvs	r2, [r0], #-2418	; 0xfffff68e
     6ac:	207b206f 	rsbscs	r2, fp, pc, rrx
     6b0:	75727473 	ldrbvc	r7, [r2, #-1139]!	; 0xfffffb8d
     6b4:	5f207463 	svcpl	0x00207463
     6b8:	6e656572 	mcrvs	5, 3, r6, cr5, cr2, {3}
     6bc:	5f2a2074 	svcpl	0x002a2074
     6c0:	203d2072 	eorscs	r2, sp, r2, ror r0
     6c4:	72617628 	rsbvc	r7, r1, #40, 12	; 0x2800000
     6c8:	5f203b29 	svcpl	0x00203b29
     6cc:	5f3e2d72 	svcpl	0x003e2d72
     6d0:	2d383472 	cfldrscs	mvf3, [r8, #-456]!	; 0xfffffe38
     6d4:	65735f3e 	ldrbvs	r5, [r3, #-3902]!	; 0xfffff0c2
     6d8:	305b6465 	subscc	r6, fp, r5, ror #8
     6dc:	203d205d 	eorscs	r2, sp, sp, asr r0
     6e0:	4e41525f 	mcrmi	2, 2, r5, cr1, cr15, {2}
     6e4:	5f383444 	svcpl	0x00383444
     6e8:	44454553 	strbmi	r4, [r5], #-1363	; 0xfffffaad
     6ec:	203b305f 	eorscs	r3, fp, pc, asr r0
     6f0:	3e2d725f 	mcrcc	2, 1, r7, cr13, cr15, {2}
     6f4:	3834725f 	ldmdacc	r4!, {r0, r1, r2, r3, r4, r6, r9, ip, sp, lr}
     6f8:	735f3e2d 	cmpvc	pc, #720	; 0x2d0
     6fc:	5b646565 	blpl	1919c98 <_Min_Stack_Size+0x1919898>
     700:	3d205d31 	stccc	13, cr5, [r0, #-196]!	; 0xffffff3c
     704:	41525f20 	cmpmi	r2, r0, lsr #30
     708:	3834444e 	ldmdacc	r4!, {r1, r2, r3, r6, sl, lr}
     70c:	4545535f 	strbmi	r5, [r5, #-863]	; 0xfffffca1
     710:	3b315f44 	blcc	c58428 <_Min_Stack_Size+0xc58028>
     714:	2d725f20 	ldclcs	15, cr5, [r2, #-128]!	; 0xffffff80
     718:	34725f3e 	ldrbtcc	r5, [r2], #-3902	; 0xfffff0c2
     71c:	5f3e2d38 	svcpl	0x003e2d38
     720:	64656573 	strbtvs	r6, [r5], #-1395	; 0xfffffa8d
     724:	205d325b 	subscs	r3, sp, fp, asr r2
     728:	525f203d 	subspl	r2, pc, #61	; 0x3d
     72c:	34444e41 	strbcc	r4, [r4], #-3649	; 0xfffff1bf
     730:	45535f38 	ldrbmi	r5, [r3, #-3896]	; 0xfffff0c8
     734:	325f4445 	subscc	r4, pc, #1157627904	; 0x45000000
     738:	725f203b 	subsvc	r2, pc, #59	; 0x3b
     73c:	725f3e2d 	subsvc	r3, pc, #720	; 0x2d0
     740:	3e2d3834 	mcrcc	8, 1, r3, cr13, cr4, {1}
     744:	6c756d5f 	ldclvs	13, cr6, [r5], #-380	; 0xfffffe84
     748:	5d305b74 	vldmdbpl	r0!, {d5-<overflow reg d62>}
     74c:	5f203d20 	svcpl	0x00203d20
     750:	444e4152 	strbmi	r4, [lr], #-338	; 0xfffffeae
     754:	4d5f3834 	ldclmi	8, cr3, [pc, #-208]	; 68c <_Min_Stack_Size+0x28c>
     758:	5f544c55 	svcpl	0x00544c55
     75c:	5f203b30 	svcpl	0x00203b30
     760:	5f3e2d72 	svcpl	0x003e2d72
     764:	2d383472 	cfldrscs	mvf3, [r8, #-456]!	; 0xfffffe38
     768:	756d5f3e 	strbvc	r5, [sp, #-3902]!	; 0xfffff0c2
     76c:	315b746c 	cmpcc	fp, ip, ror #8
     770:	203d205d 	eorscs	r2, sp, sp, asr r0
     774:	4e41525f 	mcrmi	2, 2, r5, cr1, cr15, {2}
     778:	5f383444 	svcpl	0x00383444
     77c:	544c554d 	strbpl	r5, [ip], #-1357	; 0xfffffab3
     780:	203b315f 	eorscs	r3, fp, pc, asr r1
     784:	3e2d725f 	mcrcc	2, 1, r7, cr13, cr15, {2}
     788:	3834725f 	ldmdacc	r4!, {r0, r1, r2, r3, r4, r6, r9, ip, sp, lr}
     78c:	6d5f3e2d 	ldclvs	14, cr3, [pc, #-180]	; 6e0 <_Min_Stack_Size+0x2e0>
     790:	5b746c75 	blpl	1d1b96c <_Min_Stack_Size+0x1d1b56c>
     794:	3d205d32 	stccc	13, cr5, [r0, #-200]!	; 0xffffff38
     798:	41525f20 	cmpmi	r2, r0, lsr #30
     79c:	3834444e 	ldmdacc	r4!, {r1, r2, r3, r6, sl, lr}
     7a0:	4c554d5f 	mrrcmi	13, 5, r4, r5, cr15
     7a4:	3b325f54 	blcc	c984fc <_Min_Stack_Size+0xc980fc>
     7a8:	2d725f20 	ldclcs	15, cr5, [r2, #-128]!	; 0xffffff80
     7ac:	34725f3e 	ldrbtcc	r5, [r2], #-3902	; 0xfffff0c2
     7b0:	5f3e2d38 	svcpl	0x003e2d38
     7b4:	20646461 	rsbcs	r6, r4, r1, ror #8
     7b8:	525f203d 	subspl	r2, pc, #61	; 0x3d
     7bc:	34444e41 	strbcc	r4, [r4], #-3649	; 0xfffff1bf
     7c0:	44415f38 	strbmi	r5, [r1], #-3896	; 0xfffff0c8
     7c4:	5f203b44 	svcpl	0x00203b44
     7c8:	5f3e2d72 	svcpl	0x003e2d72
     7cc:	2d383472 	cfldrscs	mvf3, [r8, #-456]!	; 0xfffffe38
     7d0:	61725f3e 	cmnvs	r2, lr, lsr pc
     7d4:	6e5f646e 	cdpvs	4, 5, cr6, cr15, cr14, {3}
     7d8:	20747865 	rsbscs	r7, r4, r5, ror #16
     7dc:	3b31203d 	blcc	c488d8 <_Min_Stack_Size+0xc484d8>
     7e0:	77207d20 	strvc	r7, [r0, -r0, lsr #26]!
     7e4:	656c6968 	strbvs	r6, [ip, #-2408]!	; 0xfffff698
     7e8:	29302820 	ldmdbcs	r0!, {r5, fp, sp}
     7ec:	4c5f5f00 	mrrcmi	15, 0, r5, pc, cr0	; <UNPREDICTABLE>
     7f0:	5f4c4244 	svcpl	0x004c4244
     7f4:	544e414d 	strbpl	r4, [lr], #-333	; 0xfffffeb3
     7f8:	4749445f 	smlsldmi	r4, r9, pc, r4	; <UNPREDICTABLE>
     7fc:	35205f5f 	strcc	r5, [r0, #-3935]!	; 0xfffff0a1
     800:	5f5f0033 	svcpl	0x005f0033
     804:	544e4955 	strbpl	r4, [lr], #-2389	; 0xfffff6ab
     808:	28435f38 	stmdacs	r3, {r3, r4, r5, r8, r9, sl, fp, ip, lr}^
     80c:	63202963 			; <UNDEFINED> instruction: 0x63202963
     810:	495f5f00 	ldmdbmi	pc, {r8, r9, sl, fp, ip, lr}^	; <UNPREDICTABLE>
     814:	3631544e 	ldrtcc	r5, [r1], -lr, asr #8
     818:	5059545f 	subspl	r5, r9, pc, asr r4
     81c:	205f5f45 	subscs	r5, pc, r5, asr #30
     820:	726f6873 	rsbvc	r6, pc, #7536640	; 0x730000
     824:	6e692074 	mcrvs	0, 3, r2, cr9, cr4, {3}
     828:	5f5f0074 	svcpl	0x005f0074
     82c:	67696c61 	strbvs	r6, [r9, -r1, ror #24]!
     830:	2864656e 	stmdacs	r4!, {r1, r2, r3, r5, r6, r8, sl, sp, lr}^
     834:	5f202978 	svcpl	0x00202978
     838:	7474615f 	ldrbtvc	r6, [r4], #-351	; 0xfffffea1
     83c:	75626972 	strbvc	r6, [r2, #-2418]!	; 0xfffff68e
     840:	5f5f6574 	svcpl	0x005f6574
     844:	5f5f2828 	svcpl	0x005f2828
     848:	67696c61 	strbvs	r6, [r9, -r1, ror #24]!
     84c:	5f64656e 	svcpl	0x0064656e
     850:	2978285f 	ldmdbcs	r8!, {r0, r1, r2, r3, r4, r6, fp, sp}^
     854:	5f002929 	svcpl	0x00002929
     858:	544c465f 	strbpl	r4, [ip], #-1631	; 0xfffff9a1
     85c:	4d5f3436 	cfldrdmi	mvd3, [pc, #-216]	; 78c <_Min_Stack_Size+0x38c>
     860:	5f5f5841 	svcpl	0x005f5841
     864:	372e3120 	strcc	r3, [lr, -r0, lsr #2]!
     868:	39363739 	ldmdbcc	r6!, {r0, r3, r4, r5, r8, r9, sl, ip, sp}
     86c:	34333133 	ldrtcc	r3, [r3], #-307	; 0xfffffecd
     870:	33323638 	teqcc	r2, #56, 12	; 0x3800000
     874:	65373531 	ldrvs	r3, [r7, #-1329]!	; 0xfffffacf
     878:	3830332b 	ldmdacc	r0!, {r0, r1, r3, r5, r8, r9, ip, sp}
     87c:	00343646 	eorseq	r3, r4, r6, asr #12
     880:	4545525f 	strbmi	r5, [r5, #-607]	; 0xfffffda1
     884:	575f544e 	ldrbpl	r5, [pc, -lr, asr #8]
     888:	54525343 	ldrbpl	r5, [r2], #-835	; 0xfffffcbd
     88c:	53424d4f 	movtpl	r4, #11599	; 0x2d4f
     890:	4154535f 	cmpmi	r4, pc, asr r3
     894:	70284554 	eorvc	r4, r8, r4, asr r5
     898:	20297274 	eorcs	r7, r9, r4, ror r2
     89c:	74702828 	ldrbtvc	r2, [r0], #-2088	; 0xfffff7d8
     8a0:	3e2d2972 			; <UNDEFINED> instruction: 0x3e2d2972
     8a4:	73696d5f 	cmnvc	r9, #6080	; 0x17c0
     8a8:	5f3e2d63 	svcpl	0x003e2d63
     8ac:	72736377 	rsbsvc	r6, r3, #-603979775	; 0xdc000001
     8b0:	626d6f74 	rsbvs	r6, sp, #116, 30	; 0x1d0
     8b4:	74735f73 	ldrbtvc	r5, [r3], #-3955	; 0xfffff08d
     8b8:	29657461 	stmdbcs	r5!, {r0, r5, r6, sl, ip, sp, lr}^
     8bc:	645f6700 	ldrbvs	r6, [pc], #-1792	; 8c4 <_Min_Stack_Size+0x4c4>
     8c0:	32617461 	rsbcc	r7, r1, #1627389952	; 0x61000000
     8c4:	755f5f00 	ldrbvc	r5, [pc, #-3840]	; fffff9cc <_estack+0xdffdf9cc>
     8c8:	756f626e 	strbvc	r6, [pc, #-622]!	; 662 <_Min_Stack_Size+0x262>
     8cc:	6465646e 	strbtvs	r6, [r5], #-1134	; 0xfffffb92
     8d0:	55420020 	strbpl	r0, [r2, #-32]	; 0xffffffe0
     8d4:	5a495346 	bpl	12555f4 <_Min_Stack_Size+0x12551f4>
     8d8:	32303120 	eorscc	r3, r0, #32, 2
     8dc:	5f5f0034 	svcpl	0x005f0034
     8e0:	5f434347 	svcpl	0x00434347
     8e4:	45564148 	ldrbmi	r4, [r6, #-328]	; 0xfffffeb8
     8e8:	4e59535f 	mrcmi	3, 2, r5, cr9, cr15, {2}
     8ec:	4f435f43 	svcmi	0x00435f43
     8f0:	5241504d 	subpl	r5, r1, #77	; 0x4d
     8f4:	4e415f45 	cdpmi	15, 4, cr5, cr1, cr5, {2}
     8f8:	57535f44 	ldrbpl	r5, [r3, -r4, asr #30]
     8fc:	315f5041 	cmpcc	pc, r1, asr #32
     900:	5f003120 	svcpl	0x00003120
     904:	6975625f 	ldmdbvs	r5!, {r0, r1, r2, r3, r4, r6, r9, sp, lr}^
     908:	6e69746c 	cdpvs	4, 6, cr7, cr9, cr12, {3}
     90c:	696c615f 	stmdbvs	ip!, {r0, r1, r2, r3, r4, r6, r8, sp, lr}^
     910:	645f6e67 	ldrbvs	r6, [pc], #-3687	; 918 <_Min_Stack_Size+0x518>
     914:	286e776f 	stmdacs	lr!, {r0, r1, r2, r3, r5, r6, r8, r9, sl, ip, sp, lr}^
     918:	6c612c78 	stclvs	12, cr2, [r1], #-480	; 0xfffffe20
     91c:	296e6769 	stmdbcs	lr!, {r0, r3, r5, r6, r8, r9, sl, sp, lr}^
     920:	5f282820 	svcpl	0x00282820
     924:	7079745f 	rsbsvc	r7, r9, pc, asr r4
     928:	5f666f65 	svcpl	0x00666f65
     92c:	2978285f 	ldmdbcs	r8!, {r0, r1, r2, r3, r4, r6, fp, sp}^
     930:	78282829 	stmdavc	r8!, {r0, r3, r5, fp, sp}
     934:	7e282629 	cfmadda32vc	mvax1, mvax2, mvfx8, mvfx9
     938:	6c612828 	stclvs	8, cr2, [r1], #-160	; 0xffffff60
     93c:	296e6769 	stmdbcs	lr!, {r0, r3, r5, r6, r8, r9, sl, sp, lr}^
     940:	2929312d 	stmdbcs	r9!, {r0, r2, r3, r5, r8, ip, sp}
     944:	5f002929 	svcpl	0x00002929
     948:	4e49555f 	mcrmi	5, 2, r5, cr9, cr15, {2}
     94c:	454c5f54 	strbmi	r5, [ip, #-3924]	; 0xfffff0ac
     950:	31545341 	cmpcc	r4, r1, asr #6
     954:	414d5f36 	cmpmi	sp, r6, lsr pc
     958:	205f5f58 	subscs	r5, pc, r8, asr pc	; <UNPREDICTABLE>
     95c:	66667830 			; <UNDEFINED> instruction: 0x66667830
     960:	5f006666 	svcpl	0x00006666
     964:	4454535f 	ldrbmi	r5, [r4], #-863	; 0xfffffca1
     968:	4f485f43 	svcmi	0x00485f43
     96c:	44455453 	strbmi	r5, [r5], #-1107	; 0xfffffbad
     970:	31205f5f 			; <UNDEFINED> instruction: 0x31205f5f
     974:	555f5f00 	ldrbpl	r5, [pc, #-3840]	; fffffa7c <_estack+0xdffdfa7c>
     978:	52464c4c 	subpl	r4, r6, #76, 24	; 0x4c00
     97c:	5f544341 	svcpl	0x00544341
     980:	54494246 	strbpl	r4, [r9], #-582	; 0xfffffdba
     984:	36205f5f 	qsaxcc	r5, r0, pc	; <UNPREDICTABLE>
     988:	4c5f0034 	mrrcmi	0, 3, r0, pc, cr4	; <UNPREDICTABLE>
     98c:	5f4c4244 	svcpl	0x004c4244
     990:	445f5145 	ldrbmi	r5, [pc], #-325	; 998 <_Min_Stack_Size+0x598>
     994:	31204c42 			; <UNDEFINED> instruction: 0x31204c42
     998:	4f495f00 	svcmi	0x00495f00
     99c:	2046424c 	subcs	r4, r6, ip, asr #4
     9a0:	5f5f0031 	svcpl	0x005f0031
     9a4:	5f544e49 	svcpl	0x00544e49
     9a8:	54534146 	ldrbpl	r4, [r3], #-326	; 0xfffffeba
     9ac:	545f3436 	ldrbpl	r3, [pc], #-1078	; 9b4 <_Min_Stack_Size+0x5b4>
     9b0:	5f455059 	svcpl	0x00455059
     9b4:	6f6c205f 	svcvs	0x006c205f
     9b8:	6c20676e 	stcvs	7, cr6, [r0], #-440	; 0xfffffe48
     9bc:	20676e6f 	rsbcs	r6, r7, pc, ror #28
     9c0:	00746e69 	rsbseq	r6, r4, r9, ror #28
     9c4:	52415f5f 	subpl	r5, r1, #380	; 0x17c
     9c8:	45465f4d 	strbmi	r5, [r6, #-3917]	; 0xfffff0b3
     9cc:	52555441 	subspl	r5, r5, #1090519040	; 0x41000000
     9d0:	4f435f45 	svcmi	0x00435f45
     9d4:	434f5250 	movtmi	r5, #62032	; 0xf250
     9d8:	00353120 	eorseq	r3, r5, r0, lsr #2
     9dc:	49535f5f 	ldmdbmi	r3, {r0, r1, r2, r3, r4, r6, r8, r9, sl, fp, ip, lr}^
     9e0:	545f455a 	ldrbpl	r4, [pc], #-1370	; 9e8 <_Min_Stack_Size+0x5e8>
     9e4:	00205f5f 	eoreq	r5, r0, pc, asr pc
     9e8:	4c465f5f 	mcrrmi	15, 5, r5, r6, cr15
     9ec:	414d5f54 	cmpmi	sp, r4, asr pc
     9f0:	205f5f58 	subscs	r5, pc, r8, asr pc	; <UNPREDICTABLE>
     9f4:	30342e33 	eorscc	r2, r4, r3, lsr lr
     9f8:	33323832 	teqcc	r2, #3276800	; 0x320000
     9fc:	33363634 	teqcc	r6, #52, 12	; 0x3400000
     a00:	38323538 	ldmdacc	r2!, {r3, r4, r5, r8, sl, ip, sp}
     a04:	2b653638 	blcs	194e2ec <_Min_Stack_Size+0x194deec>
     a08:	00463833 	subeq	r3, r6, r3, lsr r8
     a0c:	656e5f5f 	strbvs	r5, [lr, #-3935]!	; 0xfffff0a1
     a10:	5f5f6465 	svcpl	0x005f6465
     a14:	5f61765f 	svcpl	0x0061765f
     a18:	7473696c 	ldrbtvc	r6, [r3], #-2412	; 0xfffff694
     a1c:	4f5f0020 	svcmi	0x005f0020
     a20:	545f4646 	ldrbpl	r4, [pc], #-1606	; a28 <_Min_Stack_Size+0x628>
     a24:	4345445f 	movtmi	r4, #21599	; 0x545f
     a28:	4552414c 	ldrbmi	r4, [r2, #-332]	; 0xfffffeb4
     a2c:	5f002044 	svcpl	0x00002044
     a30:	454d4954 	strbmi	r4, [sp, #-2388]	; 0xfffff6ac
     a34:	5f545f52 	svcpl	0x00545f52
     a38:	736e7520 	cmnvc	lr, #32, 10	; 0x8000000
     a3c:	656e6769 	strbvs	r6, [lr, #-1897]!	; 0xfffff897
     a40:	6f6c2064 	svcvs	0x006c2064
     a44:	5f00676e 	svcpl	0x0000676e
     a48:	4653555f 			; <UNDEFINED> instruction: 0x4653555f
     a4c:	54434152 	strbpl	r4, [r3], #-338	; 0xfffffeae
     a50:	58414d5f 	stmdapl	r1, {r0, r1, r2, r3, r4, r6, r8, sl, fp, lr}^
     a54:	30205f5f 	eorcc	r5, r0, pc, asr pc
     a58:	50464658 	subpl	r4, r6, r8, asr r6
     a5c:	4855382d 	ldmdami	r5, {r0, r2, r3, r5, fp, ip, sp}^
     a60:	5f5f0052 	svcpl	0x005f0052
     a64:	43554e47 	cmpmi	r5, #1136	; 0x470
     a68:	454b494c 	strbmi	r4, [fp, #-2380]	; 0xfffff6b4
     a6c:	4955425f 	ldmdbmi	r5, {r0, r1, r2, r3, r4, r6, r9, lr}^
     a70:	4e49544c 	cdpmi	4, 4, cr5, cr9, cr12, {2}
     a74:	4454535f 	ldrbmi	r5, [r4], #-863	; 0xfffffca1
     a78:	20475241 	subcs	r5, r7, r1, asr #4
     a7c:	5f5f0031 	svcpl	0x005f0031
     a80:	465f5046 	ldrbmi	r5, [pc], -r6, asr #32
     a84:	5f545341 	svcpl	0x00545341
     a88:	46414d46 	strbmi	r4, [r1], -r6, asr #26
     a8c:	31203233 			; <UNDEFINED> instruction: 0x31203233
     a90:	555f5f00 	ldrbpl	r5, [pc, #-3840]	; fffffb98 <_estack+0xdffdfb98>
     a94:	50544e49 	subspl	r4, r4, r9, asr #28
     a98:	4d5f5254 	lfmmi	f5, 2, [pc, #-336]	; 950 <_Min_Stack_Size+0x550>
     a9c:	5f5f5841 	svcpl	0x005f5841
     aa0:	66783020 	ldrbtvs	r3, [r8], -r0, lsr #32
     aa4:	66666666 	strbtvs	r6, [r6], -r6, ror #12
     aa8:	55666666 	strbpl	r6, [r6, #-1638]!	; 0xfffff99a
     aac:	6e5f5f00 	cdpvs	15, 5, cr5, cr15, cr0, {0}
     ab0:	5f646565 	svcpl	0x00646565
     ab4:	61686377 	smcvs	34359	; 0x8637
     ab8:	00745f72 	rsbseq	r5, r4, r2, ror pc
     abc:	4c465f5f 	mcrrmi	15, 5, r5, r6, cr15
     ac0:	5f323354 	svcpl	0x00323354
     ac4:	5f4e494d 	svcpl	0x004e494d
     ac8:	5f505845 	svcpl	0x00505845
     acc:	2d28205f 	stccs	0, cr2, [r8, #-380]!	; 0xfffffe84
     ad0:	29353231 	ldmdbcs	r5!, {r0, r4, r5, r9, ip, sp}
     ad4:	725f5f00 	subsvc	r5, pc, #0, 30
     ad8:	6c757365 	ldclvs	3, cr7, [r5], #-404	; 0xfffffe6c
     adc:	73755f74 	cmnvc	r5, #116, 30	; 0x1d0
     ae0:	68635f65 	stmdavs	r3!, {r0, r2, r5, r6, r8, r9, sl, fp, ip, lr}^
     ae4:	206b6365 	rsbcs	r6, fp, r5, ror #6
     ae8:	74615f5f 	strbtvc	r5, [r1], #-3935	; 0xfffff0a1
     aec:	62697274 	rsbvs	r7, r9, #116, 4	; 0x40000007
     af0:	5f657475 	svcpl	0x00657475
     af4:	5f28285f 	svcpl	0x0028285f
     af8:	7261775f 	rsbvc	r7, r1, #24903680	; 0x17c0000
     afc:	6e755f6e 	cdpvs	15, 7, cr5, cr5, cr14, {3}
     b00:	64657375 	strbtvs	r7, [r5], #-885	; 0xfffffc8b
     b04:	7365725f 	cmnvc	r5, #-268435451	; 0xf0000005
     b08:	5f746c75 	svcpl	0x00746c75
     b0c:	0029295f 	eoreq	r2, r9, pc, asr r9
     b10:	6c615f5f 	stclvs	15, cr5, [r1], #-380	; 0xfffffe84
     b14:	5f6e6769 	svcpl	0x006e6769
     b18:	6e776f64 	cdpvs	15, 7, cr6, cr7, cr4, {3}
     b1c:	792c7828 	stmdbvc	ip!, {r3, r5, fp, ip, sp, lr}
     b20:	5f5f2029 	svcpl	0x005f2029
     b24:	6c697562 	cfstr64vs	mvdx7, [r9], #-392	; 0xfffffe78
     b28:	5f6e6974 	svcpl	0x006e6974
     b2c:	67696c61 	strbvs	r6, [r9, -r1, ror #24]!
     b30:	6f645f6e 	svcvs	0x00645f6e
     b34:	78286e77 	stmdavc	r8!, {r0, r1, r2, r4, r5, r6, r9, sl, fp, sp, lr}
     b38:	2979202c 	ldmdbcs	r9!, {r2, r3, r5, sp}^
     b3c:	53425f00 	movtpl	r5, #12032	; 0x2f00
     b40:	54505f44 	ldrbpl	r5, [r0], #-3908	; 0xfffff0bc
     b44:	46494452 			; <UNDEFINED> instruction: 0x46494452
     b48:	5f545f46 	svcpl	0x00545f46
     b4c:	5f5f0020 	svcpl	0x005f0020
     b50:	61736f6e 	cmnvs	r3, lr, ror #30
     b54:	6974696e 	ldmdbvs	r4!, {r1, r2, r3, r5, r6, r8, fp, sp, lr}^
     b58:	656d657a 	strbvs	r6, [sp, #-1402]!	; 0xfffffa86
     b5c:	79726f6d 	ldmdbvc	r2!, {r0, r2, r3, r5, r6, r8, r9, sl, fp, sp, lr}^
     b60:	5f5f0020 	svcpl	0x005f0020
     b64:	36544c46 	ldrbcc	r4, [r4], -r6, asr #24
     b68:	494d5f34 	stmdbmi	sp, {r2, r4, r5, r8, r9, sl, fp, ip, lr}^
     b6c:	30315f4e 	eorscc	r5, r1, lr, asr #30
     b70:	5058455f 	subspl	r4, r8, pc, asr r5
     b74:	28205f5f 	stmdacs	r0!, {r0, r1, r2, r3, r4, r6, r8, r9, sl, fp, ip, lr}
     b78:	3730332d 	ldrcc	r3, [r0, -sp, lsr #6]!
     b7c:	5f5f0029 	svcpl	0x005f0029
     b80:	657a6973 	ldrbvs	r6, [sl, #-2419]!	; 0xfffff68d
     b84:	0020745f 	eoreq	r7, r0, pc, asr r4
     b88:	6f625f5f 	svcvs	0x00625f5f
     b8c:	65646e75 	strbvs	r6, [r4, #-3701]!	; 0xfffff18b
     b90:	5f002064 	svcpl	0x00002064
     b94:	544e495f 	strbpl	r4, [lr], #-2399	; 0xfffff6a1
     b98:	5341465f 	movtpl	r4, #5727	; 0x165f
     b9c:	5f343654 	svcpl	0x00343654
     ba0:	54444957 	strbpl	r4, [r4], #-2391	; 0xfffff6a9
     ba4:	205f5f48 	subscs	r5, pc, r8, asr #30
     ba8:	5f003436 	svcpl	0x00003436
     bac:	544c465f 	strbpl	r4, [ip], #-1631	; 0xfffff9a1
     bb0:	445f3436 	ldrbmi	r3, [pc], #-1078	; bb8 <_Min_Stack_Size+0x7b8>
     bb4:	4d494345 	stclmi	3, cr4, [r9, #-276]	; 0xfffffeec
     bb8:	445f4c41 	ldrbmi	r4, [pc], #-3137	; bc0 <_Min_Stack_Size+0x7c0>
     bbc:	5f5f4749 	svcpl	0x005f4749
     bc0:	00373120 	eorseq	r3, r7, r0, lsr #2
     bc4:	695f5f5f 	ldmdbvs	pc, {r0, r1, r2, r3, r4, r6, r8, r9, sl, fp, ip, lr}^	; <UNPREDICTABLE>
     bc8:	775f746e 	ldrbvc	r7, [pc, -lr, ror #8]
     bcc:	72616863 	rsbvc	r6, r1, #6488064	; 0x630000
     bd0:	685f745f 	ldmdavs	pc, {r0, r1, r2, r3, r4, r6, sl, ip, sp, lr}^	; <UNPREDICTABLE>
     bd4:	5f5f0020 	svcpl	0x005f0020
     bd8:	41524653 	cmpmi	r2, r3, asr r6
     bdc:	455f5443 	ldrbmi	r5, [pc, #-1091]	; 7a1 <_Min_Stack_Size+0x3a1>
     be0:	4c495350 	mcrrmi	3, 5, r5, r9, cr0
     be4:	5f5f4e4f 	svcpl	0x005f4e4f
     be8:	31783020 	cmncc	r8, r0, lsr #32
     bec:	48372d50 	ldmdami	r7!, {r4, r6, r8, sl, fp, sp}
     bf0:	5f5f0052 	svcpl	0x005f0052
     bf4:	434e4f43 	movtmi	r4, #61251	; 0xef43
     bf8:	28315441 	ldmdacs	r1!, {r0, r6, sl, ip, lr}
     bfc:	29792c78 	ldmdbcs	r9!, {r3, r4, r5, r6, sl, fp, sp}^
     c00:	23207820 			; <UNDEFINED> instruction: 0x23207820
     c04:	00792023 	rsbseq	r2, r9, r3, lsr #32
     c08:	43435f5f 	movtmi	r5, #16223	; 0x3f5f
     c0c:	5055535f 	subspl	r5, r5, pc, asr r3
     c10:	54524f50 	ldrbpl	r4, [r2], #-3920	; 0xfffff0b0
     c14:	5f5f5f53 	svcpl	0x005f5f53
     c18:	494c4e49 	stmdbmi	ip, {r0, r3, r6, r9, sl, fp, lr}^
     c1c:	3120454e 			; <UNDEFINED> instruction: 0x3120454e
     c20:	495f5f00 	ldmdbmi	pc, {r8, r9, sl, fp, ip, lr}^	; <UNPREDICTABLE>
     c24:	3233544e 	eorscc	r5, r3, #1308622848	; 0x4e000000
     c28:	6328435f 			; <UNDEFINED> instruction: 0x6328435f
     c2c:	20632029 	rsbcs	r2, r3, r9, lsr #32
     c30:	4c202323 	stcmi	3, cr2, [r0], #-140	; 0xffffff74
     c34:	555f5f00 	ldrbpl	r5, [pc, #-3840]	; fffffd3c <_estack+0xdffdfd3c>
     c38:	465f5153 			; <UNDEFINED> instruction: 0x465f5153
     c3c:	5f544942 	svcpl	0x00544942
     c40:	3233205f 	eorscc	r2, r3, #95	; 0x5f
     c44:	4f5f5f00 	svcmi	0x005f5f00
     c48:	52454452 	subpl	r4, r5, #1375731712	; 0x52000000
     c4c:	4749425f 	smlsldmi	r4, r9, pc, r2	; <UNPREDICTABLE>
     c50:	444e455f 	strbmi	r4, [lr], #-1375	; 0xfffffaa1
     c54:	5f4e4149 	svcpl	0x004e4149
     c58:	3334205f 	teqcc	r4, #95	; 0x5f
     c5c:	5f003132 	svcpl	0x00003132
     c60:	5f51535f 	svcpl	0x0051535f
     c64:	54494246 	strbpl	r4, [r9], #-582	; 0xfffffdba
     c68:	33205f5f 			; <UNDEFINED> instruction: 0x33205f5f
     c6c:	455f0031 	ldrbmi	r0, [pc, #-49]	; c43 <_Min_Stack_Size+0x843>
     c70:	4144494c 	cmpmi	r4, ip, asr #18
     c74:	5f454c42 	svcpl	0x00454c42
     c78:	494c4e49 	stmdbmi	ip, {r0, r3, r6, r9, sl, fp, lr}^
     c7c:	7320454e 			; <UNDEFINED> instruction: 0x7320454e
     c80:	69746174 	ldmdbvs	r4!, {r2, r4, r5, r6, r8, sp, lr}^
     c84:	5f5f2063 	svcpl	0x005f2063
     c88:	696c6e69 	stmdbvs	ip!, {r0, r3, r5, r6, r9, sl, fp, sp, lr}^
     c8c:	5f5f656e 	svcpl	0x005f656e
     c90:	535f5f00 	cmppl	pc, #0, 30
     c94:	20525453 	subscs	r5, r2, r3, asr r4
     c98:	32307830 	eorscc	r7, r0, #48, 16	; 0x300000
     c9c:	5f003030 	svcpl	0x00003030
     ca0:	424d535f 	submi	r5, sp, #2080374785	; 0x7c000001
     ca4:	78302046 	ldmdavc	r0!, {r1, r2, r6, sp}
     ca8:	30383030 	eorscc	r3, r8, r0, lsr r0
     cac:	555f5f00 	ldrbpl	r5, [pc, #-3840]	; fffffdb4 <_estack+0xdffdfdb4>
     cb0:	5f544e49 	svcpl	0x00544e49
     cb4:	5341454c 	movtpl	r4, #5452	; 0x154c
     cb8:	4d5f3854 	ldclmi	8, cr3, [pc, #-336]	; b70 <_Min_Stack_Size+0x770>
     cbc:	5f5f5841 	svcpl	0x005f5841
     cc0:	66783020 	ldrbtvs	r3, [r8], -r0, lsr #32
     cc4:	5f5f0066 	svcpl	0x005f0066
     cc8:	5f514855 	svcpl	0x00514855
     ccc:	54494246 	strbpl	r4, [r9], #-582	; 0xfffffdba
     cd0:	31205f5f 			; <UNDEFINED> instruction: 0x31205f5f
     cd4:	5f5f0036 	svcpl	0x005f0036
     cd8:	36544c46 	ldrbcc	r4, [r4], -r6, asr #24
     cdc:	494d5f34 	stmdbmi	sp, {r2, r4, r5, r8, r9, sl, fp, ip, lr}^
     ce0:	58455f4e 	stmdapl	r5, {r1, r2, r3, r6, r8, r9, sl, fp, ip, lr}^
     ce4:	205f5f50 	subscs	r5, pc, r0, asr pc	; <UNPREDICTABLE>
     ce8:	30312d28 	eorscc	r2, r1, r8, lsr #26
     cec:	00293132 	eoreq	r3, r9, r2, lsr r1
     cf0:	54505f5f 	ldrbpl	r5, [r0], #-3935	; 0xfffff0a1
     cf4:	46494452 			; <UNDEFINED> instruction: 0x46494452
     cf8:	49575f46 	ldmdbmi	r7, {r1, r2, r6, r8, r9, sl, fp, ip, lr}^
     cfc:	5f485444 	svcpl	0x00485444
     d00:	3233205f 	eorscc	r2, r3, #95	; 0x5f
     d04:	6e5f5f00 	cdpvs	15, 5, cr5, cr15, cr0, {0}
     d08:	6e61736f 	cdpvs	3, 6, cr7, cr1, cr15, {3}
     d0c:	7a697469 	bvc	1a5deb8 <_Min_Stack_Size+0x1a5dab8>
     d10:	64646165 	strbtvs	r6, [r4], #-357	; 0xfffffe9b
     d14:	73736572 	cmnvc	r3, #478150656	; 0x1c800000
     d18:	5f5f0020 	svcpl	0x005f0020
     d1c:	33544c46 	cmpcc	r4, #17920	; 0x4600
     d20:	414d5f32 	cmpmi	sp, r2, lsr pc
     d24:	30315f58 	eorscc	r5, r1, r8, asr pc
     d28:	5058455f 	subspl	r4, r8, pc, asr r5
     d2c:	33205f5f 			; <UNDEFINED> instruction: 0x33205f5f
     d30:	5f4c0038 	svcpl	0x004c0038
     d34:	6e706d74 	mrcvs	13, 3, r6, cr0, cr4, {3}
     d38:	46206d61 	strtmi	r6, [r0], -r1, ror #26
     d3c:	4e454c49 	cdpmi	12, 4, cr4, cr5, cr9, {2}
     d40:	5f454d41 	svcpl	0x00454d41
     d44:	0058414d 	subseq	r4, r8, sp, asr #2
     d48:	49555f5f 	ldmdbmi	r5, {r0, r1, r2, r3, r4, r6, r8, r9, sl, fp, ip, lr}^
     d4c:	465f544e 	ldrbmi	r5, [pc], -lr, asr #8
     d50:	38545341 	ldmdacc	r4, {r0, r6, r8, r9, ip, lr}^
     d54:	58414d5f 	stmdapl	r1, {r0, r1, r2, r3, r4, r6, r8, sl, fp, lr}^
     d58:	30205f5f 	eorcc	r5, r0, pc, asr pc
     d5c:	66666678 			; <UNDEFINED> instruction: 0x66666678
     d60:	66666666 	strbtvs	r6, [r6], -r6, ror #12
     d64:	5f005566 	svcpl	0x00005566
     d68:	7361685f 	cmnvc	r1, #6225920	; 0x5f0000
     d6c:	7478655f 	ldrbtvc	r6, [r8], #-1375	; 0xfffffaa1
     d70:	69736e65 	ldmdbvs	r3!, {r0, r2, r5, r6, r9, sl, fp, sp, lr}^
     d74:	5f206e6f 	svcpl	0x00206e6f
     d78:	7361685f 	cmnvc	r1, #6225920	; 0x5f0000
     d7c:	6165665f 	cmnvs	r5, pc, asr r6
     d80:	65727574 	ldrbvs	r7, [r2, #-1396]!	; 0xfffffa8c
     d84:	4c5f5f00 	mrrcmi	15, 0, r5, pc, cr0	; <UNPREDICTABLE>
     d88:	55434341 	strbpl	r4, [r3, #-833]	; 0xfffffcbf
     d8c:	42495f4d 	submi	r5, r9, #308	; 0x134
     d90:	5f5f5449 	svcpl	0x005f5449
     d94:	00323320 	eorseq	r3, r2, r0, lsr #6
     d98:	454e5f5f 	strbmi	r5, [lr, #-3935]	; 0xfffff0a1
     d9c:	42494c57 	submi	r4, r9, #22272	; 0x5700
     da0:	5f5f485f 	svcpl	0x005f485f
     da4:	5f003120 	svcpl	0x00003120
     da8:	544e495f 	strbpl	r4, [lr], #-2399	; 0xfffff6a1
     dac:	5341465f 	movtpl	r4, #5727	; 0x165f
     db0:	5f363154 	svcpl	0x00363154
     db4:	54444957 	strbpl	r4, [r4], #-2391	; 0xfffff6a9
     db8:	205f5f48 	subscs	r5, pc, r8, asr #30
     dbc:	5f003233 	svcpl	0x00003233
     dc0:	5046565f 	subpl	r5, r6, pc, asr r6
     dc4:	5f50465f 	svcpl	0x0050465f
     dc8:	0031205f 	eorseq	r2, r1, pc, asr r0
     dcc:	4c4c5f5f 	mcrrmi	15, 5, r5, ip, cr15
     dd0:	43415246 	movtmi	r5, #4678	; 0x1246
     dd4:	494d5f54 	stmdbmi	sp, {r2, r4, r6, r8, r9, sl, fp, ip, lr}^
     dd8:	205f5f4e 	subscs	r5, pc, lr, asr #30
     ddc:	2e302d28 	cdpcs	13, 3, cr2, cr0, cr8, {1}
     de0:	524c4c35 	subpl	r4, ip, #13568	; 0x3500
     de4:	352e302d 	strcc	r3, [lr, #-45]!	; 0xffffffd3
     de8:	29524c4c 	ldmdbcs	r2, {r2, r3, r6, sl, fp, lr}^
     dec:	495f5f00 	ldmdbmi	pc, {r8, r9, sl, fp, ip, lr}^	; <UNPREDICTABLE>
     df0:	5450544e 	ldrbpl	r5, [r0], #-1102	; 0xfffffbb2
     df4:	414d5f52 	cmpmi	sp, r2, asr pc
     df8:	205f5f58 	subscs	r5, pc, r8, asr pc	; <UNPREDICTABLE>
     dfc:	66377830 			; <UNDEFINED> instruction: 0x66377830
     e00:	66666666 	strbtvs	r6, [r6], -r6, ror #12
     e04:	72006666 	andvc	r6, r0, #106954752	; 0x6600000
     e08:	6c757365 	ldclvs	3, cr7, [r5], #-404	; 0xfffffe6c
     e0c:	5f5f0074 	svcpl	0x005f0074
     e10:	544e4955 	strbpl	r4, [lr], #-2389	; 0xfffff6ab
     e14:	5341465f 	movtpl	r4, #5727	; 0x165f
     e18:	5f363154 	svcpl	0x00363154
     e1c:	5f58414d 	svcpl	0x0058414d
     e20:	7830205f 	ldmdavc	r0!, {r0, r1, r2, r3, r4, r6, sp}
     e24:	66666666 	strbtvs	r6, [r6], -r6, ror #12
     e28:	66666666 	strbtvs	r6, [r6], -r6, ror #12
     e2c:	5f5f0055 	svcpl	0x005f0055
     e30:	43554e47 	cmpmi	r5, #1136	; 0x470
     e34:	454b494c 	strbmi	r4, [fp, #-2380]	; 0xfffff6b4
     e38:	4955425f 	ldmdbmi	r5, {r0, r1, r2, r3, r4, r6, r9, lr}^
     e3c:	4e49544c 	cdpmi	4, 4, cr5, cr9, cr12, {2}
     e40:	4e4f435f 	mcrmi	3, 2, r4, cr15, cr15, {2}
     e44:	4e415453 	mcrmi	4, 2, r5, cr1, cr3, {2}
     e48:	20505f54 	subscs	r5, r0, r4, asr pc
     e4c:	5f670031 	svcpl	0x00670031
     e50:	61746164 	cmnvs	r4, r4, ror #2
     e54:	4e5f0031 	mrcmi	0, 2, r0, cr15, cr1, {1}
     e58:	756e6e6f 	strbvc	r6, [lr, #-3695]!	; 0xfffff191
     e5c:	00206c6c 	eoreq	r6, r0, ip, ror #24
     e60:	52415f5f 	subpl	r5, r1, #380	; 0x17c
     e64:	45465f4d 	strbmi	r5, [r6, #-3917]	; 0xfffff0b3
     e68:	52555441 	subspl	r5, r5, #1090519040	; 0x41000000
     e6c:	54425f45 	strbpl	r5, [r2], #-3909	; 0xfffff0bb
     e70:	5f5f0049 	svcpl	0x005f0049
     e74:	43554e47 	cmpmi	r5, #1136	; 0x470
     e78:	4552505f 	ldrbmi	r5, [r2, #-95]	; 0xffffffa1
     e7c:	28514552 	ldmdacs	r1, {r1, r4, r6, r8, sl, lr}^
     e80:	2c6a616d 	stfcse	f6, [sl], #-436	; 0xfffffe4c
     e84:	296e696d 	stmdbcs	lr!, {r0, r2, r3, r5, r6, r8, fp, sp, lr}^
     e88:	5f282820 	svcpl	0x00282820
     e8c:	554e475f 	strbpl	r4, [lr, #-1887]	; 0xfffff8a1
     e90:	205f5f43 	subscs	r5, pc, r3, asr #30
     e94:	31203c3c 			; <UNDEFINED> instruction: 0x31203c3c
     e98:	2b202936 	blcs	80b378 <_Min_Stack_Size+0x80af78>
     e9c:	475f5f20 	ldrbmi	r5, [pc, -r0, lsr #30]
     ea0:	5f43554e 	svcpl	0x0043554e
     ea4:	4f4e494d 	svcmi	0x004e494d
     ea8:	205f5f52 	subscs	r5, pc, r2, asr pc	; <UNPREDICTABLE>
     eac:	28203d3e 	stmdacs	r0!, {r1, r2, r3, r4, r5, r8, sl, fp, ip, sp}
     eb0:	6a616d28 	bvs	185c358 <_Min_Stack_Size+0x185bf58>
     eb4:	3c3c2029 	ldccc	0, cr2, [ip], #-164	; 0xffffff5c
     eb8:	29363120 	ldmdbcs	r6!, {r5, r8, ip, sp}
     ebc:	28202b20 	stmdacs	r0!, {r5, r8, r9, fp, sp}
     ec0:	296e696d 	stmdbcs	lr!, {r0, r2, r3, r5, r6, r8, fp, sp, lr}^
     ec4:	5f5f0029 	svcpl	0x005f0029
     ec8:	41524655 	cmpmi	r2, r5, asr r6
     ecc:	4d5f5443 	cfldrdmi	mvd5, [pc, #-268]	; dc8 <_Min_Stack_Size+0x9c8>
     ed0:	5f5f4e49 	svcpl	0x005f4e49
     ed4:	302e3020 	eorcc	r3, lr, r0, lsr #32
     ed8:	5f005255 	svcpl	0x00005255
     edc:	544c465f 	strbpl	r4, [ip], #-1631	; 0xfffff9a1
     ee0:	5f583233 	svcpl	0x00583233
     ee4:	5f534148 	svcpl	0x00534148
     ee8:	49464e49 	stmdbmi	r6, {r0, r3, r6, r9, sl, fp, lr}^
     eec:	5954494e 	ldmdbpl	r4, {r1, r2, r3, r6, r8, fp, lr}^
     ef0:	31205f5f 			; <UNDEFINED> instruction: 0x31205f5f
     ef4:	59535f00 	ldmdbpl	r3, {r8, r9, sl, fp, ip, lr}^
     ef8:	49535f53 	ldmdbmi	r3, {r0, r1, r4, r6, r8, r9, sl, fp, ip, lr}^
     efc:	545f455a 	ldrbpl	r4, [pc], #-1370	; f04 <_Min_Stack_Size+0xb04>
     f00:	0020485f 	eoreq	r4, r0, pc, asr r8
     f04:	4e414e5f 	mcrmi	14, 2, r4, cr1, cr15, {2}
     f08:	414d5f4f 	cmpmi	sp, pc, asr #30
     f0c:	434f4c4c 	movtmi	r4, #64588	; 0xfc4c
     f10:	44003120 	strmi	r3, [r0], #-288	; 0xfffffee0
     f14:	47554245 	ldrbmi	r4, [r5, -r5, asr #4]
     f18:	5f003120 	svcpl	0x00003120
     f1c:	636f6c5f 	cmnvs	pc, #24320	; 0x5f00
     f20:	655f736b 	ldrbvs	r7, [pc, #-875]	; bbd <_Min_Stack_Size+0x7bd>
     f24:	756c6378 	strbvc	r6, [ip, #-888]!	; 0xfffffc88
     f28:	65766973 	ldrbvs	r6, [r6, #-2419]!	; 0xfffff68d
     f2c:	2e2e2e28 	cdpcs	14, 2, cr2, cr14, cr8, {1}
     f30:	5f5f2029 	svcpl	0x005f2029
     f34:	6b636f6c 	blvs	18dccec <_Min_Stack_Size+0x18dc8ec>
     f38:	6e6e615f 	mcrvs	1, 3, r6, cr14, cr15, {2}
     f3c:	7461746f 	strbtvc	r7, [r1], #-1135	; 0xfffffb91
     f40:	78652865 	stmdavc	r5!, {r0, r2, r5, r6, fp, sp}^
     f44:	73756c63 	cmnvc	r5, #25344	; 0x6300
     f48:	5f657669 	svcpl	0x00657669
     f4c:	6b636f6c 	blvs	18dcd04 <_Min_Stack_Size+0x18dc904>
     f50:	6e75665f 	mrcvs	6, 3, r6, cr5, cr15, {2}
     f54:	6f697463 	svcvs	0x00697463
     f58:	5f5f286e 	svcpl	0x005f286e
     f5c:	415f4156 	cmpmi	pc, r6, asr r1	; <UNPREDICTABLE>
     f60:	5f534752 	svcpl	0x00534752
     f64:	0029295f 	eoreq	r2, r9, pc, asr r9
     f68:	43415f5f 	movtmi	r5, #8031	; 0x1f5f
     f6c:	5f4d5543 	svcpl	0x004d5543
     f70:	54494246 	strbpl	r4, [r9], #-582	; 0xfffffdba
     f74:	31205f5f 			; <UNDEFINED> instruction: 0x31205f5f
     f78:	5f5f0035 	svcpl	0x005f0035
     f7c:	6b636f6c 	blvs	18dcd34 <_Min_Stack_Size+0x18dc934>
     f80:	6c65725f 	sfmvs	f7, 2, [r5], #-380	; 0xfffffe84
     f84:	65736165 	ldrbvs	r6, [r3, #-357]!	; 0xfffffe9b
     f88:	636f6c28 	cmnvs	pc, #40, 24	; 0x2800
     f8c:	5f20296b 	svcpl	0x0020296b
     f90:	7465725f 	strbtvc	r7, [r5], #-607	; 0xfffffda1
     f94:	65677261 	strbvs	r7, [r7, #-609]!	; 0xfffffd9f
     f98:	6f6c5f74 	svcvs	0x006c5f74
     f9c:	725f6b63 	subsvc	r6, pc, #101376	; 0x18c00
     fa0:	61656c65 	cmnvs	r5, r5, ror #24
     fa4:	6c286573 	cfstr32vs	mvfx6, [r8], #-460	; 0xfffffe34
     fa8:	296b636f 	stmdbcs	fp!, {r0, r1, r2, r3, r5, r6, r8, r9, sp, lr}^
     fac:	555f5f00 	ldrbpl	r5, [pc, #-3840]	; b4 <_Min_Heap_Size-0x14c>
     fb0:	55434341 	strbpl	r4, [r3, #-833]	; 0xfffffcbf
     fb4:	42495f4d 	submi	r5, r9, #308	; 0x134
     fb8:	5f5f5449 	svcpl	0x005f5449
     fbc:	00363120 	eorseq	r3, r6, r0, lsr #2
     fc0:	6f6c5f5f 	svcvs	0x006c5f5f
     fc4:	695f6b63 	ldmdbvs	pc, {r0, r1, r5, r6, r8, r9, fp, sp, lr}^	; <UNPREDICTABLE>
     fc8:	2874696e 	ldmdacs	r4!, {r1, r2, r3, r5, r6, r8, fp, sp, lr}^
     fcc:	6b636f6c 	blvs	18dcd84 <_Min_Stack_Size+0x18dc984>
     fd0:	5f5f2029 	svcpl	0x005f2029
     fd4:	61746572 	cmnvs	r4, r2, ror r5
     fd8:	74656772 	strbtvc	r6, [r5], #-1906	; 0xfffff88e
     fdc:	636f6c5f 	cmnvs	pc, #24320	; 0x5f00
     fe0:	6e695f6b 	cdpvs	15, 6, cr5, cr9, cr11, {3}
     fe4:	26287469 	strtcs	r7, [r8], -r9, ror #8
     fe8:	6b636f6c 	blvs	18dcda0 <_Min_Stack_Size+0x18dc9a0>
     fec:	5f5f0029 	svcpl	0x005f0029
     ff0:	5f544e49 	svcpl	0x00544e49
     ff4:	54534146 	ldrbpl	r4, [r3], #-326	; 0xfffffeba
     ff8:	4d5f3436 	cfldrdmi	mvd3, [pc, #-216]	; f28 <_Min_Stack_Size+0xb28>
     ffc:	5f5f5841 	svcpl	0x005f5841
    1000:	37783020 	ldrbcc	r3, [r8, -r0, lsr #32]!
    1004:	66666666 	strbtvs	r6, [r6], -r6, ror #12
    1008:	66666666 	strbtvs	r6, [r6], -r6, ror #12
    100c:	66666666 	strbtvs	r6, [r6], -r6, ror #12
    1010:	4c666666 	stclmi	6, cr6, [r6], #-408	; 0xfffffe68
    1014:	5f5f004c 	svcpl	0x005f004c
    1018:	33544c46 	cmpcc	r4, #17920	; 0x4600
    101c:	445f5832 	ldrbmi	r5, [pc], #-2098	; 1024 <_Min_Stack_Size+0xc24>
    1020:	4d494345 	stclmi	3, cr4, [r9, #-276]	; 0xfffffeec
    1024:	445f4c41 	ldrbmi	r4, [pc], #-3137	; 102c <_Min_Stack_Size+0xc2c>
    1028:	5f5f4749 	svcpl	0x005f4749
    102c:	00373120 	eorseq	r3, r7, r0, lsr #2
    1030:	42445f5f 	submi	r5, r4, #380	; 0x17c
    1034:	494d5f4c 	stmdbmi	sp, {r2, r3, r6, r8, r9, sl, fp, ip, lr}^
    1038:	205f5f4e 	subscs	r5, pc, lr, asr #30
    103c:	6f642828 	svcvs	0x00642828
    1040:	656c6275 	strbvs	r6, [ip, #-629]!	; 0xfffffd8b
    1044:	322e3229 	eorcc	r3, lr, #-1879048190	; 0x90000002
    1048:	37303532 			; <UNDEFINED> instruction: 0x37303532
    104c:	38353833 	ldmdacc	r5!, {r0, r1, r4, r5, fp, ip, sp}
    1050:	32373035 	eorscc	r3, r7, #53	; 0x35
    1054:	65343130 	ldrvs	r3, [r4, #-304]!	; 0xfffffed0
    1058:	3830332d 	ldmdacc	r0!, {r0, r2, r3, r5, r8, r9, ip, sp}
    105c:	5f00294c 	svcpl	0x0000294c
    1060:	544c465f 	strbpl	r4, [ip], #-1631	; 0xfffff9a1
    1064:	5f583233 	svcpl	0x00583233
    1068:	5f534148 	svcpl	0x00534148
    106c:	45495551 	strbmi	r5, [r9, #-1361]	; 0xfffffaaf
    1070:	414e5f54 	cmpmi	lr, r4, asr pc
    1074:	205f5f4e 	subscs	r5, pc, lr, asr #30
    1078:	5f5f0031 	svcpl	0x005f0031
    107c:	33544c46 	cmpcc	r4, #17920	; 0x4600
    1080:	455f5832 	ldrbmi	r5, [pc, #-2098]	; 856 <_Min_Stack_Size+0x456>
    1084:	4c495350 	mcrrmi	3, 5, r5, r9, cr0
    1088:	5f5f4e4f 	svcpl	0x005f4e4f
    108c:	322e3220 	eorcc	r3, lr, #32, 4
    1090:	34343032 	ldrtcc	r3, [r4], #-50	; 0xffffffce
    1094:	39343036 	ldmdbcc	r4!, {r1, r2, r4, r5, ip, sp}
    1098:	33303532 	teqcc	r0, #209715200	; 0xc800000
    109c:	65313331 	ldrvs	r3, [r1, #-817]!	; 0xfffffccf
    10a0:	4636312d 	ldrtmi	r3, [r6], -sp, lsr #2
    10a4:	00783233 	rsbseq	r3, r8, r3, lsr r2
    10a8:	695f5f5f 	ldmdbvs	pc, {r0, r1, r2, r3, r4, r6, r8, r9, sl, fp, ip, lr}^	; <UNPREDICTABLE>
    10ac:	6c5f746e 	cfldrdvs	mvd7, [pc], {110}	; 0x6e
    10b0:	74736165 	ldrbtvc	r6, [r3], #-357	; 0xfffffe9b
    10b4:	745f3631 	ldrbvc	r3, [pc], #-1585	; 10bc <_Min_Stack_Size+0xcbc>
    10b8:	6665645f 			; <UNDEFINED> instruction: 0x6665645f
    10bc:	64656e69 	strbtvs	r6, [r5], #-3689	; 0xfffff197
    10c0:	5f003120 	svcpl	0x00003120
    10c4:	5a49535f 	bpl	1255e48 <_Min_Stack_Size+0x1255a48>
    10c8:	49575f45 	ldmdbmi	r7, {r0, r2, r6, r8, r9, sl, fp, ip, lr}^
    10cc:	5f485444 	svcpl	0x00485444
    10d0:	3233205f 	eorscc	r2, r3, #95	; 0x5f
    10d4:	495f5f00 	ldmdbmi	pc, {r8, r9, sl, fp, ip, lr}^	; <UNPREDICTABLE>
    10d8:	465f544e 	ldrbmi	r5, [pc], -lr, asr #8
    10dc:	38545341 	ldmdacc	r4, {r0, r6, r8, r9, ip, lr}^
    10e0:	5059545f 	subspl	r5, r9, pc, asr r4
    10e4:	205f5f45 	subscs	r5, pc, r5, asr #30
    10e8:	00746e69 	rsbseq	r6, r4, r9, ror #28
    10ec:	494f4e5f 	stmdbmi	pc, {r0, r1, r2, r3, r4, r6, r9, sl, fp, lr}^	; <UNPREDICTABLE>
    10f0:	4e494c4e 	cdpmi	12, 4, cr4, cr9, cr14, {2}
    10f4:	5f5f2045 	svcpl	0x005f2045
    10f8:	72747461 	rsbsvc	r7, r4, #1627389952	; 0x61000000
    10fc:	74756269 	ldrbtvc	r6, [r5], #-617	; 0xfffffd97
    1100:	205f5f65 	subscs	r5, pc, r5, ror #30
    1104:	5f5f2828 	svcpl	0x005f2828
    1108:	6e696f6e 	cdpvs	15, 6, cr6, cr9, cr14, {3}
    110c:	656e696c 	strbvs	r6, [lr, #-2412]!	; 0xfffff694
    1110:	29295f5f 	stmdbcs	r9!, {r0, r1, r2, r3, r4, r6, r8, r9, sl, fp, ip, lr}
    1114:	555f5f00 	ldrbpl	r5, [pc, #-3840]	; 21c <_Min_Heap_Size+0x1c>
    1118:	465f4144 	ldrbmi	r4, [pc], -r4, asr #2
    111c:	5f544942 	svcpl	0x00544942
    1120:	3233205f 	eorscc	r2, r3, #95	; 0x5f
    1124:	735f5f00 	cmpvc	pc, #0, 30
    1128:	5f657a69 	svcpl	0x00657a69
    112c:	205f5f74 	subscs	r5, pc, r4, ror pc	; <UNPREDICTABLE>
    1130:	4c5f5f00 	mrrcmi	15, 0, r5, pc, cr0	; <UNPREDICTABLE>
    1134:	43415246 	movtmi	r5, #4678	; 0x1246
    1138:	494d5f54 	stmdbmi	sp, {r2, r4, r6, r8, r9, sl, fp, ip, lr}^
    113c:	205f5f4e 	subscs	r5, pc, lr, asr #30
    1140:	2e302d28 	cdpcs	13, 3, cr2, cr0, cr8, {1}
    1144:	2d524c35 	ldclcs	12, cr4, [r2, #-212]	; 0xffffff2c
    1148:	4c352e30 	ldcmi	14, cr2, [r5], #-192	; 0xffffff40
    114c:	5f002952 	svcpl	0x00002952
    1150:	4e49555f 	mcrmi	5, 2, r5, cr9, cr15, {2}
    1154:	58414d54 	stmdapl	r1, {r2, r4, r6, r8, sl, fp, lr}^
    1158:	6328435f 			; <UNDEFINED> instruction: 0x6328435f
    115c:	20632029 	rsbcs	r2, r3, r9, lsr #32
    1160:	55202323 	strpl	r2, [r0, #-803]!	; 0xfffffcdd
    1164:	5f004c4c 	svcpl	0x00004c4c
    1168:	5a49535f 	bpl	1255eec <_Min_Stack_Size+0x1255aec>
    116c:	5f464f45 	svcpl	0x00464f45
    1170:	4e494f50 	mcrmi	15, 2, r4, cr9, cr0, {2}
    1174:	5f524554 	svcpl	0x00524554
    1178:	0034205f 	eorseq	r2, r4, pc, asr r0
    117c:	4e495f5f 	mcrmi	15, 2, r5, cr9, cr15, {2}
    1180:	454c5f54 	strbmi	r5, [ip, #-3924]	; 0xfffff0ac
    1184:	38545341 	ldmdacc	r4, {r0, r6, r8, r9, ip, lr}^
    1188:	5059545f 	subspl	r5, r9, pc, asr r4
    118c:	205f5f45 	subscs	r5, pc, r5, asr #30
    1190:	6e676973 			; <UNDEFINED> instruction: 0x6e676973
    1194:	63206465 			; <UNDEFINED> instruction: 0x63206465
    1198:	00726168 	rsbseq	r6, r2, r8, ror #2
    119c:	43475f5f 	movtmi	r5, #32607	; 0x7f5f
    11a0:	54415f43 	strbpl	r5, [r1], #-3907	; 0xfffff0bd
    11a4:	43494d4f 	movtmi	r4, #40271	; 0x9d4f
    11a8:	4f4f425f 	svcmi	0x004f425f
    11ac:	4f4c5f4c 	svcmi	0x004c5f4c
    11b0:	465f4b43 	ldrbmi	r4, [pc], -r3, asr #22
    11b4:	20454552 	subcs	r4, r5, r2, asr r5
    11b8:	5f5f0032 	svcpl	0x005f0032
    11bc:	5f4d5241 	svcpl	0x004d5241
    11c0:	4e4f454e 	cdpmi	5, 4, cr4, cr15, cr14, {2}
    11c4:	5f005f5f 	svcpl	0x00005f5f
    11c8:	544c465f 	strbpl	r4, [ip], #-1631	; 0xfffff9a1
    11cc:	4d5f3233 	lfmmi	f3, 2, [pc, #-204]	; 1108 <_Min_Stack_Size+0xd08>
    11d0:	455f5841 	ldrbmi	r5, [pc, #-2113]	; 997 <_Min_Stack_Size+0x597>
    11d4:	5f5f5058 	svcpl	0x005f5058
    11d8:	38323120 	ldmdacc	r2!, {r5, r8, ip, sp}
    11dc:	69616d00 	stmdbvs	r1!, {r8, sl, fp, sp, lr}^
    11e0:	5f5f006e 	svcpl	0x005f006e
    11e4:	4d554854 	ldclmi	8, cr4, [r5, #-336]	; 0xfffffeb0
    11e8:	4e495f42 	cdpmi	15, 4, cr5, cr9, cr2, {2}
    11ec:	57524554 			; <UNDEFINED> instruction: 0x57524554
    11f0:	5f4b524f 	svcpl	0x004b524f
    11f4:	0031205f 	eorseq	r2, r1, pc, asr r0
    11f8:	4c555f5f 	mrrcmi	15, 5, r5, r5, cr15	; <UNPREDICTABLE>
    11fc:	4152464c 	cmpmi	r2, ip, asr #12
    1200:	4d5f5443 	cfldrdmi	mvd5, [pc, #-268]	; 10fc <_Min_Stack_Size+0xcfc>
    1204:	5f5f5841 	svcpl	0x005f5841
    1208:	46583020 	ldrbmi	r3, [r8], -r0, lsr #32
    120c:	46464646 	strbmi	r4, [r6], -r6, asr #12
    1210:	46464646 	strbmi	r4, [r6], -r6, asr #12
    1214:	46464646 	strbmi	r4, [r6], -r6, asr #12
    1218:	50464646 	subpl	r4, r6, r6, asr #12
    121c:	5534362d 	ldrpl	r3, [r4, #-1581]!	; 0xfffff9d3
    1220:	00524c4c 	subseq	r4, r2, ip, asr #24
    1224:	63746567 	cmnvs	r4, #432013312	; 0x19c00000
    1228:	5f726168 	svcpl	0x00726168
    122c:	6f6c6e75 	svcvs	0x006c6e75
    1230:	64656b63 	strbtvs	r6, [r5], #-2915	; 0xfffff49d
    1234:	5f202928 	svcpl	0x00202928
    1238:	63746567 	cmnvs	r4, #432013312	; 0x19c00000
    123c:	5f726168 	svcpl	0x00726168
    1240:	6f6c6e75 	svcvs	0x006c6e75
    1244:	64656b63 	strbtvs	r6, [r5], #-2915	; 0xfffff49d
    1248:	5f002928 	svcpl	0x00002928
    124c:	554e475f 	strbpl	r4, [lr, #-1887]	; 0xfffff8a1
    1250:	49575f43 	ldmdbmi	r7, {r0, r1, r6, r8, r9, sl, fp, ip, lr}^
    1254:	455f4544 	ldrbmi	r4, [pc, #-1348]	; d18 <_Min_Stack_Size+0x918>
    1258:	55434558 	strbpl	r4, [r3, #-1368]	; 0xfffffaa8
    125c:	4e4f4954 			; <UNDEFINED> instruction: 0x4e4f4954
    1260:	4148435f 	cmpmi	r8, pc, asr r3
    1264:	54455352 	strbpl	r5, [r5], #-850	; 0xfffffcae
    1268:	4d414e5f 	stclmi	14, cr4, [r1, #-380]	; 0xfffffe84
    126c:	55222045 	strpl	r2, [r2, #-69]!	; 0xffffffbb
    1270:	332d4654 			; <UNDEFINED> instruction: 0x332d4654
    1274:	22454c32 	subcs	r4, r5, #12800	; 0x3200
    1278:	635f5f00 	cmpvs	pc, #0, 30
    127c:	74736e6f 	ldrbtvc	r6, [r3], #-3695	; 0xfffff191
    1280:	6e6f6320 	cdpvs	3, 6, cr6, cr15, cr0, {1}
    1284:	5f007473 	svcpl	0x00007473
    1288:	455a4953 	ldrbmi	r4, [sl, #-2387]	; 0xfffff6ad
    128c:	445f545f 	ldrbmi	r5, [pc], #-1119	; 1294 <_Min_Stack_Size+0xe94>
    1290:	414c4345 	cmpmi	ip, r5, asr #6
    1294:	20444552 	subcs	r4, r4, r2, asr r5
    1298:	435f5f00 	cmpmi	pc, #0, 30
    129c:	33524148 	cmpcc	r2, #72, 2
    12a0:	59545f32 	ldmdbpl	r4, {r1, r4, r5, r8, r9, sl, fp, ip, lr}^
    12a4:	5f5f4550 	svcpl	0x005f4550
    12a8:	6e6f6c20 	cdpvs	12, 6, cr6, cr15, cr0, {1}
    12ac:	6e752067 	cdpvs	0, 7, cr2, cr5, cr7, {3}
    12b0:	6e676973 			; <UNDEFINED> instruction: 0x6e676973
    12b4:	69206465 	stmdbvs	r0!, {r0, r2, r5, r6, sl, sp, lr}
    12b8:	5f00746e 	svcpl	0x0000746e
    12bc:	4d52415f 	ldfmie	f4, [r2, #-380]	; 0xfffffe84
    12c0:	4145465f 	cmpmi	r5, pc, asr r6
    12c4:	45525554 	ldrbmi	r5, [r2, #-1364]	; 0xfffffaac
    12c8:	3150465f 	cmpcc	r0, pc, asr r6
    12cc:	45565f36 	ldrbmi	r5, [r6, #-3894]	; 0xfffff0ca
    12d0:	524f5443 	subpl	r5, pc, #1124073472	; 0x43000000
    12d4:	4952415f 	ldmdbmi	r2, {r0, r1, r2, r3, r4, r6, r8, lr}^
    12d8:	454d4854 	strbmi	r4, [sp, #-2132]	; 0xfffff7ac
    12dc:	00434954 	subeq	r4, r3, r4, asr r9
    12e0:	534f505f 	movtpl	r5, #61535	; 0xf05f
    12e4:	435f5849 	cmpmi	pc, #4784128	; 0x490000
    12e8:	554f535f 	strbpl	r5, [pc, #-863]	; f91 <_Min_Stack_Size+0xb91>
    12ec:	20454352 	subcs	r4, r5, r2, asr r3
    12f0:	38303032 	ldmdacc	r0!, {r1, r4, r5, ip, sp}
    12f4:	004c3930 	subeq	r3, ip, r0, lsr r9
    12f8:	43435f5f 	movtmi	r5, #16223	; 0x3f5f
    12fc:	5055535f 	subspl	r5, r5, pc, asr r3
    1300:	54524f50 	ldrbpl	r4, [r2], #-3920	; 0xfffff0b0
    1304:	59445f53 	stmdbpl	r4, {r0, r1, r4, r6, r8, r9, sl, fp, ip, lr}^
    1308:	494d414e 	stmdbmi	sp, {r1, r2, r3, r6, r8, lr}^
    130c:	52415f43 	subpl	r5, r1, #268	; 0x10c
    1310:	5f594152 	svcpl	0x00594152
    1314:	54494e49 	strbpl	r4, [r9], #-3657	; 0xfffff1b7
    1318:	5f003120 	svcpl	0x00003120
    131c:	4e49555f 	mcrmi	5, 2, r5, cr9, cr15, {2}
    1320:	41465f54 	cmpmi	r6, r4, asr pc
    1324:	32335453 	eorscc	r5, r3, #1392508928	; 0x53000000
    1328:	58414d5f 	stmdapl	r1, {r0, r1, r2, r3, r4, r6, r8, sl, fp, lr}^
    132c:	30205f5f 	eorcc	r5, r0, pc, asr pc
    1330:	66666678 			; <UNDEFINED> instruction: 0x66666678
    1334:	66666666 	strbtvs	r6, [r6], -r6, ror #12
    1338:	5f005566 	svcpl	0x00005566
    133c:	544c465f 	strbpl	r4, [ip], #-1631	; 0xfffff9a1
    1340:	58414d5f 	stmdapl	r1, {r0, r1, r2, r3, r4, r6, r8, sl, fp, lr}^
    1344:	5058455f 	subspl	r4, r8, pc, asr r5
    1348:	31205f5f 			; <UNDEFINED> instruction: 0x31205f5f
    134c:	5f003832 	svcpl	0x00003832
    1350:	6c6c754e 	cfstr64vs	mvdx7, [ip], #-312	; 0xfffffec8
    1354:	656c6261 	strbvs	r6, [ip, #-609]!	; 0xfffffd9f
    1358:	525f0020 	subspl	r0, pc, #32
    135c:	544e4545 	strbpl	r4, [lr], #-1349	; 0xfffffabb
    1360:	454d455f 	strbmi	r4, [sp, #-1375]	; 0xfffffaa1
    1364:	4e454752 	mcrmi	7, 2, r4, cr5, cr2, {2}
    1368:	535f5943 	cmppl	pc, #1097728	; 0x10c000
    136c:	20455a49 	subcs	r5, r5, r9, asr #20
    1370:	5f003532 	svcpl	0x00003532
    1374:	544c465f 	strbpl	r4, [ip], #-1631	; 0xfffff9a1
    1378:	4e494d5f 	mcrmi	13, 2, r4, cr9, cr15, {2}
    137c:	5f30315f 	svcpl	0x0030315f
    1380:	5f505845 	svcpl	0x00505845
    1384:	2d28205f 	stccs	0, cr2, [r8, #-380]!	; 0xfffffe84
    1388:	00293733 	eoreq	r3, r9, r3, lsr r7
    138c:	4b454553 	blmi	11528e0 <_Min_Stack_Size+0x11524e0>
    1390:	5255435f 	subspl	r4, r5, #2080374785	; 0x7c000001
    1394:	5f003120 	svcpl	0x00003120
    1398:	44414552 	strbmi	r4, [r1], #-1362	; 0xfffffaae
    139c:	4952575f 	ldmdbmi	r2, {r0, r1, r2, r3, r4, r6, r8, r9, sl, ip, lr}^
    13a0:	425f4554 	subsmi	r4, pc, #84, 10	; 0x15000000
    13a4:	49534655 	ldmdbmi	r3, {r0, r2, r4, r6, r9, sl, lr}^
    13a8:	545f455a 	ldrbpl	r4, [pc], #-1370	; 13b0 <_Min_Stack_Size+0xfb0>
    13ac:	20455059 	subcs	r5, r5, r9, asr r0
    13b0:	00746e69 	rsbseq	r6, r4, r9, ror #28
    13b4:	49535f5f 	ldmdbmi	r3, {r0, r1, r2, r3, r4, r6, r8, r9, sl, fp, ip, lr}^
    13b8:	464f455a 			; <UNDEFINED> instruction: 0x464f455a
    13bc:	554f445f 	strbpl	r4, [pc, #-1119]	; f65 <_Min_Stack_Size+0xb65>
    13c0:	5f454c42 	svcpl	0x00454c42
    13c4:	0038205f 	eorseq	r2, r8, pc, asr r0
    13c8:	4e495f5f 	mcrmi	15, 2, r5, cr9, cr15, {2}
    13cc:	454c5f54 	strbmi	r5, [ip, #-3924]	; 0xfffff0ac
    13d0:	33545341 	cmpcc	r4, #67108865	; 0x4000001
    13d4:	49575f32 	ldmdbmi	r7, {r1, r4, r5, r8, r9, sl, fp, ip, lr}^
    13d8:	5f485444 	svcpl	0x00485444
    13dc:	3233205f 	eorscc	r2, r3, #95	; 0x5f
    13e0:	4c435f00 	mcrrmi	15, 0, r5, r3, cr0
    13e4:	5f4b434f 	svcpl	0x004b434f
    13e8:	75205f54 	strvc	r5, [r0, #-3924]!	; 0xfffff0ac
    13ec:	6769736e 	strbvs	r7, [r9, -lr, ror #6]!
    13f0:	2064656e 	rsbcs	r6, r4, lr, ror #10
    13f4:	676e6f6c 	strbvs	r6, [lr, -ip, ror #30]!
    13f8:	49545f00 	ldmdbmi	r4, {r8, r9, sl, fp, ip, lr}^
    13fc:	545f454d 	ldrbpl	r4, [pc], #-1357	; 1404 <_Min_Stack_Size+0x1004>
    1400:	5f5f205f 	svcpl	0x005f205f
    1404:	5f746e69 	svcpl	0x00746e69
    1408:	7361656c 	cmnvc	r1, #108, 10	; 0x1b000000
    140c:	5f343674 	svcpl	0x00343674
    1410:	525f0074 	subspl	r0, pc, #116	; 0x74
    1414:	544e4545 	strbpl	r4, [lr], #-1349	; 0xfffffabb
    1418:	4e41525f 	mcrmi	2, 2, r5, cr1, cr15, {2}
    141c:	5f383444 	svcpl	0x00383444
    1420:	44454553 	strbmi	r4, [r5], #-1363	; 0xfffffaad
    1424:	72747028 	rsbsvc	r7, r4, #40	; 0x28
    1428:	28282029 	stmdacs	r8!, {r0, r3, r5, sp}
    142c:	29727470 	ldmdbcs	r2!, {r4, r5, r6, sl, ip, sp, lr}^
    1430:	725f3e2d 	subsvc	r3, pc, #720	; 0x2d0
    1434:	3e2d3834 	mcrcc	8, 1, r3, cr13, cr4, {1}
    1438:	6565735f 	strbvs	r7, [r5, #-863]!	; 0xfffffca1
    143c:	5f002964 	svcpl	0x00002964
    1440:	52414c5f 	subpl	r4, r1, #24320	; 0x5f00
    1444:	49464547 	stmdbmi	r6, {r0, r1, r2, r6, r8, sl, lr}^
    1448:	565f454c 	ldrbpl	r4, [pc], -ip, asr #10
    144c:	42495349 	submi	r5, r9, #603979777	; 0x24000001
    1450:	3020454c 	eorcc	r4, r0, ip, asr #10
    1454:	4e5f5f00 	cdpmi	15, 5, cr5, cr15, cr0, {0}
    1458:	494c5745 	stmdbmi	ip, {r0, r2, r6, r8, r9, sl, ip, lr}^
    145c:	205f5f42 	subscs	r5, pc, r2, asr #30
    1460:	5f5f0034 	svcpl	0x005f0034
    1464:	43554e47 	cmpmi	r5, #1136	; 0x470
    1468:	4558455f 	ldrbmi	r4, [r8, #-1375]	; 0xfffffaa1
    146c:	49545543 	ldmdbmi	r4, {r0, r1, r6, r8, sl, ip, lr}^
    1470:	435f4e4f 	cmpmi	pc, #1264	; 0x4f0
    1474:	53524148 	cmppl	r2, #72, 2
    1478:	4e5f5445 	cdpmi	4, 5, cr5, cr15, cr5, {2}
    147c:	20454d41 	subcs	r4, r5, r1, asr #26
    1480:	46545522 	ldrbmi	r5, [r4], -r2, lsr #10
    1484:	0022382d 	eoreq	r3, r2, sp, lsr #16
    1488:	54555f5f 	ldrbpl	r5, [r5], #-3935	; 0xfffff0a1
    148c:	42465f41 	submi	r5, r6, #260	; 0x104
    1490:	5f5f5449 	svcpl	0x005f5449
    1494:	00343620 	eorseq	r3, r4, r0, lsr #12
    1498:	53415f5f 	movtpl	r5, #8031	; 0x1f5f
    149c:	4d414e4d 	stclmi	14, cr4, [r1, #-308]	; 0xfffffecc
    14a0:	6e632845 	cdpvs	8, 6, cr2, cr3, cr5, {2}
    14a4:	29656d61 	stmdbcs	r5!, {r0, r5, r6, r8, sl, fp, sp, lr}^
    14a8:	585f5f20 	ldmdapl	pc, {r5, r8, r9, sl, fp, ip, lr}^	; <UNPREDICTABLE>
    14ac:	49525453 	ldmdbmi	r2, {r0, r1, r4, r6, sl, ip, lr}^
    14b0:	2820474e 	stmdacs	r0!, {r1, r2, r3, r6, r8, r9, sl, lr}
    14b4:	53555f5f 	cmppl	r5, #380	; 0x17c
    14b8:	4c5f5245 	lfmmi	f5, 2, [pc], {69}	; 0x45
    14bc:	4c454241 	sfmmi	f4, 2, [r5], {65}	; 0x41
    14c0:	4552505f 	ldrbmi	r5, [r2, #-95]	; 0xffffffa1
    14c4:	5f584946 	svcpl	0x00584946
    14c8:	6320295f 			; <UNDEFINED> instruction: 0x6320295f
    14cc:	656d616e 	strbvs	r6, [sp, #-366]!	; 0xfffffe92
    14d0:	465f5f00 	ldrbmi	r5, [pc], -r0, lsl #30
    14d4:	445f544c 	ldrbmi	r5, [pc], #-1100	; 14dc <_Min_Stack_Size+0x10dc>
    14d8:	4d494345 	stclmi	3, cr4, [r9, #-276]	; 0xfffffeec
    14dc:	445f4c41 	ldrbmi	r4, [pc], #-3137	; 14e4 <_Min_Stack_Size+0x10e4>
    14e0:	5f5f4749 	svcpl	0x005f4749
    14e4:	5f003920 	svcpl	0x00003920
    14e8:	696c615f 	stmdbvs	ip!, {r0, r1, r2, r3, r4, r6, r8, sp, lr}^
    14ec:	755f6e67 	ldrbvc	r6, [pc, #-3687]	; 68d <_Min_Stack_Size+0x28d>
    14f0:	2c782870 	ldclcs	8, cr2, [r8], #-448	; 0xfffffe40
    14f4:	5f202979 	svcpl	0x00202979
    14f8:	6975625f 	ldmdbvs	r5!, {r0, r1, r2, r3, r4, r6, r9, sp, lr}^
    14fc:	6e69746c 	cdpvs	4, 6, cr7, cr9, cr12, {3}
    1500:	696c615f 	stmdbvs	ip!, {r0, r1, r2, r3, r4, r6, r8, sp, lr}^
    1504:	755f6e67 	ldrbvc	r6, [pc, #-3687]	; 6a5 <_Min_Stack_Size+0x2a5>
    1508:	2c782870 	ldclcs	8, cr2, [r8], #-448	; 0xfffffe40
    150c:	00297920 	eoreq	r7, r9, r0, lsr #18
    1510:	4e495f5f 	mcrmi	15, 2, r5, cr9, cr15, {2}
    1514:	454c5f54 	strbmi	r5, [ip, #-3924]	; 0xfffff0ac
    1518:	33545341 	cmpcc	r4, #67108865	; 0x4000001
    151c:	414d5f32 	cmpmi	sp, r2, lsr pc
    1520:	205f5f58 	subscs	r5, pc, r8, asr pc	; <UNPREDICTABLE>
    1524:	66377830 			; <UNDEFINED> instruction: 0x66377830
    1528:	66666666 	strbtvs	r6, [r6], -r6, ror #12
    152c:	004c6666 	subeq	r6, ip, r6, ror #12
    1530:	73615f5f 	cmnvc	r1, #380	; 0x17c
    1534:	74726573 	ldrbtvc	r6, [r2], #-1395	; 0xfffffa8d
    1538:	78655f73 	stmdavc	r5!, {r0, r1, r4, r5, r6, r8, r9, sl, fp, ip, lr}^
    153c:	73756c63 	cmnvc	r5, #25344	; 0x6300
    1540:	28657669 	stmdacs	r5!, {r0, r3, r5, r6, r9, sl, ip, sp, lr}^
    1544:	292e2e2e 	stmdbcs	lr!, {r1, r2, r3, r5, r9, sl, fp, sp}
    1548:	6c5f5f20 	mrrcvs	15, 2, r5, pc, cr0	; <UNPREDICTABLE>
    154c:	5f6b636f 	svcpl	0x006b636f
    1550:	6f6e6e61 	svcvs	0x006e6e61
    1554:	65746174 	ldrbvs	r6, [r4, #-372]!	; 0xfffffe8c
    1558:	73736128 	cmnvc	r3, #40, 2
    155c:	5f747265 	svcpl	0x00747265
    1560:	6c637865 	stclvs	8, cr7, [r3], #-404	; 0xfffffe6c
    1564:	76697375 			; <UNDEFINED> instruction: 0x76697375
    1568:	6f6c5f65 	svcvs	0x006c5f65
    156c:	5f286b63 	svcpl	0x00286b63
    1570:	5f41565f 	svcpl	0x0041565f
    1574:	53475241 	movtpl	r5, #29249	; 0x7241
    1578:	29295f5f 	stmdbcs	r9!, {r0, r1, r2, r3, r4, r6, r8, r9, sl, fp, ip, lr}
    157c:	415f5f00 	cmpmi	pc, r0, lsl #30
    1580:	465f4d52 			; <UNDEFINED> instruction: 0x465f4d52
    1584:	55544145 	ldrbpl	r4, [r4, #-325]	; 0xfffffebb
    1588:	465f4552 			; <UNDEFINED> instruction: 0x465f4552
    158c:	3120414d 			; <UNDEFINED> instruction: 0x3120414d
    1590:	705f5f00 	subsvc	r5, pc, r0, lsl #30
    1594:	745f7274 	ldrbvc	r7, [pc], #-628	; 159c <_Min_Stack_Size+0x119c>
    1598:	696f7620 	stmdbvs	pc!, {r5, r9, sl, ip, sp, lr}^	; <UNPREDICTABLE>
    159c:	002a2064 	eoreq	r2, sl, r4, rrx
    15a0:	4e475f5f 	mcrmi	15, 2, r5, cr7, cr15, {2}
    15a4:	535f4355 	cmppl	pc, #1409286145	; 0x54000001
    15a8:	5f434454 	svcpl	0x00434454
    15ac:	494c4e49 	stmdbmi	ip, {r0, r3, r6, r9, sl, fp, lr}^
    15b0:	5f5f454e 	svcpl	0x005f454e
    15b4:	5f003120 	svcpl	0x00003120
    15b8:	5f6f6e5f 	svcpl	0x006f6e5f
    15bc:	6b636f6c 	blvs	18dd374 <_Min_Stack_Size+0x18dcf74>
    15c0:	616e615f 	cmnvs	lr, pc, asr r1
    15c4:	6973796c 	ldmdbvs	r3!, {r2, r3, r5, r6, r8, fp, ip, sp, lr}^
    15c8:	5f5f2073 	svcpl	0x005f2073
    15cc:	6b636f6c 	blvs	18dd384 <_Min_Stack_Size+0x18dcf84>
    15d0:	6e6e615f 	mcrvs	1, 3, r6, cr14, cr15, {2}
    15d4:	7461746f 	strbtvc	r7, [r1], #-1135	; 0xfffffb91
    15d8:	6f6e2865 	svcvs	0x006e2865
    15dc:	7268745f 	rsbvc	r7, r8, #1593835520	; 0x5f000000
    15e0:	5f646165 	svcpl	0x00646165
    15e4:	65666173 	strbvs	r6, [r6, #-371]!	; 0xfffffe8d
    15e8:	615f7974 	cmpvs	pc, r4, ror r9	; <UNPREDICTABLE>
    15ec:	796c616e 	stmdbvc	ip!, {r1, r2, r3, r5, r6, r8, sp, lr}^
    15f0:	29736973 	ldmdbcs	r3!, {r0, r1, r4, r5, r6, r8, fp, sp, lr}^
    15f4:	4c5f5f00 	mrrcmi	15, 0, r5, pc, cr0	; <UNPREDICTABLE>
    15f8:	4343414c 	movtmi	r4, #12620	; 0x314c
    15fc:	455f4d55 	ldrbmi	r4, [pc, #-3413]	; 8af <_Min_Stack_Size+0x4af>
    1600:	4c495350 	mcrrmi	3, 5, r5, r9, cr0
    1604:	5f5f4e4f 	svcpl	0x005f4e4f
    1608:	31783020 	cmncc	r8, r0, lsr #32
    160c:	31332d50 	teqcc	r3, r0, asr sp
    1610:	004b4c4c 	subeq	r4, fp, ip, asr #24
    1614:	4e475f5f 	mcrmi	15, 2, r5, cr7, cr15, {2}
    1618:	505f4355 	subspl	r4, pc, r5, asr r3	; <UNPREDICTABLE>
    161c:	48435441 	stmdami	r3, {r0, r6, sl, ip, lr}^
    1620:	4556454c 	ldrbmi	r4, [r6, #-1356]	; 0xfffffab4
    1624:	205f5f4c 	subscs	r5, pc, ip, asr #30
    1628:	5f5f0031 	svcpl	0x005f0031
    162c:	5f434347 	svcpl	0x00434347
    1630:	4d4f5441 	cfstrdmi	mvd5, [pc, #-260]	; 1534 <_Min_Stack_Size+0x1134>
    1634:	435f4349 	cmpmi	pc, #603979777	; 0x24000001
    1638:	33524148 	cmpcc	r2, #72, 2
    163c:	5f545f32 	svcpl	0x00545f32
    1640:	4b434f4c 	blmi	10d5378 <_Min_Stack_Size+0x10d4f78>
    1644:	4552465f 	ldrbmi	r4, [r2, #-1631]	; 0xfffff9a1
    1648:	00322045 	eorseq	r2, r2, r5, asr #32
    164c:	6f6c665f 	svcvs	0x006c665f
    1650:	69666b63 	stmdbvs	r6!, {r0, r1, r5, r6, r8, r9, fp, sp, lr}^
    1654:	6628656c 	strtvs	r6, [r8], -ip, ror #10
    1658:	28202970 	stmdacs	r0!, {r4, r5, r6, r8, fp, sp}
    165c:	70662828 	rsbvc	r2, r6, r8, lsr #16
    1660:	5f3e2d29 	svcpl	0x003e2d29
    1664:	67616c66 	strbvs	r6, [r1, -r6, ror #24]!
    1668:	20262073 	eorcs	r2, r6, r3, ror r0
    166c:	53535f5f 	cmppl	r3, #380	; 0x17c
    1670:	20295254 	eorcs	r5, r9, r4, asr r2
    1674:	2030203f 	eorscs	r2, r0, pc, lsr r0
    1678:	5f5f203a 	svcpl	0x005f203a
    167c:	6b636f6c 	blvs	18dd434 <_Min_Stack_Size+0x18dd034>
    1680:	7163615f 	cmnvc	r3, pc, asr r1
    1684:	65726975 	ldrbvs	r6, [r2, #-2421]!	; 0xfffff68b
    1688:	6365725f 	cmnvs	r5, #-268435451	; 0xf0000005
    168c:	69737275 	ldmdbvs	r3!, {r0, r2, r4, r5, r6, r9, ip, sp, lr}^
    1690:	28286576 	stmdacs	r8!, {r1, r2, r4, r5, r6, r8, sl, sp, lr}
    1694:	2d297066 	stccs	0, cr7, [r9, #-408]!	; 0xfffffe68
    1698:	6f6c5f3e 	svcvs	0x006c5f3e
    169c:	29296b63 	stmdbcs	r9!, {r0, r1, r5, r6, r8, r9, fp, sp, lr}
    16a0:	615f5f00 	cmpvs	pc, r0, lsl #30
    16a4:	636f6c6c 	cmnvs	pc, #108, 24	; 0x6c00
    16a8:	696c615f 	stmdbvs	ip!, {r0, r1, r2, r3, r4, r6, r8, sp, lr}^
    16ac:	78286e67 	stmdavc	r8!, {r0, r1, r2, r5, r6, r9, sl, fp, sp, lr}
    16b0:	5f5f2029 	svcpl	0x005f2029
    16b4:	72747461 	rsbsvc	r7, r4, #1627389952	; 0x61000000
    16b8:	74756269 	ldrbtvc	r6, [r5], #-617	; 0xfffffd97
    16bc:	285f5f65 	ldmdacs	pc, {r0, r2, r5, r6, r8, r9, sl, fp, ip, lr}^	; <UNPREDICTABLE>
    16c0:	615f5f28 	cmpvs	pc, r8, lsr #30
    16c4:	636f6c6c 	cmnvs	pc, #108, 24	; 0x6c00
    16c8:	696c615f 	stmdbvs	ip!, {r0, r1, r2, r3, r4, r6, r8, sp, lr}^
    16cc:	5f5f6e67 	svcpl	0x005f6e67
    16d0:	29297828 	stmdbcs	r9!, {r3, r5, fp, ip, sp, lr}
    16d4:	5f5f0029 	svcpl	0x005f0029
    16d8:	61686377 	smcvs	34359	; 0x8637
    16dc:	5f745f72 	svcpl	0x00745f72
    16e0:	5f00205f 	svcpl	0x0000205f
    16e4:	4d52415f 	ldfmie	f4, [r2, #-380]	; 0xfffffe84
    16e8:	4352415f 	cmpmi	r2, #-1073741801	; 0xc0000017
    16ec:	52505f48 	subspl	r5, r0, #72, 30	; 0x120
    16f0:	4c49464f 	mcrrmi	6, 4, r4, r9, cr15
    16f4:	37372045 	ldrcc	r2, [r7, -r5, asr #32]!
    16f8:	4c5f5f00 	mrrcmi	15, 0, r5, pc, cr0	; <UNPREDICTABLE>
    16fc:	55434341 	strbpl	r4, [r3, #-833]	; 0xfffffcbf
    1700:	42465f4d 	submi	r5, r6, #308	; 0x134
    1704:	5f5f5449 	svcpl	0x005f5449
    1708:	00313320 	eorseq	r3, r1, r0, lsr #6
    170c:	72705f5f 	rsbsvc	r5, r0, #380	; 0x17c
    1710:	63696465 	cmnvs	r9, #1694498816	; 0x65000000
    1714:	72745f74 	rsbsvc	r5, r4, #116, 30	; 0x1d0
    1718:	65286575 	strvs	r6, [r8, #-1397]!	; 0xfffffa8b
    171c:	20297078 	eorcs	r7, r9, r8, ror r0
    1720:	75625f5f 	strbvc	r5, [r2, #-3935]!	; 0xfffff0a1
    1724:	69746c69 	ldmdbvs	r4!, {r0, r3, r5, r6, sl, fp, sp, lr}^
    1728:	78655f6e 	stmdavc	r5!, {r1, r2, r3, r5, r6, r8, r9, sl, fp, ip, lr}^
    172c:	74636570 	strbtvc	r6, [r3], #-1392	; 0xfffffa90
    1730:	78652828 	stmdavc	r5!, {r3, r5, fp, sp}^
    1734:	202c2970 	eorcs	r2, ip, r0, ror r9
    1738:	5f002931 	svcpl	0x00002931
    173c:	69647473 	stmdbvs	r4!, {r0, r1, r4, r5, r6, sl, ip, sp, lr}^
    1740:	28725f6e 	ldmdacs	r2!, {r1, r2, r3, r5, r6, r8, r9, sl, fp, ip, lr}^
    1744:	5f202978 	svcpl	0x00202978
    1748:	4e454552 	mcrmi	5, 2, r4, cr5, cr2, {2}
    174c:	54535f54 	ldrbpl	r5, [r3], #-3924	; 0xfffff0ac
    1750:	284e4944 	stmdacs	lr, {r2, r6, r8, fp, lr}^
    1754:	5f002978 	svcpl	0x00002978
    1758:	636f6c5f 	cmnvs	pc, #24320	; 0x5f00
    175c:	65725f6b 	ldrbvs	r5, [r2, #-3947]!	; 0xfffff095
    1760:	7361656c 	cmnvc	r1, #108, 10	; 0x1b000000
    1764:	65725f65 	ldrbvs	r5, [r2, #-3941]!	; 0xfffff09b
    1768:	73727563 	cmnvc	r2, #415236096	; 0x18c00000
    176c:	28657669 	stmdacs	r5!, {r0, r3, r5, r6, r9, sl, ip, sp, lr}^
    1770:	6b636f6c 	blvs	18dd528 <_Min_Stack_Size+0x18dd128>
    1774:	5f5f2029 	svcpl	0x005f2029
    1778:	61746572 	cmnvs	r4, r2, ror r5
    177c:	74656772 	strbtvc	r6, [r5], #-1906	; 0xfffff88e
    1780:	636f6c5f 	cmnvs	pc, #24320	; 0x5f00
    1784:	65725f6b 	ldrbvs	r5, [r2, #-3947]!	; 0xfffff095
    1788:	7361656c 	cmnvc	r1, #108, 10	; 0x1b000000
    178c:	65725f65 	ldrbvs	r5, [r2, #-3941]!	; 0xfffff09b
    1790:	73727563 	cmnvc	r2, #415236096	; 0x18c00000
    1794:	28657669 	stmdacs	r5!, {r0, r3, r5, r6, r9, sl, ip, sp, lr}^
    1798:	6b636f6c 	blvs	18dd550 <_Min_Stack_Size+0x18dd150>
    179c:	5f5f0029 	svcpl	0x005f0029
    17a0:	36544c46 	ldrbcc	r4, [r4], -r6, asr #24
    17a4:	414d5f34 	cmpmi	sp, r4, lsr pc
    17a8:	30315f58 	eorscc	r5, r1, r8, asr pc
    17ac:	5058455f 	subspl	r4, r8, pc, asr r5
    17b0:	33205f5f 			; <UNDEFINED> instruction: 0x33205f5f
    17b4:	5f003830 	svcpl	0x00003830
    17b8:	5a49535f 	bpl	125653c <_Min_Stack_Size+0x125613c>
    17bc:	5f464f45 	svcpl	0x00464f45
    17c0:	474e4f4c 	strbmi	r4, [lr, -ip, asr #30]
    17c4:	34205f5f 	strtcc	r5, [r0], #-3935	; 0xfffff0a1
    17c8:	615f5f00 	cmpvs	pc, r0, lsl #30
    17cc:	69727474 	ldmdbvs	r2!, {r2, r4, r5, r6, sl, ip, sp, lr}^
    17d0:	65747562 	ldrbvs	r7, [r4, #-1378]!	; 0xfffffa9e
    17d4:	726f665f 	rsbvc	r6, pc, #99614720	; 0x5f00000
    17d8:	5f74616d 	svcpl	0x0074616d
    17dc:	66727473 			; <UNDEFINED> instruction: 0x66727473
    17e0:	5f6e6f6d 	svcpl	0x006e6f6d
    17e4:	2c61285f 	stclcs	8, cr2, [r1], #-380	; 0xfffffe84
    17e8:	00202962 	eoreq	r2, r0, r2, ror #18
    17ec:	4453425f 	ldrbmi	r4, [r3], #-607	; 0xfffffda1
    17f0:	5a49535f 	bpl	1256574 <_Min_Stack_Size+0x1256174>
    17f4:	5f545f45 	svcpl	0x00545f45
    17f8:	49464544 	stmdbmi	r6, {r2, r6, r8, sl, lr}^
    17fc:	5f44454e 	svcpl	0x0044454e
    1800:	5f5f0020 	svcpl	0x005f0020
    1804:	53524556 	cmppl	r2, #360710144	; 0x15800000
    1808:	5f4e4f49 	svcpl	0x004e4f49
    180c:	3122205f 	qsubcc	r2, pc, r2	; <UNPREDICTABLE>
    1810:	2e332e33 	mrccs	14, 1, r2, cr3, cr3, {1}
    1814:	30322031 	eorscc	r2, r2, r1, lsr r0
    1818:	36303432 			; <UNDEFINED> instruction: 0x36303432
    181c:	00223431 	eoreq	r3, r2, r1, lsr r4
    1820:	49555f5f 	ldmdbmi	r5, {r0, r1, r2, r3, r4, r6, r8, r9, sl, fp, ip, lr}^
    1824:	465f544e 	ldrbmi	r5, [pc], -lr, asr #8
    1828:	33545341 	cmpcc	r4, #67108865	; 0x4000001
    182c:	59545f32 	ldmdbpl	r4, {r1, r4, r5, r8, r9, sl, fp, ip, lr}^
    1830:	5f5f4550 	svcpl	0x005f4550
    1834:	736e7520 	cmnvc	lr, #32, 10	; 0x8000000
    1838:	656e6769 	strbvs	r6, [lr, #-1897]!	; 0xfffff897
    183c:	6e692064 	cdpvs	0, 6, cr2, cr9, cr4, {3}
    1840:	5f5f0074 	svcpl	0x005f0074
    1844:	746e695f 	strbtvc	r6, [lr], #-2399	; 0xfffff6a1
    1848:	7a69735f 	bvc	1a5e5cc <_Min_Stack_Size+0x1a5e1cc>
    184c:	5f745f65 	svcpl	0x00745f65
    1850:	5f002068 	svcpl	0x00002068
    1854:	4454535f 	ldrbmi	r5, [r4], #-863	; 0xfffffca1
    1858:	54555f43 	ldrbpl	r5, [r5], #-3907	; 0xfffff0bd
    185c:	32335f46 	eorscc	r5, r3, #280	; 0x118
    1860:	31205f5f 			; <UNDEFINED> instruction: 0x31205f5f
    1864:	535f5f00 	cmppl	pc, #0, 30
    1868:	4f455a49 	svcmi	0x00455a49
    186c:	4c465f46 	mcrrmi	15, 4, r5, r6, cr6
    1870:	5f54414f 	svcpl	0x0054414f
    1874:	0034205f 	eorseq	r2, r4, pc, asr r0
    1878:	4c465f5f 	mcrrmi	15, 5, r5, r6, cr15
    187c:	58323354 	ldmdapl	r2!, {r2, r4, r6, r8, r9, ip, sp}
    1880:	4e45445f 	mcrmi	4, 2, r4, cr5, cr15, {2}
    1884:	5f4d524f 	svcpl	0x004d524f
    1888:	5f4e494d 	svcpl	0x004e494d
    188c:	2e34205f 	mrccs	0, 1, r2, cr4, cr15, {2}
    1890:	36303439 			; <UNDEFINED> instruction: 0x36303439
    1894:	35343635 	ldrcc	r3, [r4, #-1589]!	; 0xfffff9cb
    1898:	32313438 	eorscc	r3, r1, #56, 8	; 0x38000000
    189c:	34353634 	ldrtcc	r3, [r5], #-1588	; 0xfffff9cc
    18a0:	32332d65 	eorscc	r2, r3, #6464	; 0x1940
    18a4:	32334634 	eorscc	r4, r3, #52, 12	; 0x3400000
    18a8:	5f5f0078 	svcpl	0x005f0078
    18ac:	43554e47 	cmpmi	r5, #1136	; 0x470
    18b0:	454b494c 	strbmi	r4, [fp, #-2380]	; 0xfffff6b4
    18b4:	54414d5f 	strbpl	r4, [r1], #-3423	; 0xfffff2a1
    18b8:	55425f48 	strbpl	r5, [r2, #-3912]	; 0xfffff0b8
    18bc:	49544c49 	ldmdbmi	r4, {r0, r3, r6, sl, fp, lr}^
    18c0:	45525f4e 	ldrbmi	r5, [r2, #-3918]	; 0xfffff0b2
    18c4:	53504f4c 	cmppl	r0, #76, 30	; 0x130
    18c8:	5f5f0020 	svcpl	0x005f0020
    18cc:	5f544c46 	svcpl	0x00544c46
    18d0:	5f58414d 	svcpl	0x0058414d
    18d4:	455f3031 	ldrbmi	r3, [pc, #-49]	; 18ab <_Min_Stack_Size+0x14ab>
    18d8:	5f5f5058 	svcpl	0x005f5058
    18dc:	00383320 	eorseq	r3, r8, r0, lsr #6
    18e0:	4d505f5f 	ldclmi	15, cr5, [r0, #-380]	; 0xfffffe84
    18e4:	72612854 	rsbvc	r2, r1, #84, 16	; 0x540000
    18e8:	20297367 	eorcs	r7, r9, r7, ror #6
    18ec:	73677261 	cmnvc	r7, #268435462	; 0x10000006
    18f0:	465f5f00 	ldrbmi	r5, [pc], -r0, lsl #30
    18f4:	54434152 	strbpl	r4, [r3], #-338	; 0xfffffeae
    18f8:	58414d5f 	stmdapl	r1, {r0, r1, r2, r3, r4, r6, r8, sl, fp, lr}^
    18fc:	30205f5f 	eorcc	r5, r0, pc, asr pc
    1900:	46463758 			; <UNDEFINED> instruction: 0x46463758
    1904:	312d5046 			; <UNDEFINED> instruction: 0x312d5046
    1908:	5f005235 	svcpl	0x00005235
    190c:	544e495f 	strbpl	r4, [lr], #-2399	; 0xfffff6a1
    1910:	5341465f 	movtpl	r4, #5727	; 0x165f
    1914:	5f323354 	svcpl	0x00323354
    1918:	5f58414d 	svcpl	0x0058414d
    191c:	7830205f 	ldmdavc	r0!, {r0, r1, r2, r3, r4, r6, sp}
    1920:	66666637 			; <UNDEFINED> instruction: 0x66666637
    1924:	66666666 	strbtvs	r6, [r6], -r6, ror #12
    1928:	415f5f00 	cmpmi	pc, r0, lsl #30
    192c:	494d4f54 	stmdbmi	sp, {r2, r4, r6, r8, r9, sl, fp, lr}^
    1930:	45535f43 	ldrbmi	r5, [r3, #-3907]	; 0xfffff0bd
    1934:	53435f51 	movtpl	r5, #16209	; 0x3f51
    1938:	00352054 	eorseq	r2, r5, r4, asr r0
    193c:	4145525f 	cmpmi	r5, pc, asr r2
    1940:	52575f44 	subspl	r5, r7, #68, 30	; 0x110
    1944:	5f455449 	svcpl	0x00455449
    1948:	55544552 	ldrbpl	r4, [r4, #-1362]	; 0xfffffaae
    194c:	545f4e52 	ldrbpl	r4, [pc], #-3666	; 1954 <_Min_Stack_Size+0x1554>
    1950:	20455059 	subcs	r5, r5, r9, asr r0
    1954:	00746e69 	rsbseq	r6, r4, r9, ror #28
    1958:	67735f5f 			; <UNDEFINED> instruction: 0x67735f5f
    195c:	5f637465 	svcpl	0x00637465
    1960:	5f776172 	svcpl	0x00776172
    1964:	5f5f2872 	svcpl	0x005f2872
    1968:	2c727470 	cfldrdcs	mvd7, [r2], #-448	; 0xfffffe40
    196c:	29665f5f 	stmdbcs	r6!, {r0, r1, r2, r3, r4, r6, r8, r9, sl, fp, ip, lr}^
    1970:	2d2d2820 	stccs	8, cr2, [sp, #-128]!	; 0xffffff80
    1974:	665f5f28 	ldrbvs	r5, [pc], -r8, lsr #30
    1978:	5f3e2d29 	svcpl	0x003e2d29
    197c:	203c2072 	eorscs	r2, ip, r2, ror r0
    1980:	203f2030 	eorscs	r2, pc, r0, lsr r0	; <UNPREDICTABLE>
    1984:	72735f5f 	rsbsvc	r5, r3, #380	; 0x17c
    1988:	5f746567 	svcpl	0x00746567
    198c:	5f5f2872 	svcpl	0x005f2872
    1990:	2c727470 	cfldrdcs	mvd7, [r2], #-448	; 0xfffffe40
    1994:	665f5f20 	ldrbvs	r5, [pc], -r0, lsr #30
    1998:	203a2029 	eorscs	r2, sl, r9, lsr #32
    199c:	746e6928 	strbtvc	r6, [lr], #-2344	; 0xfffff6d8
    19a0:	282a2829 	stmdacs	sl!, {r0, r3, r5, fp, sp}
    19a4:	29665f5f 	stmdbcs	r6!, {r0, r1, r2, r3, r4, r6, r8, r9, sl, fp, ip, lr}^
    19a8:	705f3e2d 	subsvc	r3, pc, sp, lsr #28
    19ac:	29292b2b 	stmdbcs	r9!, {r0, r1, r3, r5, r8, r9, fp, sp}
    19b0:	445f5f00 	ldrbmi	r5, [pc], #-3840	; 19b8 <_Min_Stack_Size+0x15b8>
    19b4:	4e494645 	cdpmi	6, 4, cr4, cr9, cr5, {2}
    19b8:	735f4445 	cmpvc	pc, #1157627904	; 0x45000000
    19bc:	5f657a69 	svcpl	0x00657a69
    19c0:	5f002074 	svcpl	0x00002074
    19c4:	65656e5f 	strbvs	r6, [r5, #-3679]!	; 0xfffff1a1
    19c8:	69775f64 	ldmdbvs	r7!, {r2, r5, r6, r8, r9, sl, fp, ip, lr}^
    19cc:	745f746e 	ldrbvc	r7, [pc], #-1134	; 19d4 <_Min_Stack_Size+0x15d4>
    19d0:	735f5f00 	cmpvc	pc, #0, 30
    19d4:	645f6d79 	ldrbvs	r6, [pc], #-3449	; 19dc <_Min_Stack_Size+0x15dc>
    19d8:	75616665 	strbvc	r6, [r1, #-1637]!	; 0xfffff99b
    19dc:	7328746c 			; <UNDEFINED> instruction: 0x7328746c
    19e0:	692c6d79 	stmdbvs	ip!, {r0, r3, r4, r5, r6, r8, sl, fp, sp, lr}
    19e4:	2c6c706d 	stclcs	0, cr7, [ip], #-436	; 0xfffffe4c
    19e8:	69726576 	ldmdbvs	r2!, {r1, r2, r4, r5, r6, r8, sl, sp, lr}^
    19ec:	5f202964 	svcpl	0x00202964
    19f0:	6d73615f 	ldfvse	f6, [r3, #-380]!	; 0xfffffe84
    19f4:	22285f5f 	eorcs	r5, r8, #380	; 0x17c
    19f8:	6d79732e 	ldclvs	3, cr7, [r9, #-184]!	; 0xffffff48
    19fc:	20726576 	rsbscs	r6, r2, r6, ror r5
    1a00:	69232022 	stmdbvs	r3!, {r1, r5, sp}
    1a04:	206c706d 	rsbcs	r7, ip, sp, rrx
    1a08:	22202c22 	eorcs	r2, r0, #8704	; 0x2200
    1a0c:	79732320 	ldmdbvc	r3!, {r5, r8, r9, sp}^
    1a10:	4022206d 	eormi	r2, r2, sp, rrx
    1a14:	23202240 			; <UNDEFINED> instruction: 0x23202240
    1a18:	69726576 	ldmdbvs	r2!, {r1, r2, r4, r5, r6, r8, sl, sp, lr}^
    1a1c:	5f002964 	svcpl	0x00002964
    1a20:	6c6c615f 	stfvse	f6, [ip], #-380	; 0xfffffe84
    1a24:	735f636f 	cmpvc	pc, #-1140850687	; 0xbc000001
    1a28:	32657a69 	rsbcc	r7, r5, #430080	; 0x69000
    1a2c:	782c6e28 	stmdavc	ip!, {r3, r5, r9, sl, fp, sp, lr}
    1a30:	5f5f2029 	svcpl	0x005f2029
    1a34:	72747461 	rsbsvc	r7, r4, #1627389952	; 0x61000000
    1a38:	74756269 	ldrbtvc	r6, [r5], #-617	; 0xfffffd97
    1a3c:	285f5f65 	ldmdacs	pc, {r0, r2, r5, r6, r8, r9, sl, fp, ip, lr}^	; <UNPREDICTABLE>
    1a40:	615f5f28 	cmpvs	pc, r8, lsr #30
    1a44:	636f6c6c 	cmnvs	pc, #108, 24	; 0x6c00
    1a48:	7a69735f 	bvc	1a5e7cc <_Min_Stack_Size+0x1a5e3cc>
    1a4c:	285f5f65 	ldmdacs	pc, {r0, r2, r5, r6, r8, r9, sl, fp, ip, lr}^	; <UNPREDICTABLE>
    1a50:	78202c6e 	stmdavc	r0!, {r1, r2, r3, r5, r6, sl, fp, sp}
    1a54:	00292929 	eoreq	r2, r9, r9, lsr #18
    1a58:	49555f5f 	ldmdbmi	r5, {r0, r1, r2, r3, r4, r6, r8, r9, sl, fp, ip, lr}^
    1a5c:	3631544e 	ldrtcc	r5, [r1], -lr, asr #8
    1a60:	58414d5f 	stmdapl	r1, {r0, r1, r2, r3, r4, r6, r8, sl, fp, lr}^
    1a64:	30205f5f 	eorcc	r5, r0, pc, asr pc
    1a68:	66666678 			; <UNDEFINED> instruction: 0x66666678
    1a6c:	665f0066 	ldrbvs	r0, [pc], -r6, rrx
    1a70:	6f6c6e75 	svcvs	0x006c6e75
    1a74:	69666b63 	stmdbvs	r6!, {r0, r1, r5, r6, r8, r9, fp, sp, lr}^
    1a78:	6628656c 	strtvs	r6, [r8], -ip, ror #10
    1a7c:	28202970 	stmdacs	r0!, {r4, r5, r6, r8, fp, sp}
    1a80:	70662828 	rsbvc	r2, r6, r8, lsr #16
    1a84:	5f3e2d29 	svcpl	0x003e2d29
    1a88:	67616c66 	strbvs	r6, [r1, -r6, ror #24]!
    1a8c:	20262073 	eorcs	r2, r6, r3, ror r0
    1a90:	53535f5f 	cmppl	r3, #380	; 0x17c
    1a94:	20295254 	eorcs	r5, r9, r4, asr r2
    1a98:	2030203f 	eorscs	r2, r0, pc, lsr r0
    1a9c:	5f5f203a 	svcpl	0x005f203a
    1aa0:	6b636f6c 	blvs	18dd858 <_Min_Stack_Size+0x18dd458>
    1aa4:	6c65725f 	sfmvs	f7, 2, [r5], #-380	; 0xfffffe84
    1aa8:	65736165 	ldrbvs	r6, [r3, #-357]!	; 0xfffffe9b
    1aac:	6365725f 	cmnvs	r5, #-268435451	; 0xf0000005
    1ab0:	69737275 	ldmdbvs	r3!, {r0, r2, r4, r5, r6, r9, ip, sp, lr}^
    1ab4:	28286576 	stmdacs	r8!, {r1, r2, r4, r5, r6, r8, sl, sp, lr}
    1ab8:	2d297066 	stccs	0, cr7, [r9, #-408]!	; 0xfffffe68
    1abc:	6f6c5f3e 	svcvs	0x006c5f3e
    1ac0:	29296b63 	stmdbcs	r9!, {r0, r1, r5, r6, r8, r9, fp, sp, lr}
    1ac4:	545f5f00 	ldrbpl	r5, [pc], #-3840	; 1acc <_Min_Stack_Size+0x16cc>
    1ac8:	42465f51 	submi	r5, r6, #324	; 0x144
    1acc:	5f5f5449 	svcpl	0x005f5449
    1ad0:	37323120 	ldrcc	r3, [r2, -r0, lsr #2]!
    1ad4:	535f5f00 	cmppl	pc, #0, 30
    1ad8:	5f545248 	svcpl	0x00545248
    1adc:	5f58414d 	svcpl	0x0058414d
    1ae0:	7830205f 	ldmdavc	r0!, {r0, r1, r2, r3, r4, r6, sp}
    1ae4:	66666637 			; <UNDEFINED> instruction: 0x66666637
    1ae8:	4c5f5f00 	mrrcmi	15, 0, r5, pc, cr0	; <UNPREDICTABLE>
    1aec:	5f4c4244 	svcpl	0x004c4244
    1af0:	5f58414d 	svcpl	0x0058414d
    1af4:	5f505845 	svcpl	0x00505845
    1af8:	3031205f 	eorscc	r2, r1, pc, asr r0
    1afc:	5f003432 	svcpl	0x00003432
    1b00:	45564148 	ldrbmi	r4, [r6, #-328]	; 0xfffffeb8
    1b04:	4e4f4c5f 	mcrmi	12, 2, r4, cr15, cr15, {2}
    1b08:	4f445f47 	svcmi	0x00445f47
    1b0c:	454c4255 	strbmi	r4, [ip, #-597]	; 0xfffffdab
    1b10:	61003120 	tstvs	r0, r0, lsr #2
    1b14:	72657373 	rsbvc	r7, r5, #-872415231	; 0xcc000001
    1b18:	5f5f2874 	svcpl	0x005f2874
    1b1c:	28202965 	stmdacs	r0!, {r0, r2, r5, r6, r8, fp, sp}
    1b20:	655f5f28 	ldrbvs	r5, [pc, #-3880]	; c00 <_Min_Stack_Size+0x800>
    1b24:	203f2029 	eorscs	r2, pc, r9, lsr #32
    1b28:	696f7628 	stmdbvs	pc!, {r3, r5, r9, sl, ip, sp, lr}^	; <UNPREDICTABLE>
    1b2c:	20302964 	eorscs	r2, r0, r4, ror #18
    1b30:	5f5f203a 	svcpl	0x005f203a
    1b34:	65737361 	ldrbvs	r7, [r3, #-865]!	; 0xfffffc9f
    1b38:	665f7472 			; <UNDEFINED> instruction: 0x665f7472
    1b3c:	20636e75 	rsbcs	r6, r3, r5, ror lr
    1b40:	465f5f28 	ldrbmi	r5, [pc], -r8, lsr #30
    1b44:	5f454c49 	svcpl	0x00454c49
    1b48:	5f202c5f 	svcpl	0x00202c5f
    1b4c:	4e494c5f 	mcrmi	12, 2, r4, cr9, cr15, {2}
    1b50:	2c5f5f45 	mrrccs	15, 4, r5, pc, cr5	; <UNPREDICTABLE>
    1b54:	415f5f20 	cmpmi	pc, r0, lsr #30
    1b58:	52455353 	subpl	r5, r5, #1275068417	; 0x4c000001
    1b5c:	55465f54 	strbpl	r5, [r6, #-3924]	; 0xfffff0ac
    1b60:	202c434e 	eorcs	r4, ip, lr, asr #6
    1b64:	655f5f23 	ldrbvs	r5, [pc, #-3875]	; c49 <_Min_Stack_Size+0x849>
    1b68:	5f002929 	svcpl	0x00002929
    1b6c:	4c49465f 	mcrrmi	6, 5, r4, r9, cr15
    1b70:	65645f45 	strbvs	r5, [r4, #-3909]!	; 0xfffff0bb
    1b74:	656e6966 	strbvs	r6, [lr, #-2406]!	; 0xfffff69a
    1b78:	5f002064 	svcpl	0x00002064
    1b7c:	7568745f 	strbvc	r7, [r8, #-1119]!	; 0xfffffba1
    1b80:	5f32626d 	svcpl	0x0032626d
    1b84:	0031205f 	eorseq	r2, r1, pc, asr r0
    1b88:	28505f5f 	ldmdacs	r0, {r0, r1, r2, r3, r4, r6, r8, r9, sl, fp, ip, lr}^
    1b8c:	746f7270 	strbtvc	r7, [pc], #-624	; 1b94 <_Min_Stack_Size+0x1794>
    1b90:	2029736f 	eorcs	r7, r9, pc, ror #6
    1b94:	746f7270 	strbtvc	r7, [pc], #-624	; 1b9c <_Min_Stack_Size+0x179c>
    1b98:	5f00736f 	svcpl	0x0000736f
    1b9c:	4e454552 	mcrmi	5, 2, r4, cr5, cr2, {2}
    1ba0:	4e495f54 	mcrmi	15, 2, r5, cr9, cr4, {2}
    1ba4:	525f5449 	subspl	r5, pc, #1224736768	; 0x49000000
    1ba8:	52455345 	subpl	r5, r5, #335544321	; 0x14000001
    1bac:	5f444556 	svcpl	0x00444556
    1bb0:	5f002030 	svcpl	0x00002030
    1bb4:	4345445f 	movtmi	r4, #21599	; 0x545f
    1bb8:	54534e4f 	ldrbpl	r4, [r3], #-3663	; 0xfffff1b1
    1bbc:	70797428 	rsbsvc	r7, r9, r8, lsr #8
    1bc0:	61762c65 	cmnvs	r6, r5, ror #24
    1bc4:	28202972 	stmdacs	r0!, {r1, r4, r5, r6, r8, fp, sp}
    1bc8:	70797428 	rsbsvc	r7, r9, r8, lsr #8
    1bcc:	5f282965 	svcpl	0x00282965
    1bd0:	6e69755f 	mcrvs	5, 3, r7, cr9, cr15, {2}
    1bd4:	72747074 	rsbsvc	r7, r4, #116	; 0x74
    1bd8:	2829745f 	stmdacs	r9!, {r0, r1, r2, r3, r4, r6, sl, ip, sp, lr}
    1bdc:	736e6f63 	cmnvc	lr, #396	; 0x18c
    1be0:	6f762074 	svcvs	0x00762074
    1be4:	2a206469 	bcs	81ad90 <_Min_Stack_Size+0x81a990>
    1be8:	61762829 	cmnvs	r6, r9, lsr #16
    1bec:	00292972 	eoreq	r2, r9, r2, ror r9
    1bf0:	5359535f 	cmppl	r9, #2080374785	; 0x7c000001
    1bf4:	4145465f 	cmpmi	r5, pc, asr r6
    1bf8:	45525554 	ldrbmi	r5, [r2, #-1364]	; 0xfffffaac
    1bfc:	20485f53 	subcs	r5, r8, r3, asr pc
    1c00:	6e5f5f00 	cdpvs	15, 5, cr5, cr15, cr0, {0}
    1c04:	6c6e696f 			; <UNDEFINED> instruction: 0x6c6e696f
    1c08:	20656e69 	rsbcs	r6, r5, r9, ror #28
    1c0c:	74615f5f 	strbtvc	r5, [r1], #-3935	; 0xfffff0a1
    1c10:	62697274 	rsbvs	r7, r9, #116, 4	; 0x40000007
    1c14:	5f657475 	svcpl	0x00657475
    1c18:	2828205f 	stmdacs	r8!, {r0, r1, r2, r3, r4, r6, sp}
    1c1c:	6f6e5f5f 	svcvs	0x006e5f5f
    1c20:	696c6e69 	stmdbvs	ip!, {r0, r3, r5, r6, r9, sl, fp, sp, lr}^
    1c24:	5f5f656e 	svcpl	0x005f656e
    1c28:	5f002929 	svcpl	0x00002929
    1c2c:	5a49535f 	bpl	12569b0 <_Min_Stack_Size+0x12565b0>
    1c30:	5f464f45 	svcpl	0x00464f45
    1c34:	474e4f4c 	strbmi	r4, [lr, -ip, asr #30]
    1c38:	554f445f 	strbpl	r4, [pc, #-1119]	; 17e1 <_Min_Stack_Size+0x13e1>
    1c3c:	5f454c42 	svcpl	0x00454c42
    1c40:	0038205f 	eorseq	r2, r8, pc, asr r0
    1c44:	52505f5f 	subspl	r5, r0, #380	; 0x17c
    1c48:	414d4741 	cmpmi	sp, r1, asr #14
    1c4c:	4445525f 	strbmi	r5, [r5], #-607	; 0xfffffda1
    1c50:	4e494645 	cdpmi	6, 4, cr4, cr9, cr5, {2}
    1c54:	58455f45 	stmdapl	r5, {r0, r2, r6, r8, r9, sl, fp, ip, lr}^
    1c58:	4d414e54 	stclmi	14, cr4, [r1, #-336]	; 0xfffffeb0
    1c5c:	00312045 	eorseq	r2, r1, r5, asr #32
    1c60:	43575f5f 	cmpmi	r7, #380	; 0x17c
    1c64:	5f524148 	svcpl	0x00524148
    1c68:	45505954 	ldrbmi	r5, [r0, #-2388]	; 0xfffff6ac
    1c6c:	75205f5f 	strvc	r5, [r0, #-3935]!	; 0xfffff0a1
    1c70:	6769736e 	strbvs	r7, [r9, -lr, ror #6]!
    1c74:	2064656e 	rsbcs	r6, r4, lr, ror #10
    1c78:	00746e69 	rsbseq	r6, r4, r9, ror #28
    1c7c:	4545525f 	strbmi	r5, [r5, #-607]	; 0xfffffda1
    1c80:	535f544e 	cmppl	pc, #1308622848	; 0x4e000000
    1c84:	474e4749 	strbmi	r4, [lr, -r9, asr #14]
    1c88:	70284d41 	eorvc	r4, r8, r1, asr #26
    1c8c:	20297274 	eorcs	r7, r9, r4, ror r2
    1c90:	74702828 	ldrbtvc	r2, [r0], #-2088	; 0xfffff7d8
    1c94:	3e2d2972 			; <UNDEFINED> instruction: 0x3e2d2972
    1c98:	6d61675f 	stclvs	7, cr6, [r1, #-380]!	; 0xfffffe84
    1c9c:	735f616d 	cmpvc	pc, #1073741851	; 0x4000001b
    1ca0:	676e6769 	strbvs	r6, [lr, -r9, ror #14]!
    1ca4:	00296d61 	eoreq	r6, r9, r1, ror #26
    1ca8:	53555f5f 	cmppl	r5, #380	; 0x17c
    1cac:	42495f41 	submi	r5, r9, #260	; 0x104
    1cb0:	5f5f5449 	svcpl	0x005f5449
    1cb4:	00363120 	eorseq	r3, r6, r0, lsr #2
    1cb8:	4f445f5f 	svcmi	0x00445f5f
    1cbc:	454c4255 	strbmi	r4, [ip, #-597]	; 0xfffffdab
    1cc0:	5059545f 	subspl	r5, r9, pc, asr r4
    1cc4:	6f642045 	svcvs	0x00642045
    1cc8:	656c6275 	strbvs	r6, [ip, #-629]!	; 0xfffffd8b
    1ccc:	475f5f00 	ldrbmi	r5, [pc, -r0, lsl #30]
    1cd0:	485f4343 	ldmdami	pc, {r0, r1, r6, r8, r9, lr}^	; <UNPREDICTABLE>
    1cd4:	5f455641 	svcpl	0x00455641
    1cd8:	434e5953 	movtmi	r5, #59731	; 0xe953
    1cdc:	4d4f435f 	stclmi	3, cr4, [pc, #-380]	; 1b68 <_Min_Stack_Size+0x1768>
    1ce0:	45524150 	ldrbmi	r4, [r2, #-336]	; 0xfffffeb0
    1ce4:	444e415f 	strbmi	r4, [lr], #-351	; 0xfffffea1
    1ce8:	4157535f 	cmpmi	r7, pc, asr r3
    1cec:	20325f50 	eorscs	r5, r2, r0, asr pc
    1cf0:	5f5f0031 	svcpl	0x005f0031
    1cf4:	64646968 	strbtvs	r6, [r4], #-2408	; 0xfffff698
    1cf8:	5f206e65 	svcpl	0x00206e65
    1cfc:	7474615f 	ldrbtvc	r6, [r4], #-351	; 0xfffffea1
    1d00:	75626972 	strbvc	r6, [r2, #-2418]!	; 0xfffff68e
    1d04:	5f5f6574 	svcpl	0x005f6574
    1d08:	5f5f2828 	svcpl	0x005f2828
    1d0c:	69736976 	ldmdbvs	r3!, {r1, r2, r4, r5, r6, r8, fp, sp, lr}^
    1d10:	696c6962 	stmdbvs	ip!, {r1, r5, r6, r8, fp, sp, lr}^
    1d14:	5f5f7974 	svcpl	0x005f7974
    1d18:	69682228 	stmdbvs	r8!, {r3, r5, r9, sp}^
    1d1c:	6e656464 	cdpvs	4, 6, cr6, cr5, cr4, {3}
    1d20:	29292922 	stmdbcs	r9!, {r1, r5, r8, fp, sp}
    1d24:	445f5f00 	ldrbmi	r5, [pc], #-3840	; 1d2c <_Min_Stack_Size+0x192c>
    1d28:	495f4c42 	ldmdbmi	pc, {r1, r6, sl, fp, lr}^	; <UNPREDICTABLE>
    1d2c:	45495f53 	strbmi	r5, [r9, #-3923]	; 0xfffff0ad
    1d30:	30365f43 	eorscc	r5, r6, r3, asr #30
    1d34:	5f393535 	svcpl	0x00393535
    1d38:	0031205f 	eorseq	r2, r1, pc, asr r0
    1d3c:	4f535f5f 	svcmi	0x00535f5f
    1d40:	30204646 	eorcc	r4, r0, r6, asr #12
    1d44:	30303178 	eorscc	r3, r0, r8, ror r1
    1d48:	5f5f0030 	svcpl	0x005f0030
    1d4c:	544e4955 	strbpl	r4, [lr], #-2389	; 0xfffff6ab
    1d50:	5341465f 	movtpl	r4, #5727	; 0x165f
    1d54:	5f343654 	svcpl	0x00343654
    1d58:	45505954 	ldrbmi	r5, [r0, #-2388]	; 0xfffff6ac
    1d5c:	6c205f5f 	stcvs	15, cr5, [r0], #-380	; 0xfffffe84
    1d60:	20676e6f 	rsbcs	r6, r7, pc, ror #28
    1d64:	676e6f6c 	strbvs	r6, [lr, -ip, ror #30]!
    1d68:	736e7520 	cmnvc	lr, #32, 10	; 0x8000000
    1d6c:	656e6769 	strbvs	r6, [lr, #-1897]!	; 0xfffff897
    1d70:	6e692064 	cdpvs	0, 6, cr2, cr9, cr4, {3}
    1d74:	3a430074 	bcc	10c1f4c <_Min_Stack_Size+0x10c1b4c>
    1d78:	6573552f 	ldrbvs	r5, [r3, #-1327]!	; 0xfffffad1
    1d7c:	632f7372 			; <UNDEFINED> instruction: 0x632f7372
    1d80:	74736972 	ldrbtvc	r6, [r3], #-2418	; 0xfffff68e
    1d84:	7365442f 	cmnvc	r5, #788529152	; 0x2f000000
    1d88:	706f746b 	rsbvc	r7, pc, fp, ror #8
    1d8c:	6564552f 	strbvs	r5, [r4, #-1327]!	; 0xfffffad1
    1d90:	4d2f796d 			; <UNDEFINED> instruction: 0x4d2f796d
    1d94:	6f726369 	svcvs	0x00726369
    1d98:	746e6f63 	strbtvc	r6, [lr], #-3939	; 0xfffff09d
    1d9c:	6c6c6f72 	stclvs	15, cr6, [ip], #-456	; 0xfffffe38
    1da0:	45207265 	strmi	r7, [r0, #-613]!	; 0xfffffd9b
    1da4:	6465626d 	strbtvs	r6, [r5], #-621	; 0xfffffd93
    1da8:	20646564 	rsbcs	r6, r4, r4, ror #10
    1dac:	72502043 	subsvc	r2, r0, #67	; 0x43
    1db0:	6172676f 	cmnvs	r2, pc, ror #14
    1db4:	6e696d6d 	cdpvs	13, 6, cr6, cr9, cr13, {3}
    1db8:	794d2f67 	stmdbvc	sp, {r0, r1, r2, r5, r6, r8, r9, sl, fp, sp}^
    1dbc:	726f775f 	rsbvc	r7, pc, #24903680	; 0x17c0000
    1dc0:	6170736b 	cmnvs	r0, fp, ror #6
    1dc4:	742f6563 	strtvc	r6, [pc], #-1379	; 1dcc <_Min_Stack_Size+0x19cc>
    1dc8:	65677261 	strbvs	r7, [r7, #-609]!	; 0xfffffd9f
    1dcc:	69732f74 	ldmdbvs	r3!, {r2, r4, r5, r6, r8, r9, sl, fp, sp}^
    1dd0:	666f657a 			; <UNDEFINED> instruction: 0x666f657a
    1dd4:	7365745f 	cmnvc	r5, #1593835520	; 0x5f000000
    1dd8:	676e6974 			; <UNDEFINED> instruction: 0x676e6974
    1ddc:	6265442f 	rsbvs	r4, r5, #788529152	; 0x2f000000
    1de0:	5f006775 	svcpl	0x00006775
    1de4:	544e4957 	strbpl	r4, [lr], #-2391	; 0xfffff6a9
    1de8:	0020545f 	eoreq	r5, r0, pc, asr r4
    1dec:	4c465f5f 	mcrrmi	15, 5, r5, r6, cr15
    1df0:	494d5f54 	stmdbmi	sp, {r2, r4, r6, r8, r9, sl, fp, ip, lr}^
    1df4:	205f5f4e 	subscs	r5, pc, lr, asr #30
    1df8:	37312e31 			; <UNDEFINED> instruction: 0x37312e31
    1dfc:	34393435 	ldrtcc	r3, [r9], #-1077	; 0xfffffbcb
    1e00:	38303533 	ldmdacc	r0!, {r0, r1, r4, r5, r8, sl, ip, sp}
    1e04:	38323232 	ldmdacc	r2!, {r1, r4, r5, r9, ip, sp}
    1e08:	2d653537 	cfstr64cs	mvdx3, [r5, #-220]!	; 0xffffff24
    1e0c:	00463833 	subeq	r3, r6, r3, lsr r8
    1e10:	656e5f5f 	strbvs	r5, [lr, #-3935]!	; 0xfffff0a1
    1e14:	735f6465 	cmpvc	pc, #1694498816	; 0x65000000
    1e18:	5f657a69 	svcpl	0x00657a69
    1e1c:	5f002074 	svcpl	0x00002074
    1e20:	5f41485f 	svcpl	0x0041485f
    1e24:	54494246 	strbpl	r4, [r9], #-582	; 0xfffffdba
    1e28:	37205f5f 			; <UNDEFINED> instruction: 0x37205f5f
    1e2c:	465f5f00 	ldrbmi	r5, [pc], -r0, lsl #30
    1e30:	43495044 	movtmi	r5, #36932	; 0x9044
    1e34:	5f005f5f 	svcpl	0x00005f5f
    1e38:	544c465f 	strbpl	r4, [ip], #-1631	; 0xfffff9a1
    1e3c:	495f3233 	ldmdbmi	pc, {r0, r1, r4, r5, r9, ip, sp}^	; <UNPREDICTABLE>
    1e40:	45495f53 	strbmi	r5, [r9, #-3923]	; 0xfffff0ad
    1e44:	30365f43 	eorscc	r5, r6, r3, asr #30
    1e48:	5f393535 	svcpl	0x00393535
    1e4c:	0031205f 	eorseq	r2, r1, pc, asr r0
    1e50:	53555f5f 	cmppl	r5, #380	; 0x17c
    1e54:	43415246 	movtmi	r5, #4678	; 0x1246
    1e58:	42495f54 	submi	r5, r9, #84, 30	; 0x150
    1e5c:	5f5f5449 	svcpl	0x005f5449
    1e60:	5f003020 	svcpl	0x00003020
    1e64:	4e454552 	mcrmi	5, 2, r4, cr5, cr2, {2}
    1e68:	4e495f54 	mcrmi	15, 2, r5, cr9, cr4, {2}
    1e6c:	525f5449 	subspl	r5, pc, #1224736768	; 0x49000000
    1e70:	52455345 	subpl	r5, r5, #335544321	; 0x14000001
    1e74:	5f444556 	svcpl	0x00444556
    1e78:	5f002031 	svcpl	0x00002031
    1e7c:	6165775f 	cmnvs	r5, pc, asr r7
    1e80:	79735f6b 	ldmdbvc	r3!, {r0, r1, r3, r5, r6, r8, r9, sl, fp, ip, lr}^
    1e84:	6c6f626d 	sfmvs	f6, 2, [pc], #-436	; 1cd8 <_Min_Stack_Size+0x18d8>
    1e88:	615f5f20 	cmpvs	pc, r0, lsr #30
    1e8c:	69727474 	ldmdbvs	r2!, {r2, r4, r5, r6, sl, ip, sp, lr}^
    1e90:	65747562 	ldrbvs	r7, [r4, #-1378]!	; 0xfffffa9e
    1e94:	28285f5f 	stmdacs	r8!, {r0, r1, r2, r3, r4, r6, r8, r9, sl, fp, ip, lr}
    1e98:	65775f5f 	ldrbvs	r5, [r7, #-3935]!	; 0xfffff0a1
    1e9c:	5f5f6b61 	svcpl	0x005f6b61
    1ea0:	5f002929 	svcpl	0x00002929
    1ea4:	4653555f 			; <UNDEFINED> instruction: 0x4653555f
    1ea8:	54434152 	strbpl	r4, [r3], #-338	; 0xfffffeae
    1eac:	4e494d5f 	mcrmi	13, 2, r4, cr9, cr15, {2}
    1eb0:	30205f5f 	eorcc	r5, r0, pc, asr pc
    1eb4:	4855302e 	ldmdami	r5, {r1, r2, r3, r5, ip, sp}^
    1eb8:	5f5f0052 	svcpl	0x005f0052
    1ebc:	64657375 	strbtvs	r7, [r5], #-885	; 0xfffffc8b
    1ec0:	615f5f20 	cmpvs	pc, r0, lsr #30
    1ec4:	69727474 	ldmdbvs	r2!, {r2, r4, r5, r6, sl, ip, sp, lr}^
    1ec8:	65747562 	ldrbvs	r7, [r4, #-1378]!	; 0xfffffa9e
    1ecc:	28285f5f 	stmdacs	r8!, {r0, r1, r2, r3, r4, r6, r8, r9, sl, fp, ip, lr}
    1ed0:	73755f5f 	cmnvc	r5, #380	; 0x17c
    1ed4:	5f5f6465 	svcpl	0x005f6465
    1ed8:	5f002929 	svcpl	0x00002929
    1edc:	6e65675f 	mcrvs	7, 3, r6, cr5, cr15, {2}
    1ee0:	63697265 	cmnvs	r9, #1342177286	; 0x50000006
    1ee4:	70786528 	rsbsvc	r6, r8, r8, lsr #10
    1ee8:	2c742c72 	ldclcs	12, cr2, [r4], #-456	; 0xfffffe38
    1eec:	2c736579 	cfldr64cs	mvdx6, [r3], #-484	; 0xfffffe1c
    1ef0:	20296f6e 	eorcs	r6, r9, lr, ror #30
    1ef4:	6e65475f 	mcrvs	7, 3, r4, cr5, cr15, {2}
    1ef8:	63697265 	cmnvs	r9, #1342177286	; 0x50000006
    1efc:	70786528 	rsbsvc	r6, r8, r8, lsr #10
    1f00:	74202c72 	strtvc	r2, [r0], #-3186	; 0xfffff38e
    1f04:	6579203a 	ldrbvs	r2, [r9, #-58]!	; 0xffffffc6
    1f08:	64202c73 	strtvs	r2, [r0], #-3187	; 0xfffff38d
    1f0c:	75616665 	strbvc	r6, [r1, #-1637]!	; 0xfffff99b
    1f10:	203a746c 	eorscs	r7, sl, ip, ror #8
    1f14:	00296f6e 	eoreq	r6, r9, lr, ror #30
    1f18:	52415f5f 	subpl	r5, r1, #380	; 0x17c
    1f1c:	454e5f4d 	strbmi	r5, [lr, #-3917]	; 0xfffff0b3
    1f20:	5f004e4f 	svcpl	0x00004e4f
    1f24:	4e49555f 	mcrmi	5, 2, r5, cr9, cr15, {2}
    1f28:	4d5f3854 	ldclmi	8, cr3, [pc, #-336]	; 1de0 <_Min_Stack_Size+0x19e0>
    1f2c:	5f5f5841 	svcpl	0x005f5841
    1f30:	66783020 	ldrbtvs	r3, [r8], -r0, lsr #32
    1f34:	5f5f0066 	svcpl	0x005f0066
    1f38:	746e695f 	strbtvc	r6, [lr], #-2399	; 0xfffff6a1
    1f3c:	745f3631 	ldrbvc	r3, [pc], #-1585	; 1f44 <_Min_Stack_Size+0x1b44>
    1f40:	6665645f 			; <UNDEFINED> instruction: 0x6665645f
    1f44:	64656e69 	strbtvs	r6, [r5], #-3689	; 0xfffff197
    1f48:	5f003120 	svcpl	0x00003120
    1f4c:	4e454552 	mcrmi	5, 2, r4, cr5, cr2, {2}
    1f50:	695f2054 	ldmdbvs	pc, {r2, r4, r6, sp}^	; <UNPREDICTABLE>
    1f54:	7275706d 	rsbsvc	r7, r5, #109	; 0x6d
    1f58:	74705f65 	ldrbtvc	r5, [r0], #-3941	; 0xfffff09b
    1f5c:	5f5f0072 	svcpl	0x005f0072
    1f60:	5f736168 	svcpl	0x00736168
    1f64:	74616566 	strbtvc	r6, [r1], #-1382	; 0xfffffa9a
    1f68:	28657275 	stmdacs	r5!, {r0, r2, r4, r5, r6, r9, ip, sp, lr}^
    1f6c:	30202978 	eorcc	r2, r0, r8, ror r9
    1f70:	45525f00 	ldrbmi	r5, [r2, #-3840]	; 0xfffff100
    1f74:	5f544e45 	svcpl	0x00544e45
    1f78:	54494e49 	strbpl	r4, [r9], #-3657	; 0xfffff1b7
    1f7c:	72617628 	rsbvc	r7, r1, #40, 12	; 0x2800000
    1f80:	207b2029 	rsbscs	r2, fp, r9, lsr #32
    1f84:	26202c30 			; <UNDEFINED> instruction: 0x26202c30
    1f88:	66735f5f 	uhsaxvs	r5, r3, pc	; <UNPREDICTABLE>
    1f8c:	2c5d305b 	mrrccs	0, 5, r3, sp, cr11
    1f90:	5f5f2620 	svcpl	0x005f2620
    1f94:	315b6673 	cmpcc	fp, r3, ror r6
    1f98:	26202c5d 			; <UNDEFINED> instruction: 0x26202c5d
    1f9c:	66735f5f 	uhsaxvs	r5, r3, pc	; <UNPREDICTABLE>
    1fa0:	2c5d325b 	lfmcs	f3, 2, [sp], {91}	; 0x5b
    1fa4:	202c3020 	eorcs	r3, ip, r0, lsr #32
    1fa8:	4c554e5f 	mrrcmi	14, 5, r4, r5, cr15
    1fac:	5f202c4c 	svcpl	0x00202c4c
    1fb0:	4e454552 	mcrmi	5, 2, r4, cr5, cr2, {2}
    1fb4:	4e495f54 	mcrmi	15, 2, r5, cr9, cr4, {2}
    1fb8:	525f5449 	subspl	r5, pc, #1224736768	; 0x49000000
    1fbc:	52455345 	subpl	r5, r5, #335544321	; 0x14000001
    1fc0:	5f444556 	svcpl	0x00444556
    1fc4:	525f2030 	subspl	r2, pc, #48	; 0x30
    1fc8:	544e4545 	strbpl	r4, [lr], #-1349	; 0xfffffabb
    1fcc:	494e495f 	stmdbmi	lr, {r0, r1, r2, r3, r4, r6, r8, fp, lr}^
    1fd0:	45525f54 	ldrbmi	r5, [r2, #-3924]	; 0xfffff0ac
    1fd4:	56524553 			; <UNDEFINED> instruction: 0x56524553
    1fd8:	315f4445 	cmpcc	pc, r5, asr #8
    1fdc:	554e5f20 	strbpl	r5, [lr, #-3872]	; 0xfffff0e0
    1fe0:	202c4c4c 	eorcs	r4, ip, ip, asr #24
    1fe4:	4c554e5f 	mrrcmi	14, 5, r4, r5, cr15
    1fe8:	5f202c4c 	svcpl	0x00202c4c
    1fec:	4c4c554e 	cfstr64mi	mvdx5, [ip], {78}	; 0x4e
    1ff0:	2c30202c 	ldccs	0, cr2, [r0], #-176	; 0xffffff50
    1ff4:	202c3020 	eorcs	r3, ip, r0, lsr #32
    1ff8:	4c554e5f 	mrrcmi	14, 5, r4, r5, cr15
    1ffc:	5f202c4c 	svcpl	0x00202c4c
    2000:	4c4c554e 	cfstr64mi	mvdx5, [ip], {78}	; 0x4e
    2004:	4e5f202c 	cdpmi	0, 5, cr2, cr15, cr12, {1}
    2008:	2c4c4c55 	mcrrcs	12, 5, r4, ip, cr5
    200c:	554e5f20 	strbpl	r5, [lr, #-3872]	; 0xfffff0e0
    2010:	202c4c4c 	eorcs	r4, ip, ip, asr #24
    2014:	4c554e5f 	mrrcmi	14, 5, r4, r5, cr15
    2018:	5f202c4c 	svcpl	0x00202c4c
    201c:	4e454552 	mcrmi	5, 2, r4, cr5, cr2, {2}
    2020:	4e495f54 	mcrmi	15, 2, r5, cr9, cr4, {2}
    2024:	525f5449 	subspl	r5, pc, #1224736768	; 0x49000000
    2028:	52455345 	subpl	r5, r5, #335544321	; 0x14000001
    202c:	5f444556 	svcpl	0x00444556
    2030:	20375f36 	eorscs	r5, r7, r6, lsr pc
    2034:	4545525f 	strbmi	r5, [r5, #-607]	; 0xfffffda1
    2038:	495f544e 	ldmdbmi	pc, {r1, r2, r3, r6, sl, ip, lr}^	; <UNPREDICTABLE>
    203c:	5f54494e 	svcpl	0x0054494e
    2040:	45534552 	ldrbmi	r4, [r3, #-1362]	; 0xfffffaae
    2044:	44455652 	strbmi	r5, [r5], #-1618	; 0xfffff9ae
    2048:	5f20385f 	svcpl	0x0020385f
    204c:	4c4c554e 	cfstr64mi	mvdx5, [ip], {78}	; 0x4e
    2050:	4e5f202c 	cdpmi	0, 5, cr2, cr15, cr12, {1}
    2054:	2c4c4c55 	mcrrcs	12, 5, r4, ip, cr5
    2058:	554e5f20 	strbpl	r5, [lr, #-3872]	; 0xfffff0e0
    205c:	7d204c4c 	stcvc	12, cr4, [r0, #-304]!	; 0xfffffed0
    2060:	655f5f00 	ldrbvs	r5, [pc, #-3840]	; 1168 <_Min_Stack_Size+0xd68>
    2064:	726f7078 	rsbvc	r7, pc, #120	; 0x78
    2068:	20646574 	rsbcs	r6, r4, r4, ror r5
    206c:	74615f5f 	strbtvc	r5, [r1], #-3935	; 0xfffff0a1
    2070:	62697274 	rsbvs	r7, r9, #116, 4	; 0x40000007
    2074:	5f657475 	svcpl	0x00657475
    2078:	5f28285f 	svcpl	0x0028285f
    207c:	7369765f 	cmnvc	r9, #99614720	; 0x5f00000
    2080:	6c696269 	sfmvs	f6, 2, [r9], #-420	; 0xfffffe5c
    2084:	5f797469 	svcpl	0x00797469
    2088:	6422285f 	strtvs	r2, [r2], #-2143	; 0xfffff7a1
    208c:	75616665 	strbvc	r6, [r1, #-1637]!	; 0xfffff99b
    2090:	2922746c 	stmdbcs	r2!, {r2, r3, r5, r6, sl, ip, sp, lr}
    2094:	5f002929 	svcpl	0x00002929
    2098:	4343535f 	movtmi	r5, #13151	; 0x335f
    209c:	28444953 	stmdacs	r4, {r0, r1, r4, r6, r8, fp, lr}^
    20a0:	73202973 			; <UNDEFINED> instruction: 0x73202973
    20a4:	63757274 	cmnvs	r5, #116, 4	; 0x40000007
    20a8:	5f5f2074 	svcpl	0x005f2074
    20ac:	6b636168 	blvs	18da654 <_Min_Stack_Size+0x18da254>
    20b0:	445f5f00 	ldrbmi	r5, [pc], #-3840	; 20b8 <_Min_Stack_Size+0x1cb8>
    20b4:	485f4c42 	ldmdami	pc, {r1, r6, sl, fp, lr}^	; <UNPREDICTABLE>
    20b8:	445f5341 	ldrbmi	r5, [pc], #-833	; 20c0 <_Min_Stack_Size+0x1cc0>
    20bc:	524f4e45 	subpl	r4, pc, #1104	; 0x450
    20c0:	205f5f4d 	subscs	r5, pc, sp, asr #30
    20c4:	5f5f0031 	svcpl	0x005f0031
    20c8:	6b636f6c 	blvs	18dde80 <_Min_Stack_Size+0x18dda80>
    20cc:	7972745f 	ldmdbvc	r2!, {r0, r1, r2, r3, r4, r6, sl, ip, sp, lr}^
    20d0:	7163615f 	cmnvc	r3, pc, asr r1
    20d4:	65726975 	ldrbvs	r6, [r2, #-2421]!	; 0xfffff68b
    20d8:	6365725f 	cmnvs	r5, #-268435451	; 0xf0000005
    20dc:	69737275 	ldmdbvs	r3!, {r0, r2, r4, r5, r6, r9, ip, sp, lr}^
    20e0:	6c286576 	cfstr32vs	mvfx6, [r8], #-472	; 0xfffffe28
    20e4:	296b636f 	stmdbcs	fp!, {r0, r1, r2, r3, r5, r6, r8, r9, sp, lr}^
    20e8:	725f5f20 	subsvc	r5, pc, #32, 30	; 0x80
    20ec:	72617465 	rsbvc	r7, r1, #1694498816	; 0x65000000
    20f0:	5f746567 	svcpl	0x00746567
    20f4:	6b636f6c 	blvs	18ddeac <_Min_Stack_Size+0x18ddaac>
    20f8:	7972745f 	ldmdbvc	r2!, {r0, r1, r2, r3, r4, r6, sl, ip, sp, lr}^
    20fc:	7163615f 	cmnvc	r3, pc, asr r1
    2100:	65726975 	ldrbvs	r6, [r2, #-2421]!	; 0xfffff68b
    2104:	6365725f 	cmnvs	r5, #-268435451	; 0xf0000005
    2108:	69737275 	ldmdbvs	r3!, {r0, r2, r4, r5, r6, r9, ip, sp, lr}^
    210c:	6c286576 	cfstr32vs	mvfx6, [r8], #-472	; 0xfffffe28
    2110:	296b636f 	stmdbcs	fp!, {r0, r1, r2, r3, r5, r6, r8, r9, sp, lr}^
    2114:	535f5f00 	cmppl	pc, #0, 30
    2118:	2034364c 	eorscs	r3, r4, ip, asr #12
    211c:	30387830 	eorscc	r7, r8, r0, lsr r8
    2120:	5f003030 	svcpl	0x00003030
    2124:	4c5f424d 	lfmmi	f4, 2, [pc], {77}	; 0x4d
    2128:	4d5f4e45 	ldclmi	14, cr4, [pc, #-276]	; 201c <_Min_Stack_Size+0x1c1c>
    212c:	31205841 			; <UNDEFINED> instruction: 0x31205841
    2130:	4d545300 	ldclmi	3, cr5, [r4, #-0]
    2134:	34463233 	strbcc	r3, [r6], #-563	; 0xfffffdcd
    2138:	5f473730 	svcpl	0x00473730
    213c:	43534944 	cmpmi	r3, #68, 18	; 0x110000
    2140:	00312031 	eorseq	r2, r1, r1, lsr r0
    2144:	4545525f 	strbmi	r5, [r5, #-607]	; 0xfffffda1
    2148:	495f544e 	ldmdbmi	pc, {r1, r2, r3, r6, sl, ip, lr}^	; <UNPREDICTABLE>
    214c:	5f28434e 	svcpl	0x0028434e
    2150:	29727470 	ldmdbcs	r2!, {r4, r5, r6, sl, ip, sp, lr}^
    2154:	5f282820 	svcpl	0x00282820
    2158:	29727470 	ldmdbcs	r2!, {r4, r5, r6, sl, ip, sp, lr}^
    215c:	695f3e2d 	ldmdbvs	pc, {r0, r2, r3, r5, r9, sl, fp, ip, sp}^	; <UNPREDICTABLE>
    2160:	0029636e 	eoreq	r6, r9, lr, ror #6
    2164:	41445f5f 	cmpmi	r4, pc, asr pc
    2168:	4942465f 	stmdbmi	r2, {r0, r1, r2, r3, r4, r6, r9, sl, lr}^
    216c:	205f5f54 	subscs	r5, pc, r4, asr pc	; <UNPREDICTABLE>
    2170:	5f003133 	svcpl	0x00003133
    2174:	4e454552 	mcrmi	5, 2, r4, cr5, cr2, {2}
    2178:	54535f54 	ldrbpl	r5, [r3], #-3924	; 0xfffff0ac
    217c:	284e4944 	stmdacs	lr, {r2, r6, r8, fp, lr}^
    2180:	7274705f 	rsbsvc	r7, r4, #95	; 0x5f
    2184:	28282029 	stmdacs	r8!, {r0, r3, r5, sp}
    2188:	7274705f 	rsbsvc	r7, r4, #95	; 0x5f
    218c:	5f3e2d29 	svcpl	0x003e2d29
    2190:	69647473 	stmdbvs	r4!, {r0, r1, r4, r5, r6, sl, ip, sp, lr}^
    2194:	5f00296e 	svcpl	0x0000296e
    2198:	5858475f 	ldmdapl	r8, {r0, r1, r2, r3, r4, r6, r8, r9, sl, lr}^
    219c:	4942415f 	stmdbmi	r2, {r0, r1, r2, r3, r4, r6, r8, lr}^
    21a0:	5245565f 	subpl	r5, r5, #99614720	; 0x5f00000
    21a4:	4e4f4953 			; <UNDEFINED> instruction: 0x4e4f4953
    21a8:	31303120 	teqcc	r0, r0, lsr #2
    21ac:	5f5f0038 	svcpl	0x005f0038
    21b0:	5f544e49 	svcpl	0x00544e49
    21b4:	5341454c 	movtpl	r4, #5452	; 0x154c
    21b8:	5f363154 	svcpl	0x00363154
    21bc:	5f58414d 	svcpl	0x0058414d
    21c0:	7830205f 	ldmdavc	r0!, {r0, r1, r2, r3, r4, r6, sp}
    21c4:	66666637 			; <UNDEFINED> instruction: 0x66666637
    21c8:	465f5f00 	ldrbmi	r5, [pc], -r0, lsl #30
    21cc:	445f544c 	ldrbmi	r5, [pc], #-1100	; 21d4 <_Min_Stack_Size+0x1dd4>
    21d0:	524f4e45 	subpl	r4, pc, #1104	; 0x450
    21d4:	494d5f4d 	stmdbmi	sp, {r0, r2, r3, r6, r8, r9, sl, fp, ip, lr}^
    21d8:	205f5f4e 	subscs	r5, pc, lr, asr #30
    21dc:	30342e31 	eorscc	r2, r4, r1, lsr lr
    21e0:	38393231 	ldmdacc	r9!, {r0, r4, r5, r9, ip, sp}
    21e4:	33343634 	teqcc	r4, #52, 12	; 0x3400000
    21e8:	31383432 	teqcc	r8, r2, lsr r4
    21ec:	2d653137 	stfcse	f3, [r5, #-220]!	; 0xffffff24
    21f0:	00463534 	subeq	r3, r6, r4, lsr r5
    21f4:	65725f5f 	ldrbvs	r5, [r2, #-3935]!	; 0xfffff0a1
    21f8:	6e727574 	mrcvs	5, 3, r7, cr2, cr4, {3}
    21fc:	77745f73 			; <UNDEFINED> instruction: 0x77745f73
    2200:	20656369 	rsbcs	r6, r5, r9, ror #6
    2204:	74615f5f 	strbtvc	r5, [r1], #-3935	; 0xfffff0a1
    2208:	62697274 	rsbvs	r7, r9, #116, 4	; 0x40000007
    220c:	5f657475 	svcpl	0x00657475
    2210:	5f28285f 	svcpl	0x0028285f
    2214:	7465725f 	strbtvc	r7, [r5], #-607	; 0xfffffda1
    2218:	736e7275 	cmnvc	lr, #1342177287	; 0x50000007
    221c:	6977745f 	ldmdbvs	r7!, {r0, r1, r2, r3, r4, r6, sl, ip, sp, lr}^
    2220:	5f5f6563 	svcpl	0x005f6563
    2224:	5f002929 	svcpl	0x00002929
    2228:	4c4c555f 	cfstr64mi	mvdx5, [ip], {95}	; 0x5f
    222c:	55434341 	strbpl	r4, [r3, #-833]	; 0xfffffcbf
    2230:	50455f4d 	subpl	r5, r5, sp, asr #30
    2234:	4f4c4953 	svcmi	0x004c4953
    2238:	205f5f4e 	subscs	r5, pc, lr, asr #30
    223c:	50317830 	eorspl	r7, r1, r0, lsr r8
    2240:	5532332d 	ldrpl	r3, [r2, #-813]!	; 0xfffffcd3
    2244:	004b4c4c 	subeq	r4, fp, ip, asr #24
    2248:	65725f5f 	ldrbvs	r5, [r2, #-3935]!	; 0xfffff0a1
    224c:	72697571 	rsbvc	r7, r9, #473956352	; 0x1c400000
    2250:	735f7365 	cmpvc	pc, #-1811939327	; 0x94000001
    2254:	65726168 	ldrbvs	r6, [r2, #-360]!	; 0xfffffe98
    2258:	2e2e2864 	cdpcs	8, 2, cr2, cr14, cr4, {3}
    225c:	5f20292e 	svcpl	0x0020292e
    2260:	636f6c5f 	cmnvs	pc, #24320	; 0x5f00
    2264:	6e615f6b 	cdpvs	15, 6, cr5, cr1, cr11, {3}
    2268:	61746f6e 	cmnvs	r4, lr, ror #30
    226c:	73286574 			; <UNDEFINED> instruction: 0x73286574
    2270:	65726168 	ldrbvs	r6, [r2, #-360]!	; 0xfffffe98
    2274:	6f6c5f64 	svcvs	0x006c5f64
    2278:	5f736b63 	svcpl	0x00736b63
    227c:	75716572 	ldrbvc	r6, [r1, #-1394]!	; 0xfffffa8e
    2280:	64657269 	strbtvs	r7, [r5], #-617	; 0xfffffd97
    2284:	565f5f28 	ldrbpl	r5, [pc], -r8, lsr #30
    2288:	52415f41 	subpl	r5, r1, #260	; 0x104
    228c:	5f5f5347 	svcpl	0x005f5347
    2290:	5f002929 	svcpl	0x00002929
    2294:	5f444e45 	svcpl	0x00444e45
    2298:	5f445453 	svcpl	0x00445453
    229c:	5f002043 	svcpl	0x00002043
    22a0:	4e454552 	mcrmi	5, 2, r4, cr5, cr2, {2}
    22a4:	504d5f54 	subpl	r5, sp, r4, asr pc
    22a8:	5335505f 	teqpl	r5, #95	; 0x5f
    22ac:	72747028 	rsbsvc	r7, r4, #40	; 0x28
    22b0:	28282029 	stmdacs	r8!, {r0, r3, r5, sp}
    22b4:	29727470 	ldmdbcs	r2!, {r4, r5, r6, sl, ip, sp, lr}^
    22b8:	6d5f3e2d 	ldclvs	14, cr3, [pc, #-180]	; 220c <_Min_Stack_Size+0x1e0c>
    22bc:	5f3e2d70 	svcpl	0x003e2d70
    22c0:	29733570 	ldmdbcs	r3!, {r4, r5, r6, r8, sl, ip, sp}^
    22c4:	64747300 	ldrbtvs	r7, [r4], #-768	; 0xfffffd00
    22c8:	20727265 	rsbscs	r7, r2, r5, ror #4
    22cc:	4545525f 	strbmi	r5, [r5, #-607]	; 0xfffffda1
    22d0:	535f544e 	cmppl	pc, #1308622848	; 0x4e000000
    22d4:	52454454 	subpl	r4, r5, #84, 8	; 0x54000000
    22d8:	525f2852 	subspl	r2, pc, #5373952	; 0x520000
    22dc:	544e4545 	strbpl	r4, [lr], #-1349	; 0xfffffabb
    22e0:	545f0029 	ldrbpl	r0, [pc], #-41	; 22e8 <_Min_Stack_Size+0x1ee8>
    22e4:	5a49535f 	bpl	1257068 <_Min_Stack_Size+0x1256c68>
    22e8:	5f002045 	svcpl	0x00002045
    22ec:	4e49555f 	mcrmi	5, 2, r5, cr9, cr15, {2}
    22f0:	5f323354 	svcpl	0x00323354
    22f4:	29632843 	stmdbcs	r3!, {r0, r1, r6, fp, sp}^
    22f8:	23206320 			; <UNDEFINED> instruction: 0x23206320
    22fc:	4c552023 	mrrcmi	0, 2, r2, r5, cr3
    2300:	535f5f00 	cmppl	pc, #0, 30
    2304:	30205752 	eorcc	r5, r0, r2, asr r7
    2308:	31303078 	teqcc	r0, r8, ror r0
    230c:	5f5f0030 	svcpl	0x005f0030
    2310:	6c797274 	lfmvs	f7, 2, [r9], #-464	; 0xfffffe30
    2314:	736b636f 	cmnvc	fp, #-1140850687	; 0xbc000001
    2318:	6378655f 	cmnvs	r8, #398458880	; 0x17c00000
    231c:	6973756c 	ldmdbvs	r3!, {r2, r3, r5, r6, r8, sl, ip, sp, lr}^
    2320:	2e286576 	mcrcs	5, 1, r6, cr8, cr6, {3}
    2324:	20292e2e 	eorcs	r2, r9, lr, lsr #28
    2328:	6f6c5f5f 	svcvs	0x006c5f5f
    232c:	615f6b63 	cmpvs	pc, r3, ror #22
    2330:	746f6e6e 	strbtvc	r6, [pc], #-3694	; 2338 <_Min_Stack_Size+0x1f38>
    2334:	28657461 	stmdacs	r5!, {r0, r5, r6, sl, ip, sp, lr}^
    2338:	6c637865 	stclvs	8, cr7, [r3], #-404	; 0xfffffe6c
    233c:	76697375 			; <UNDEFINED> instruction: 0x76697375
    2340:	72745f65 	rsbsvc	r5, r4, #404	; 0x194
    2344:	636f6c79 	cmnvs	pc, #30976	; 0x7900
    2348:	75665f6b 	strbvc	r5, [r6, #-3947]!	; 0xfffff095
    234c:	6974636e 	ldmdbvs	r4!, {r1, r2, r3, r5, r6, r8, r9, sp, lr}^
    2350:	5f286e6f 	svcpl	0x00286e6f
    2354:	5f41565f 	svcpl	0x0041565f
    2358:	53475241 	movtpl	r5, #29249	; 0x7241
    235c:	29295f5f 	stmdbcs	r9!, {r0, r1, r2, r3, r4, r6, r8, r9, sl, fp, ip, lr}
    2360:	45525f00 	ldrbmi	r5, [r2, #-3840]	; 0xfffff100
    2364:	5f544e45 	svcpl	0x00544e45
    2368:	4f54424d 	svcmi	0x0054424d
    236c:	535f4357 	cmppl	pc, #1543503873	; 0x5c000001
    2370:	45544154 	ldrbmi	r4, [r4, #-340]	; 0xfffffeac
    2374:	72747028 	rsbsvc	r7, r4, #40	; 0x28
    2378:	28282029 	stmdacs	r8!, {r0, r3, r5, sp}
    237c:	29727470 	ldmdbcs	r2!, {r4, r5, r6, sl, ip, sp, lr}^
    2380:	6d5f3e2d 	ldclvs	14, cr3, [pc, #-180]	; 22d4 <_Min_Stack_Size+0x1ed4>
    2384:	2d637369 	stclcs	3, cr7, [r3, #-420]!	; 0xfffffe5c
    2388:	626d5f3e 	rsbvs	r5, sp, #62, 30	; 0xf8
    238c:	63776f74 	cmnvs	r7, #116, 30	; 0x1d0
    2390:	6174735f 	cmnvs	r4, pc, asr r3
    2394:	00296574 	eoreq	r6, r9, r4, ror r5
    2398:	6c754e5f 	ldclvs	14, cr4, [r5], #-380	; 0xfffffe84
    239c:	6e755f6c 	cdpvs	15, 7, cr5, cr5, cr12, {3}
    23a0:	63657073 	cmnvs	r5, #115	; 0x73
    23a4:	65696669 	strbvs	r6, [r9, #-1641]!	; 0xfffff997
    23a8:	5f002064 	svcpl	0x00002064
    23ac:	544c465f 	strbpl	r4, [ip], #-1631	; 0xfffff9a1
    23b0:	5350455f 	cmppl	r0, #398458880	; 0x17c00000
    23b4:	4e4f4c49 	cdpmi	12, 4, cr4, cr15, cr9, {2}
    23b8:	31205f5f 			; <UNDEFINED> instruction: 0x31205f5f
    23bc:	3239312e 	eorscc	r3, r9, #-2147483637	; 0x8000000b
    23c0:	38323930 	ldmdacc	r2!, {r4, r5, r8, fp, ip, sp}
    23c4:	30353539 	eorscc	r3, r5, r9, lsr r5
    23c8:	32313837 	eorscc	r3, r1, #3604480	; 0x370000
    23cc:	372d6535 			; <UNDEFINED> instruction: 0x372d6535
    23d0:	5f5f0046 	svcpl	0x005f0046
    23d4:	52545358 	subspl	r5, r4, #88, 6	; 0x60000001
    23d8:	28474e49 	stmdacs	r7, {r0, r3, r6, r9, sl, fp, lr}^
    23dc:	5f202978 	svcpl	0x00202978
    23e0:	5254535f 	subspl	r5, r4, #2080374785	; 0x7c000001
    23e4:	28474e49 	stmdacs	r7, {r0, r3, r6, r9, sl, fp, lr}^
    23e8:	5f002978 	svcpl	0x00002978
    23ec:	7474615f 	ldrbtvc	r6, [r4], #-351	; 0xfffffea1
    23f0:	75626972 	strbvc	r6, [r2, #-2418]!	; 0xfffff68e
    23f4:	705f6574 	subsvc	r6, pc, r4, ror r5	; <UNPREDICTABLE>
    23f8:	5f657275 	svcpl	0x00657275
    23fc:	5f00205f 	svcpl	0x0000205f
    2400:	4d52415f 	ldfmie	f4, [r2, #-380]	; 0xfffffe84
    2404:	4352415f 	cmpmi	r2, #-1073741801	; 0xc0000017
    2408:	53495f48 	movtpl	r5, #40776	; 0x9f48
    240c:	48545f41 	ldmdami	r4, {r0, r6, r8, r9, sl, fp, ip, lr}^
    2410:	00424d55 	subeq	r4, r2, r5, asr sp
    2414:	4e535f5f 	mrcmi	15, 2, r5, cr3, cr15, {2}
    2418:	30205450 	eorcc	r5, r0, r0, asr r4
    241c:	30383078 	eorscc	r3, r8, r8, ror r0
    2420:	5f5f0030 	svcpl	0x005f0030
    2424:	43554e47 	cmpmi	r5, #1136	; 0x470
    2428:	454b494c 	strbmi	r4, [fp, #-2380]	; 0xfffff6b4
    242c:	4955425f 	ldmdbmi	r5, {r0, r1, r2, r3, r4, r6, r9, lr}^
    2430:	4e49544c 	cdpmi	4, 4, cr5, cr9, cr12, {2}
    2434:	5241565f 	subpl	r5, r1, #99614720	; 0x5f00000
    2438:	53475241 	movtpl	r5, #29249	; 0x7241
    243c:	5f003120 	svcpl	0x00003120
    2440:	4d52415f 	ldfmie	f4, [r2, #-380]	; 0xfffffe84
    2444:	4145465f 	cmpmi	r5, pc, asr r6
    2448:	45525554 	ldrbmi	r5, [r2, #-1364]	; 0xfffffaac
    244c:	54414d5f 	strbpl	r4, [r1], #-3423	; 0xfffff2a1
    2450:	5f4c554d 	svcpl	0x004c554d
    2454:	38544e49 	ldmdacc	r4, {r0, r3, r6, r9, sl, fp, lr}^
    2458:	555f5f00 	ldrbpl	r5, [pc, #-3840]	; 1560 <_Min_Stack_Size+0x1160>
    245c:	38544e49 	ldmdacc	r4, {r0, r3, r6, r9, sl, fp, lr}^
    2460:	5059545f 	subspl	r5, r9, pc, asr r4
    2464:	205f5f45 	subscs	r5, pc, r5, asr #30
    2468:	69736e75 	ldmdbvs	r3!, {r0, r2, r4, r5, r6, r9, sl, fp, sp, lr}^
    246c:	64656e67 	strbtvs	r6, [r5], #-3687	; 0xfffff199
    2470:	61686320 	cmnvs	r8, r0, lsr #6
    2474:	5f5f0072 	svcpl	0x005f0072
    2478:	5f434347 	svcpl	0x00434347
    247c:	4d4f5441 	cfstrdmi	mvd5, [pc, #-260]	; 2380 <_Min_Stack_Size+0x1f80>
    2480:	535f4349 	cmppl	pc, #603979777	; 0x24000001
    2484:	54524f48 	ldrbpl	r4, [r2], #-3912	; 0xfffff0b8
    2488:	434f4c5f 	movtmi	r4, #64607	; 0xfc5f
    248c:	52465f4b 	subpl	r5, r6, #300	; 0x12c
    2490:	32204545 	eorcc	r4, r0, #289406976	; 0x11400000
    2494:	2f2e2e00 	svccs	0x002e2e00
    2498:	2f637253 	svccs	0x00637253
    249c:	6e69616d 	powvsez	f6, f1, #5.0
    24a0:	5f00632e 	svcpl	0x0000632e
    24a4:	4153555f 	cmpmi	r3, pc, asr r5
    24a8:	4d554343 	ldclmi	3, cr4, [r5, #-268]	; 0xfffffef4
    24ac:	4942465f 	stmdbmi	r2, {r0, r1, r2, r3, r4, r6, r9, sl, lr}^
    24b0:	205f5f54 	subscs	r5, pc, r4, asr pc	; <UNPREDICTABLE>
    24b4:	5f5f0038 	svcpl	0x005f0038
    24b8:	5f434347 	svcpl	0x00434347
    24bc:	4d4f5441 	cfstrdmi	mvd5, [pc, #-260]	; 23c0 <_Min_Stack_Size+0x1fc0>
    24c0:	545f4349 	ldrbpl	r4, [pc], #-841	; 24c8 <_Min_Stack_Size+0x20c8>
    24c4:	5f545345 	svcpl	0x00545345
    24c8:	5f444e41 	svcpl	0x00444e41
    24cc:	5f544553 	svcpl	0x00544553
    24d0:	45555254 	ldrbmi	r5, [r5, #-596]	; 0xfffffdac
    24d4:	204c4156 	subcs	r4, ip, r6, asr r1
    24d8:	5f5f0031 	svcpl	0x005f0031
    24dc:	4353494d 	cmpmi	r3, #1261568	; 0x134000
    24e0:	5349565f 	movtpl	r5, #38495	; 0x965f
    24e4:	454c4249 	strbmi	r4, [ip, #-585]	; 0xfffffdb7
    24e8:	5f003120 	svcpl	0x00003120
    24ec:	4c5f4156 	ldfmie	f4, [pc], {86}	; 0x56
    24f0:	5f545349 	svcpl	0x00545349
    24f4:	49464544 	stmdbmi	r6, {r2, r6, r8, sl, lr}^
    24f8:	2044454e 	subcs	r4, r4, lr, asr #10
    24fc:	465f5f00 	ldrbmi	r5, [pc], -r0, lsl #30
    2500:	3233544c 	eorscc	r5, r3, #76, 8	; 0x4c000000
    2504:	5341485f 	movtpl	r4, #6239	; 0x185f
    2508:	4955515f 	ldmdbmi	r5, {r0, r1, r2, r3, r4, r6, r8, ip, lr}^
    250c:	4e5f5445 	cdpmi	4, 5, cr5, cr15, cr5, {2}
    2510:	5f5f4e41 	svcpl	0x005f4e41
    2514:	5f003120 	svcpl	0x00003120
    2518:	53424f5f 	movtpl	r4, #12127	; 0x2f5f
    251c:	54454c4f 	strbpl	r4, [r5], #-3151	; 0xfffff3b1
    2520:	414d5f45 	cmpmi	sp, r5, asr #30
    2524:	5f204854 	svcpl	0x00204854
    2528:	53424f5f 	movtpl	r4, #12127	; 0x2f5f
    252c:	54454c4f 	strbpl	r4, [r5], #-3151	; 0xfffff3b1
    2530:	414d5f45 	cmpmi	sp, r5, asr #30
    2534:	445f4854 	ldrbmi	r4, [pc], #-2132	; 253c <_Min_Stack_Size+0x213c>
    2538:	55414645 	strbpl	r4, [r1, #-1605]	; 0xfffff9bb
    253c:	5f00544c 	svcpl	0x0000544c
    2540:	455a4953 	ldrbmi	r4, [sl, #-2387]	; 0xfffff6ad
    2544:	00205f54 	eoreq	r5, r0, r4, asr pc
    2548:	444c5f5f 	strbmi	r5, [ip], #-3935	; 0xfffff0a1
    254c:	485f4c42 	ldmdami	pc, {r1, r6, sl, fp, lr}^	; <UNPREDICTABLE>
    2550:	495f5341 	ldmdbmi	pc, {r0, r6, r8, r9, ip, lr}^	; <UNPREDICTABLE>
    2554:	4e49464e 	cdpmi	6, 4, cr4, cr9, cr14, {2}
    2558:	5f595449 	svcpl	0x00595449
    255c:	0031205f 	eorseq	r2, r1, pc, asr r0
    2560:	41545f5f 	cmpmi	r4, pc, asr pc
    2564:	4942465f 	stmdbmi	r2, {r0, r1, r2, r3, r4, r6, r9, sl, lr}^
    2568:	205f5f54 	subscs	r5, pc, r4, asr pc	; <UNPREDICTABLE>
    256c:	5f003336 	svcpl	0x00003336
    2570:	544c465f 	strbpl	r4, [ip], #-1631	; 0xfffff9a1
    2574:	5f583233 	svcpl	0x00583233
    2578:	5f58414d 	svcpl	0x0058414d
    257c:	455f3031 	ldrbmi	r3, [pc, #-49]	; 2553 <_Min_Stack_Size+0x2153>
    2580:	5f5f5058 	svcpl	0x005f5058
    2584:	38303320 	ldmdacc	r0!, {r5, r8, r9, ip, sp}
    2588:	475f5f00 	ldrbmi	r5, [pc, -r0, lsl #30]
    258c:	5f43554e 	svcpl	0x0043554e
    2590:	4c5f4156 	ldfmie	f4, [pc], {86}	; 0x56
    2594:	20545349 	subscs	r5, r4, r9, asr #6
    2598:	415f5f00 	cmpmi	pc, r0, lsl #30
    259c:	415f4d52 	cmpmi	pc, r2, asr sp	; <UNPREDICTABLE>
    25a0:	5f484352 	svcpl	0x00484352
    25a4:	5f545845 	svcpl	0x00545845
    25a8:	56494449 	strbpl	r4, [r9], -r9, asr #8
    25ac:	31205f5f 			; <UNDEFINED> instruction: 0x31205f5f
    25b0:	535f5f00 	cmppl	pc, #0, 30
    25b4:	20525245 	subscs	r5, r2, r5, asr #4
    25b8:	30307830 	eorscc	r7, r0, r0, lsr r8
    25bc:	70003034 	andvc	r3, r0, r4, lsr r0
    25c0:	746e6972 	strbtvc	r6, [lr], #-2418	; 0xfffff68e
    25c4:	5f5f0066 	svcpl	0x005f0066
    25c8:	43554e47 	cmpmi	r5, #1136	; 0x470
    25cc:	454b494c 	strbmi	r4, [fp, #-2380]	; 0xfffff6b4
    25d0:	4d53415f 	ldfmie	f4, [r3, #-380]	; 0xfffffe84
    25d4:	5f003320 	svcpl	0x00003320
    25d8:	4749535f 	smlsldmi	r5, r9, pc, r3	; <UNPREDICTABLE>
    25dc:	4f54415f 	svcmi	0x0054415f
    25e0:	5f43494d 	svcpl	0x0043494d
    25e4:	5f4e494d 	svcpl	0x004e494d
    25e8:	2d28205f 	stccs	0, cr2, [r8, #-380]!	; 0xfffffe84
    25ec:	49535f5f 	ldmdbmi	r3, {r0, r1, r2, r3, r4, r6, r8, r9, sl, fp, ip, lr}^
    25f0:	54415f47 	strbpl	r5, [r1], #-3911	; 0xfffff0b9
    25f4:	43494d4f 	movtmi	r4, #40271	; 0x9d4f
    25f8:	58414d5f 	stmdapl	r1, {r0, r1, r2, r3, r4, r6, r8, sl, fp, lr}^
    25fc:	2d205f5f 	stccs	15, cr5, [r0, #-380]!	; 0xfffffe84
    2600:	00293120 	eoreq	r3, r9, r0, lsr #2
    2604:	41555f5f 	cmpmi	r5, pc, asr pc
    2608:	4d554343 	ldclmi	3, cr4, [r5, #-268]	; 0xfffffef4
    260c:	4e494d5f 	mcrmi	13, 2, r4, cr9, cr15, {2}
    2610:	30205f5f 	eorcc	r5, r0, pc, asr pc
    2614:	4b55302e 	blmi	154e6d4 <_Min_Stack_Size+0x154e2d4>
    2618:	53425f00 	movtpl	r5, #12032	; 0x2f00
    261c:	43575f44 	cmpmi	r7, #68, 30	; 0x110
    2620:	5f524148 	svcpl	0x00524148
    2624:	00205f54 	eoreq	r5, r0, r4, asr pc
    2628:	50465f5f 	subpl	r5, r6, pc, asr pc
    262c:	5341465f 	movtpl	r4, #5727	; 0x165f
    2630:	4d465f54 	stclmi	15, cr5, [r6, #-336]	; 0xfffffeb0
    2634:	31204641 			; <UNDEFINED> instruction: 0x31204641
    2638:	465f5f00 	ldrbmi	r5, [pc], -r0, lsl #30
    263c:	3233544c 	eorscc	r5, r3, #76, 8	; 0x4c000000
    2640:	53495f58 	movtpl	r5, #40792	; 0x9f58
    2644:	4345495f 	movtmi	r4, #22879	; 0x595f
    2648:	3530365f 	ldrcc	r3, [r0, #-1631]!	; 0xfffff9a1
    264c:	5f5f3935 	svcpl	0x005f3935
    2650:	5f003120 	svcpl	0x00003120
    2654:	5454415f 	ldrbpl	r4, [r4], #-351	; 0xfffffea1
    2658:	55424952 	strbpl	r4, [r2, #-2386]	; 0xfffff6ae
    265c:	495f4554 	ldmdbmi	pc, {r2, r4, r6, r8, sl, lr}^	; <UNPREDICTABLE>
    2660:	5255504d 	subspl	r5, r5, #77	; 0x4d
    2664:	41445f45 	cmpmi	r4, r5, asr #30
    2668:	5f5f4154 	svcpl	0x005f4154
    266c:	415f0020 	cmpmi	pc, r0, lsr #32
    2670:	49584554 	ldmdbmi	r8, {r2, r4, r6, r8, sl, lr}^
    2674:	4e495f54 	mcrmi	15, 2, r5, cr9, cr4, {2}
    2678:	7b205449 	blvc	8177a4 <_Min_Stack_Size+0x8173a4>
    267c:	4c554e5f 	mrrcmi	14, 5, r4, r5, cr15
    2680:	30202c4c 	eorcc	r2, r0, ip, asr #24
    2684:	5f7b202c 	svcpl	0x007b202c
    2688:	4c4c554e 	cfstr64mi	mvdx5, [ip], {78}	; 0x4e
    268c:	5f202c7d 	svcpl	0x00202c7d
    2690:	4c4c554e 	cfstr64mi	mvdx5, [ip], {78}	; 0x4e
    2694:	5f5f007d 	svcpl	0x005f007d
    2698:	5f544e49 	svcpl	0x00544e49
    269c:	5341454c 	movtpl	r4, #5452	; 0x154c
    26a0:	5f363154 	svcpl	0x00363154
    26a4:	54444957 	strbpl	r4, [r4], #-2391	; 0xfffff6a9
    26a8:	205f5f48 	subscs	r5, pc, r8, asr #30
    26ac:	5f003631 	svcpl	0x00003631
    26b0:	464c555f 			; <UNDEFINED> instruction: 0x464c555f
    26b4:	54434152 	strbpl	r4, [r3], #-338	; 0xfffffeae
    26b8:	4942465f 	stmdbmi	r2, {r0, r1, r2, r3, r4, r6, r9, sl, lr}^
    26bc:	205f5f54 	subscs	r5, pc, r4, asr pc	; <UNPREDICTABLE>
    26c0:	5f003233 	svcpl	0x00003233
    26c4:	4345445f 	movtmi	r4, #21599	; 0x545f
    26c8:	4156455f 	cmpmi	r6, pc, asr r5
    26cc:	454d5f4c 	strbmi	r5, [sp, #-3916]	; 0xfffff0b4
    26d0:	444f4854 	strbmi	r4, [pc], #-2132	; 26d8 <_Min_Stack_Size+0x22d8>
    26d4:	32205f5f 	eorcc	r5, r0, #380	; 0x17c
    26d8:	415f5f00 	cmpmi	pc, r0, lsl #30
    26dc:	465f4d52 			; <UNDEFINED> instruction: 0x465f4d52
    26e0:	55544145 	ldrbpl	r4, [r4, #-325]	; 0xfffffebb
    26e4:	465f4552 			; <UNDEFINED> instruction: 0x465f4552
    26e8:	5f363150 	svcpl	0x00363150
    26ec:	004c4d46 	subeq	r4, ip, r6, asr #26
    26f0:	4545525f 	strbmi	r5, [r5, #-607]	; 0xfffffda1
    26f4:	4d5f544e 	cfldrdmi	mvd5, [pc, #-312]	; 25c4 <_Min_Stack_Size+0x21c4>
    26f8:	4f545242 	svcmi	0x00545242
    26fc:	535f4357 	cmppl	pc, #1543503873	; 0x5c000001
    2700:	45544154 	ldrbmi	r4, [r4, #-340]	; 0xfffffeac
    2704:	72747028 	rsbsvc	r7, r4, #40	; 0x28
    2708:	28282029 	stmdacs	r8!, {r0, r3, r5, sp}
    270c:	29727470 	ldmdbcs	r2!, {r4, r5, r6, sl, ip, sp, lr}^
    2710:	6d5f3e2d 	ldclvs	14, cr3, [pc, #-180]	; 2664 <_Min_Stack_Size+0x2264>
    2714:	2d637369 	stclcs	3, cr7, [r3, #-420]!	; 0xfffffe5c
    2718:	626d5f3e 	rsbvs	r5, sp, #62, 30	; 0xf8
    271c:	776f7472 			; <UNDEFINED> instruction: 0x776f7472
    2720:	74735f63 	ldrbtvc	r5, [r3], #-3939	; 0xfffff09d
    2724:	29657461 	stmdbcs	r5!, {r0, r5, r6, sl, ip, sp, lr}^
    2728:	725f5f00 	subsvc	r5, pc, #0, 30
    272c:	72747365 	rsbsvc	r7, r4, #-1811939327	; 0x94000001
    2730:	20746369 	rsbscs	r6, r4, r9, ror #6
    2734:	74736572 	ldrbtvc	r6, [r3], #-1394	; 0xfffffa8e
    2738:	74636972 	strbtvc	r6, [r3], #-2418	; 0xfffff68e
    273c:	555f5f00 	ldrbpl	r5, [pc, #-3840]	; 1844 <_Min_Stack_Size+0x1444>
    2740:	41524653 	cmpmi	r2, r3, asr r6
    2744:	455f5443 	ldrbmi	r5, [pc, #-1091]	; 2309 <_Min_Stack_Size+0x1f09>
    2748:	4c495350 	mcrrmi	3, 5, r5, r9, cr0
    274c:	5f5f4e4f 	svcpl	0x005f4e4f
    2750:	31783020 	cmncc	r8, r0, lsr #32
    2754:	55382d50 	ldrpl	r2, [r8, #-3408]!	; 0xfffff2b0
    2758:	4e005248 	cdpmi	2, 0, cr5, cr0, cr8, {2}
    275c:	204c4c55 	subcs	r4, ip, r5, asr ip
    2760:	6f762828 	svcvs	0x00762828
    2764:	2a206469 	bcs	81b910 <_Min_Stack_Size+0x81b510>
    2768:	00293029 	eoreq	r3, r9, r9, lsr #32
    276c:	74736166 	ldrbtvc	r6, [r3], #-358	; 0xfffffe9a
    2770:	7475705f 	ldrbtvc	r7, [r5], #-95	; 0xffffffa1
    2774:	2c782863 	ldclcs	8, cr2, [r8], #-396	; 0xfffffe74
    2778:	28202970 	stmdacs	r0!, {r4, r5, r6, r8, fp, sp}
    277c:	70282d2d 	eorvc	r2, r8, sp, lsr #26
    2780:	5f3e2d29 	svcpl	0x003e2d29
    2784:	203c2077 	eorscs	r2, ip, r7, ror r0
    2788:	203f2030 	eorscs	r2, pc, r0, lsr r0	; <UNPREDICTABLE>
    278c:	77735f5f 			; <UNDEFINED> instruction: 0x77735f5f
    2790:	5f667562 	svcpl	0x00667562
    2794:	525f2872 	subspl	r2, pc, #7471104	; 0x720000
    2798:	544e4545 	strbpl	r4, [lr], #-1349	; 0xfffffabb
    279c:	6928202c 	stmdbvs	r8!, {r2, r3, r5, sp}
    27a0:	2829746e 	stmdacs	r9!, {r1, r2, r3, r5, r6, sl, ip, sp, lr}
    27a4:	202c2978 	eorcs	r2, ip, r8, ror r9
    27a8:	3d202970 			; <UNDEFINED> instruction: 0x3d202970
    27ac:	4f45203d 	svcmi	0x0045203d
    27b0:	203a2046 	eorscs	r2, sl, r6, asr #32
    27b4:	70282a28 	eorvc	r2, r8, r8, lsr #20
    27b8:	5f3e2d29 	svcpl	0x003e2d29
    27bc:	203d2070 	eorscs	r2, sp, r0, ror r0
    27c0:	2c297828 	stccs	8, cr7, [r9], #-160	; 0xffffff60
    27c4:	29702820 	ldmdbcs	r0!, {r5, fp, sp}^
    27c8:	705f3e2d 	subsvc	r3, pc, sp, lsr #28
    27cc:	202c2b2b 	eorcs	r2, ip, fp, lsr #22
    27d0:	00292930 	eoreq	r2, r9, r0, lsr r9
    27d4:	4545525f 	strbmi	r5, [r5, #-607]	; 0xfffffda1
    27d8:	535f544e 	cmppl	pc, #1308622848	; 0x4e000000
    27dc:	465f4749 	ldrbmi	r4, [pc], -r9, asr #14
    27e0:	28434e55 	stmdacs	r3, {r0, r2, r4, r6, r9, sl, fp, lr}^
    27e4:	7274705f 	rsbsvc	r7, r4, #95	; 0x5f
    27e8:	28282029 	stmdacs	r8!, {r0, r3, r5, sp}
    27ec:	7274705f 	rsbsvc	r7, r4, #95	; 0x5f
    27f0:	5f3e2d29 	svcpl	0x003e2d29
    27f4:	5f676973 	svcpl	0x00676973
    27f8:	636e7566 	cmnvs	lr, #427819008	; 0x19800000
    27fc:	5f5f0029 	svcpl	0x005f0029
    2800:	455a4953 	ldrbmi	r4, [sl, #-2387]	; 0xfffff6ad
    2804:	0020545f 	eoreq	r5, r0, pc, asr r4
    2808:	53555f5f 	cmppl	r5, #380	; 0x17c
    280c:	43415246 	movtmi	r5, #4678	; 0x1246
    2810:	42465f54 	submi	r5, r6, #84, 30	; 0x150
    2814:	5f5f5449 	svcpl	0x005f5449
    2818:	5f003820 	svcpl	0x00003820
    281c:	414c4c5f 	cmpmi	ip, pc, asr ip
    2820:	4d554343 	ldclmi	3, cr4, [r5, #-268]	; 0xfffffef4
    2824:	58414d5f 	stmdapl	r1, {r0, r1, r2, r3, r4, r6, r8, sl, fp, lr}^
    2828:	30205f5f 	eorcc	r5, r0, pc, asr pc
    282c:	46463758 			; <UNDEFINED> instruction: 0x46463758
    2830:	46464646 	strbmi	r4, [r6], -r6, asr #12
    2834:	46464646 	strbmi	r4, [r6], -r6, asr #12
    2838:	46464646 	strbmi	r4, [r6], -r6, asr #12
    283c:	332d5046 			; <UNDEFINED> instruction: 0x332d5046
    2840:	4b4c4c31 	blmi	131590c <_Min_Stack_Size+0x131550c>
    2844:	6e5f5f00 	cdpvs	15, 5, cr5, cr15, cr0, {0}
    2848:	5f646565 	svcpl	0x00646565
    284c:	4c4c554e 	cfstr64mi	mvdx5, [ip], {78}	; 0x4e
    2850:	535f5f00 	cmppl	pc, #0, 30
    2854:	204b4c4e 	subcs	r4, fp, lr, asr #24
    2858:	30307830 	eorscc	r7, r0, r0, lsr r8
    285c:	5f003130 	svcpl	0x00003130
    2860:	4152465f 	cmpmi	r2, pc, asr r6
    2864:	465f5443 	ldrbmi	r5, [pc], -r3, asr #8
    2868:	5f544942 	svcpl	0x00544942
    286c:	3531205f 	ldrcc	r2, [r1, #-95]!	; 0xffffffa1
    2870:	555f5f00 	ldrbpl	r5, [pc, #-3840]	; 1978 <_Min_Stack_Size+0x1578>
    2874:	5f524553 	svcpl	0x00524553
    2878:	4542414c 	strbmi	r4, [r2, #-332]	; 0xfffffeb4
    287c:	52505f4c 	subspl	r5, r0, #76, 30	; 0x130
    2880:	58494645 	stmdapl	r9, {r0, r2, r6, r9, sl, lr}^
    2884:	00205f5f 	eoreq	r5, r0, pc, asr pc
    2888:	49555f5f 	ldmdbmi	r5, {r0, r1, r2, r3, r4, r6, r8, r9, sl, fp, ip, lr}^
    288c:	3436544e 	ldrtcc	r5, [r6], #-1102	; 0xfffffbb2
    2890:	58414d5f 	stmdapl	r1, {r0, r1, r2, r3, r4, r6, r8, sl, fp, lr}^
    2894:	30205f5f 	eorcc	r5, r0, pc, asr pc
    2898:	66666678 			; <UNDEFINED> instruction: 0x66666678
    289c:	66666666 	strbtvs	r6, [r6], -r6, ror #12
    28a0:	66666666 	strbtvs	r6, [r6], -r6, ror #12
    28a4:	66666666 	strbtvs	r6, [r6], -r6, ror #12
    28a8:	4c4c5566 	cfstr64mi	mvdx5, [ip], {102}	; 0x66
    28ac:	45525f00 	ldrbmi	r5, [r2, #-3840]	; 0xfffff100
    28b0:	5f544e45 	svcpl	0x00544e45
    28b4:	54525453 	ldrbpl	r5, [r2], #-1107	; 0xfffffbad
    28b8:	4c5f4b4f 	mrrcmi	11, 4, r4, pc, cr15	; <UNPREDICTABLE>
    28bc:	28545341 	ldmdacs	r4, {r0, r6, r8, r9, ip, lr}^
    28c0:	29727470 	ldmdbcs	r2!, {r4, r5, r6, sl, ip, sp, lr}^
    28c4:	70282820 	eorvc	r2, r8, r0, lsr #16
    28c8:	2d297274 	sfmcs	f7, 4, [r9, #-464]!	; 0xfffffe30
    28cc:	696d5f3e 	stmdbvs	sp!, {r1, r2, r3, r4, r5, r8, r9, sl, fp, ip, lr}^
    28d0:	3e2d6373 	mcrcc	3, 1, r6, cr13, cr3, {3}
    28d4:	7274735f 	rsbsvc	r7, r4, #2080374785	; 0x7c000001
    28d8:	5f6b6f74 	svcpl	0x006b6f74
    28dc:	7473616c 	ldrbtvc	r6, [r3], #-364	; 0xfffffe94
    28e0:	5f5f0029 	svcpl	0x005f0029
    28e4:	544e4955 	strbpl	r4, [lr], #-2389	; 0xfffff6ab
    28e8:	4d5f3233 	lfmmi	f3, 2, [pc, #-204]	; 2824 <_Min_Stack_Size+0x2424>
    28ec:	5f5f5841 	svcpl	0x005f5841
    28f0:	66783020 	ldrbtvs	r3, [r8], -r0, lsr #32
    28f4:	66666666 	strbtvs	r6, [r6], -r6, ror #12
    28f8:	55666666 	strbpl	r6, [r6, #-1638]!	; 0xfffff99a
    28fc:	415f004c 	cmpmi	pc, ip, asr #32
    2900:	4c494654 	mcrrmi	6, 5, r4, r9, cr4
    2904:	4f535f45 	svcmi	0x00535f45
    2908:	45435255 	strbmi	r5, [r3, #-597]	; 0xfffffdab
    290c:	535f5f00 	cmppl	pc, #0, 30
    2910:	5f434454 	svcpl	0x00434454
    2914:	53524556 	cmppl	r2, #360710144	; 0x15800000
    2918:	5f4e4f49 	svcpl	0x004e4f49
    291c:	3032205f 	eorscc	r2, r2, pc, asr r0
    2920:	32313131 	eorscc	r3, r1, #1073741836	; 0x4000000c
    2924:	5f5f004c 	svcpl	0x005f004c
    2928:	5f544e49 	svcpl	0x00544e49
    292c:	5341454c 	movtpl	r4, #5452	; 0x154c
    2930:	4d5f3854 	ldclmi	8, cr3, [pc, #-336]	; 27e8 <_Min_Stack_Size+0x23e8>
    2934:	5f5f5841 	svcpl	0x005f5841
    2938:	37783020 	ldrbcc	r3, [r8, -r0, lsr #32]!
    293c:	5f5f0066 	svcpl	0x005f0066
    2940:	5f434347 	svcpl	0x00434347
    2944:	4d4f5441 	cfstrdmi	mvd5, [pc, #-260]	; 2848 <_Min_Stack_Size+0x2448>
    2948:	505f4349 	subspl	r4, pc, r9, asr #6
    294c:	544e494f 	strbpl	r4, [lr], #-2383	; 0xfffff6b1
    2950:	4c5f5245 	lfmmi	f5, 2, [pc], {69}	; 0x45
    2954:	5f4b434f 	svcpl	0x004b434f
    2958:	45455246 	strbmi	r5, [r5, #-582]	; 0xfffffdba
    295c:	5f003220 	svcpl	0x00003220
    2960:	4d52415f 	ldfmie	f4, [r2, #-380]	; 0xfffffe84
    2964:	4145465f 	cmpmi	r5, pc, asr r6
    2968:	45525554 	ldrbmi	r5, [r2, #-1364]	; 0xfffffaac
    296c:	4942515f 	stmdbmi	r2, {r0, r1, r2, r3, r4, r6, r8, ip, lr}^
    2970:	00312054 	eorseq	r2, r1, r4, asr r0
    2974:	52415f5f 	subpl	r5, r1, #380	; 0x17c
    2978:	45465f4d 	strbmi	r5, [r6, #-3917]	; 0xfffff0b3
    297c:	52555441 	subspl	r5, r5, #1090519040	; 0x41000000
    2980:	4c435f45 	mcrrmi	15, 4, r5, r3, cr5
    2984:	0031205a 	eorseq	r2, r1, sl, asr r0
    2988:	54415f5f 	strbpl	r5, [r1], #-3935	; 0xfffff0a1
    298c:	43494d4f 	movtmi	r4, #40271	; 0x9d4f
    2990:	5143415f 	cmppl	r3, pc, asr r1
    2994:	45524955 	ldrbmi	r4, [r2, #-2389]	; 0xfffff6ab
    2998:	5f003220 	svcpl	0x00003220
    299c:	4d52415f 	ldfmie	f4, [r2, #-380]	; 0xfffffe84
    29a0:	4145465f 	cmpmi	r5, pc, asr r6
    29a4:	45525554 	ldrbmi	r5, [r2, #-1364]	; 0xfffffaac
    29a8:	4d4f435f 	stclmi	3, cr4, [pc, #-380]	; 2834 <_Min_Stack_Size+0x2434>
    29ac:	58454c50 	stmdapl	r5, {r4, r6, sl, fp, lr}^
    29b0:	736e7500 	cmnvc	lr, #0, 10
    29b4:	656e6769 	strbvs	r6, [lr, #-1897]!	; 0xfffff897
    29b8:	69732064 	ldmdbvs	r3!, {r2, r5, r6, sp}^
    29bc:	64656e67 	strbtvs	r6, [r5], #-3687	; 0xfffff199
    29c0:	415f5f00 	cmpmi	pc, r0, lsl #30
    29c4:	535f4d52 	cmppl	pc, #5248	; 0x1480
    29c8:	4f455a49 	svcmi	0x00455a49
    29cc:	43575f46 	cmpmi	r7, #280	; 0x118
    29d0:	5f524148 	svcpl	0x00524148
    29d4:	00342054 	eorseq	r2, r4, r4, asr r0
    29d8:	4c465f5f 	mcrrmi	15, 5, r5, r6, cr15
    29dc:	58323354 	ldmdapl	r2!, {r2, r4, r6, r8, r9, ip, sp}
    29e0:	58414d5f 	stmdapl	r1, {r0, r1, r2, r3, r4, r6, r8, sl, fp, lr}^
    29e4:	5058455f 	subspl	r4, r8, pc, asr r5
    29e8:	31205f5f 			; <UNDEFINED> instruction: 0x31205f5f
    29ec:	00343230 	eorseq	r3, r4, r0, lsr r2
    29f0:	49555f5f 	ldmdbmi	r5, {r0, r1, r2, r3, r4, r6, r8, r9, sl, fp, ip, lr}^
    29f4:	4c5f544e 	cfldrdmi	mvd5, [pc], {78}	; 0x4e
    29f8:	54534145 	ldrbpl	r4, [r3], #-325	; 0xfffffebb
    29fc:	4d5f3233 	lfmmi	f3, 2, [pc, #-204]	; 2938 <_Min_Stack_Size+0x2538>
    2a00:	5f5f5841 	svcpl	0x005f5841
    2a04:	66783020 	ldrbtvs	r3, [r8], -r0, lsr #32
    2a08:	66666666 	strbtvs	r6, [r6], -r6, ror #12
    2a0c:	55666666 	strbpl	r6, [r6, #-1638]!	; 0xfffff99a
    2a10:	5f5f004c 	svcpl	0x005f004c
    2a14:	5f4c4244 	svcpl	0x004c4244
    2a18:	49535045 	ldmdbmi	r3, {r0, r2, r6, ip, lr}^
    2a1c:	5f4e4f4c 	svcpl	0x004e4f4c
    2a20:	2828205f 	stmdacs	r8!, {r0, r1, r2, r3, r4, r6, sp}
    2a24:	62756f64 	rsbsvs	r6, r5, #100, 30	; 0x190
    2a28:	3229656c 	eorcc	r6, r9, #108, 10	; 0x1b000000
    2a2c:	3032322e 	eorscc	r3, r2, lr, lsr #4
    2a30:	30363434 	eorscc	r3, r6, r4, lsr r4
    2a34:	35323934 	ldrcc	r3, [r2, #-2356]!	; 0xfffff6cc
    2a38:	33313330 	teqcc	r1, #48, 6	; 0xc0000000
    2a3c:	312d6531 			; <UNDEFINED> instruction: 0x312d6531
    2a40:	00294c36 	eoreq	r4, r9, r6, lsr ip
    2a44:	65735f5f 	ldrbvs	r5, [r3, #-3935]!	; 0xfffff0a1
    2a48:	6f697463 	svcvs	0x00697463
    2a4c:	2978286e 	ldmdbcs	r8!, {r1, r2, r3, r5, r6, fp, sp}^
    2a50:	615f5f20 	cmpvs	pc, r0, lsr #30
    2a54:	69727474 	ldmdbvs	r2!, {r2, r4, r5, r6, sl, ip, sp, lr}^
    2a58:	65747562 	ldrbvs	r7, [r4, #-1378]!	; 0xfffffa9e
    2a5c:	28285f5f 	stmdacs	r8!, {r0, r1, r2, r3, r4, r6, r8, r9, sl, fp, ip, lr}
    2a60:	65735f5f 	ldrbvs	r5, [r3, #-3935]!	; 0xfffff0a1
    2a64:	6f697463 	svcvs	0x00697463
    2a68:	285f5f6e 	ldmdacs	pc, {r1, r2, r3, r5, r6, r8, r9, sl, fp, ip, lr}^	; <UNPREDICTABLE>
    2a6c:	29292978 	stmdbcs	r9!, {r3, r4, r5, r6, r8, fp, sp}
    2a70:	415f5f00 	cmpmi	pc, r0, lsl #30
    2a74:	494d4f54 	stmdbmi	sp, {r2, r4, r6, r8, r9, sl, fp, lr}^
    2a78:	4f435f43 	svcmi	0x00435f43
    2a7c:	4d55534e 	ldclmi	3, cr5, [r5, #-312]	; 0xfffffec8
    2a80:	00312045 	eorseq	r2, r1, r5, asr #32
    2a84:	4e495f5f 	mcrmi	15, 2, r5, cr9, cr15, {2}
    2a88:	454c5f54 	strbmi	r5, [ip, #-3924]	; 0xfffff0ac
    2a8c:	36545341 	ldrbcc	r5, [r4], -r1, asr #6
    2a90:	49575f34 	ldmdbmi	r7, {r2, r4, r5, r8, r9, sl, fp, ip, lr}^
    2a94:	5f485444 	svcpl	0x00485444
    2a98:	3436205f 	ldrtcc	r2, [r6], #-95	; 0xffffffa1
    2a9c:	465f5f00 	ldrbmi	r5, [pc], -r0, lsl #30
    2aa0:	485f544c 	ldmdami	pc, {r2, r3, r6, sl, ip, lr}^	; <UNPREDICTABLE>
    2aa4:	495f5341 	ldmdbmi	pc, {r0, r6, r8, r9, ip, lr}^	; <UNPREDICTABLE>
    2aa8:	4e49464e 	cdpmi	6, 4, cr4, cr9, cr14, {2}
    2aac:	5f595449 	svcpl	0x00595449
    2ab0:	0031205f 	eorseq	r2, r1, pc, asr r0
    2ab4:	43415f5f 	movtmi	r5, #8031	; 0x1f5f
    2ab8:	5f4d5543 	svcpl	0x004d5543
    2abc:	5f58414d 	svcpl	0x0058414d
    2ac0:	5830205f 	ldmdapl	r0!, {r0, r1, r2, r3, r4, r6, sp}
    2ac4:	46464637 			; <UNDEFINED> instruction: 0x46464637
    2ac8:	46464646 	strbmi	r4, [r6], -r6, asr #12
    2acc:	35312d50 	ldrcc	r2, [r1, #-3408]!	; 0xfffff2b0
    2ad0:	5f5f004b 	svcpl	0x005f004b
    2ad4:	38544e49 	ldmdacc	r4, {r0, r3, r6, r9, sl, fp, lr}^
    2ad8:	58414d5f 	stmdapl	r1, {r0, r1, r2, r3, r4, r6, r8, sl, fp, lr}^
    2adc:	30205f5f 	eorcc	r5, r0, pc, asr pc
    2ae0:	00663778 	rsbeq	r3, r6, r8, ror r7
    2ae4:	4f4c5f5f 	svcmi	0x004c5f5f
    2ae8:	495f4b43 	ldmdbmi	pc, {r0, r1, r6, r8, r9, fp, lr}^	; <UNPREDICTABLE>
    2aec:	2854494e 	ldmdacs	r4, {r1, r2, r3, r6, r8, fp, lr}^
    2af0:	73616c63 	cmnvc	r1, #25344	; 0x6300
    2af4:	6f6c2c73 	svcvs	0x006c2c73
    2af8:	20296b63 	eorcs	r6, r9, r3, ror #22
    2afc:	65747865 	ldrbvs	r7, [r4, #-2149]!	; 0xfffff79b
    2b00:	73206e72 			; <UNDEFINED> instruction: 0x73206e72
    2b04:	63757274 	cmnvs	r5, #116, 4	; 0x40000007
    2b08:	5f5f2074 	svcpl	0x005f2074
    2b0c:	6b636f6c 	blvs	18de8c4 <_Min_Stack_Size+0x18de4c4>
    2b10:	6c5f5f20 	mrrcvs	15, 2, r5, pc, cr0	; <UNPREDICTABLE>
    2b14:	5f6b636f 	svcpl	0x006b636f
    2b18:	20232320 	eorcs	r2, r3, r0, lsr #6
    2b1c:	6b636f6c 	blvs	18de8d4 <_Min_Stack_Size+0x18de4d4>
    2b20:	6c63203b 	stclvs	0, cr2, [r3], #-236	; 0xffffff14
    2b24:	20737361 	rsbscs	r7, r3, r1, ror #6
    2b28:	434f4c5f 	movtmi	r4, #64607	; 0xfc5f
    2b2c:	20545f4b 	subscs	r5, r4, fp, asr #30
    2b30:	6b636f6c 	blvs	18de8e8 <_Min_Stack_Size+0x18de4e8>
    2b34:	26203d20 	strtcs	r3, [r0], -r0, lsr #26
    2b38:	6f6c5f5f 	svcvs	0x006c5f5f
    2b3c:	205f6b63 	subscs	r6, pc, r3, ror #22
    2b40:	6c202323 	stcvs	3, cr2, [r0], #-140	; 0xffffff74
    2b44:	006b636f 	rsbeq	r6, fp, pc, ror #6
    2b48:	43475f5f 	movtmi	r5, #32607	; 0x7f5f
    2b4c:	41485f43 	cmpmi	r8, r3, asr #30
    2b50:	445f4556 	ldrbmi	r4, [pc], #-1366	; 2b58 <_Min_Stack_Size+0x2758>
    2b54:	46524157 			; <UNDEFINED> instruction: 0x46524157
    2b58:	46435f32 			; <UNDEFINED> instruction: 0x46435f32
    2b5c:	53415f49 	movtpl	r5, #8009	; 0x1f49
    2b60:	0031204d 	eorseq	r2, r1, sp, asr #32
    2b64:	695f5f5f 	ldmdbvs	pc, {r0, r1, r2, r3, r4, r6, r8, r9, sl, fp, ip, lr}^	; <UNPREDICTABLE>
    2b68:	5f38746e 	svcpl	0x0038746e
    2b6c:	65645f74 	strbvs	r5, [r4, #-3956]!	; 0xfffff08c
    2b70:	656e6966 	strbvs	r6, [lr, #-2406]!	; 0xfffff69a
    2b74:	00312064 	eorseq	r2, r1, r4, rrx
    2b78:	46535f5f 	usaxmi	r5, r3, pc	; <UNPREDICTABLE>
    2b7c:	54434152 	strbpl	r4, [r3], #-338	; 0xfffffeae
    2b80:	4e494d5f 	mcrmi	13, 2, r4, cr9, cr15, {2}
    2b84:	28205f5f 	stmdacs	r0!, {r0, r1, r2, r3, r4, r6, r8, r9, sl, fp, ip, lr}
    2b88:	352e302d 	strcc	r3, [lr, #-45]!	; 0xffffffd3
    2b8c:	302d5248 	eorcc	r5, sp, r8, asr #4
    2b90:	5248352e 	subpl	r3, r8, #192937984	; 0xb800000
    2b94:	5f5f0029 	svcpl	0x005f0029
    2b98:	495f4153 	ldmdbmi	pc, {r0, r1, r4, r6, r8, lr}^	; <UNPREDICTABLE>
    2b9c:	5f544942 	svcpl	0x00544942
    2ba0:	3631205f 			; <UNDEFINED> instruction: 0x3631205f
    2ba4:	4c5f5f00 	mrrcmi	15, 0, r5, pc, cr0	; <UNPREDICTABLE>
    2ba8:	5f4c4244 	svcpl	0x004c4244
    2bac:	49434544 	stmdbmi	r3, {r2, r6, r8, sl, lr}^
    2bb0:	5f4c414d 	svcpl	0x004c414d
    2bb4:	5f474944 	svcpl	0x00474944
    2bb8:	3731205f 			; <UNDEFINED> instruction: 0x3731205f
    2bbc:	6f5f5f00 	svcvs	0x005f5f00
    2bc0:	65736666 	ldrbvs	r6, [r3, #-1638]!	; 0xfffff99a
    2bc4:	28666f74 	stmdacs	r6!, {r2, r4, r5, r6, r8, r9, sl, fp, sp, lr}^
    2bc8:	65707974 	ldrbvs	r7, [r0, #-2420]!	; 0xfffff68c
    2bcc:	6569662c 	strbvs	r6, [r9, #-1580]!	; 0xfffff9d4
    2bd0:	2029646c 	eorcs	r6, r9, ip, ror #8
    2bd4:	7366666f 	cmnvc	r6, #116391936	; 0x6f00000
    2bd8:	666f7465 	strbtvs	r7, [pc], -r5, ror #8
    2bdc:	70797428 	rsbsvc	r7, r9, r8, lsr #8
    2be0:	66202c65 	strtvs	r2, [r0], -r5, ror #24
    2be4:	646c6569 	strbtvs	r6, [ip], #-1385	; 0xfffffa97
    2be8:	5f5f0029 	svcpl	0x005f0029
    2bec:	5f434347 	svcpl	0x00434347
    2bf0:	5f434549 	svcpl	0x00434549
    2bf4:	5f393535 	svcpl	0x00393535
    2bf8:	504d4f43 	subpl	r4, sp, r3, asr #30
    2bfc:	2058454c 	subscs	r4, r8, ip, asr #10
    2c00:	5f5f0030 	svcpl	0x005f0030
    2c04:	5f4d5241 	svcpl	0x004d5241
    2c08:	54414546 	strbpl	r4, [r1], #-1350	; 0xfffffaba
    2c0c:	5f455255 	svcpl	0x00455255
    2c10:	0045564d 	subeq	r5, r5, sp, asr #12
    2c14:	6f6e5f5f 	svcvs	0x006e5f5f
    2c18:	6c756e6e 	ldclvs	14, cr6, [r5], #-440	; 0xfffffe48
    2c1c:	6c615f6c 	stclvs	15, cr5, [r1], #-432	; 0xfffffe50
    2c20:	5f5f206c 	svcpl	0x005f206c
    2c24:	72747461 	rsbsvc	r7, r4, #1627389952	; 0x61000000
    2c28:	74756269 	ldrbtvc	r6, [r5], #-617	; 0xfffffd97
    2c2c:	285f5f65 	ldmdacs	pc, {r0, r2, r5, r6, r8, r9, sl, fp, ip, lr}^	; <UNPREDICTABLE>
    2c30:	6e5f5f28 	cdpvs	15, 5, cr5, cr15, cr8, {1}
    2c34:	756e6e6f 	strbvc	r6, [lr, #-3695]!	; 0xfffff191
    2c38:	5f5f6c6c 	svcpl	0x005f6c6c
    2c3c:	5f002929 	svcpl	0x00002929
    2c40:	4d52415f 	ldfmie	f4, [r2, #-380]	; 0xfffffe84
    2c44:	3150465f 	cmpcc	r0, pc, asr r6
    2c48:	4f465f36 	svcmi	0x00465f36
    2c4c:	54414d52 	strbpl	r4, [r1], #-3410	; 0xfffff2ae
    2c50:	4545495f 	strbmi	r4, [r5, #-2399]	; 0xfffff6a1
    2c54:	5f5f0045 	svcpl	0x005f0045
    2c58:	544e4955 	strbpl	r4, [lr], #-2389	; 0xfffff6ab
    2c5c:	545f3631 	ldrbpl	r3, [pc], #-1585	; 2c64 <_Min_Stack_Size+0x2864>
    2c60:	5f455059 	svcpl	0x00455059
    2c64:	6873205f 	ldmdavs	r3!, {r0, r1, r2, r3, r4, r6, sp}^
    2c68:	2074726f 	rsbscs	r7, r4, pc, ror #4
    2c6c:	69736e75 	ldmdbvs	r3!, {r0, r2, r4, r5, r6, r9, sl, fp, sp, lr}^
    2c70:	64656e67 	strbtvs	r6, [r5], #-3687	; 0xfffff199
    2c74:	746e6920 	strbtvc	r6, [lr], #-2336	; 0xfffff6e0
    2c78:	4f505f00 	svcmi	0x00505f00
    2c7c:	5f584953 	svcpl	0x00584953
    2c80:	52554f53 	subspl	r4, r5, #332	; 0x14c
    2c84:	5f004543 	svcpl	0x00004543
    2c88:	4e454552 	mcrmi	5, 2, r4, cr5, cr2, {2}
    2c8c:	52455f54 	subpl	r5, r5, #84, 30	; 0x150
    2c90:	284f4e52 	stmdacs	pc, {r1, r4, r6, r9, sl, fp, lr}^	; <UNPREDICTABLE>
    2c94:	7274705f 	rsbsvc	r7, r4, #95	; 0x5f
    2c98:	28282029 	stmdacs	r8!, {r0, r3, r5, sp}
    2c9c:	7274705f 	rsbsvc	r7, r4, #95	; 0x5f
    2ca0:	5f3e2d29 	svcpl	0x003e2d29
    2ca4:	6e727265 	cdpvs	2, 7, cr7, cr2, cr5, {3}
    2ca8:	5f00296f 	svcpl	0x0000296f
    2cac:	4e454552 	mcrmi	5, 2, r4, cr5, cr2, {2}
    2cb0:	4d545f54 	ldclmi	15, cr5, [r4, #-336]	; 0xfffffeb0
    2cb4:	72747028 	rsbsvc	r7, r4, #40	; 0x28
    2cb8:	28282029 	stmdacs	r8!, {r0, r3, r5, sp}
    2cbc:	29727470 	ldmdbcs	r2!, {r4, r5, r6, sl, ip, sp, lr}^
    2cc0:	6c5f3e2d 	mrrcvs	14, 2, r3, pc, cr13	; <UNPREDICTABLE>
    2cc4:	6c61636f 	stclvs	3, cr6, [r1], #-444	; 0xfffffe44
    2cc8:	656d6974 	strbvs	r6, [sp, #-2420]!	; 0xfffff68c
    2ccc:	6675625f 			; <UNDEFINED> instruction: 0x6675625f
    2cd0:	545f0029 	ldrbpl	r0, [pc], #-41	; 2cd8 <_Min_Stack_Size+0x28d8>
    2cd4:	5a49535f 	bpl	1257a58 <_Min_Stack_Size+0x1257658>
    2cd8:	00205f45 	eoreq	r5, r0, r5, asr #30
    2cdc:	4c465f5f 	mcrrmi	15, 5, r5, r6, cr15
    2ce0:	56455f54 			; <UNDEFINED> instruction: 0x56455f54
    2ce4:	4d5f4c41 	ldclmi	12, cr4, [pc, #-260]	; 2be8 <_Min_Stack_Size+0x27e8>
    2ce8:	4f485445 	svcmi	0x00485445
    2cec:	53545f44 	cmppl	r4, #68, 30	; 0x110
    2cf0:	3638315f 			; <UNDEFINED> instruction: 0x3638315f
    2cf4:	335f3136 	cmpcc	pc, #-2147483635	; 0x8000000d
    2cf8:	30205f5f 	eorcc	r5, r0, pc, asr pc
    2cfc:	615f5f00 	cmpvs	pc, r0, lsl #30
    2d00:	69727474 	ldmdbvs	r2!, {r2, r4, r5, r6, sl, ip, sp, lr}^
    2d04:	65747562 	ldrbvs	r7, [r4, #-1378]!	; 0xfffffa9e
    2d08:	6c616d5f 	stclvs	13, cr6, [r1], #-380	; 0xfffffe84
    2d0c:	5f636f6c 	svcpl	0x00636f6c
    2d10:	5f00205f 	svcpl	0x0000205f
    2d14:	4843535f 	stmdami	r3, {r0, r1, r2, r3, r4, r6, r8, r9, ip, lr}^
    2d18:	575f5241 	ldrbpl	r5, [pc, -r1, asr #4]
    2d1c:	48544449 	ldmdami	r4, {r0, r3, r6, sl, lr}^
    2d20:	38205f5f 	stmdacc	r0!, {r0, r1, r2, r3, r4, r6, r8, r9, sl, fp, ip, lr}
    2d24:	4d545300 	ldclmi	3, cr5, [r4, #-0]
    2d28:	34463233 	strbcc	r3, [r6], #-563	; 0xfffffdcd
    2d2c:	47563730 	smmlarmi	r6, r0, r7, r3
    2d30:	31207854 			; <UNDEFINED> instruction: 0x31207854
    2d34:	45525f00 	ldrbmi	r5, [r2, #-3840]	; 0xfffff100
    2d38:	5f544e45 	svcpl	0x00544e45
    2d3c:	4c544547 	cfldr64mi	mvdx4, [r4], {71}	; 0x47
    2d40:	4c41434f 	mcrrmi	3, 4, r4, r1, cr15
    2d44:	4d414e45 	stclmi	14, cr4, [r1, #-276]	; 0xfffffeec
    2d48:	5f4c5f45 	svcpl	0x004c5f45
    2d4c:	28465542 	stmdacs	r6, {r1, r6, r8, sl, ip, lr}^
    2d50:	29727470 	ldmdbcs	r2!, {r4, r5, r6, sl, ip, sp, lr}^
    2d54:	70282820 	eorvc	r2, r8, r0, lsr #16
    2d58:	2d297274 	sfmcs	f7, 4, [r9, #-464]!	; 0xfffffe30
    2d5c:	696d5f3e 	stmdbvs	sp!, {r1, r2, r3, r4, r5, r8, r9, sl, fp, ip, lr}^
    2d60:	3e2d6373 	mcrcc	3, 1, r6, cr13, cr3, {3}
    2d64:	7465675f 	strbtvc	r6, [r5], #-1887	; 0xfffff8a1
    2d68:	61636f6c 	cmnvs	r3, ip, ror #30
    2d6c:	616e656c 	cmnvs	lr, ip, ror #10
    2d70:	6c5f656d 	cfldr64vs	mvdx6, [pc], {109}	; 0x6d
    2d74:	6675625f 			; <UNDEFINED> instruction: 0x6675625f
    2d78:	5f5f0029 	svcpl	0x005f0029
    2d7c:	544e4955 	strbpl	r4, [lr], #-2389	; 0xfffff6ab
    2d80:	5341465f 	movtpl	r4, #5727	; 0x165f
    2d84:	545f3854 	ldrbpl	r3, [pc], #-2132	; 2d8c <_Min_Stack_Size+0x298c>
    2d88:	5f455059 	svcpl	0x00455059
    2d8c:	6e75205f 	mrcvs	0, 3, r2, cr5, cr15, {2}
    2d90:	6e676973 			; <UNDEFINED> instruction: 0x6e676973
    2d94:	69206465 	stmdbvs	r0!, {r0, r2, r5, r6, sl, sp, lr}
    2d98:	5f00746e 	svcpl	0x0000746e
    2d9c:	414c4c5f 	cmpmi	ip, pc, asr ip
    2da0:	4d554343 	ldclmi	3, cr4, [r5, #-268]	; 0xfffffef4
    2da4:	4942495f 	stmdbmi	r2, {r0, r1, r2, r3, r4, r6, r8, fp, lr}^
    2da8:	205f5f54 	subscs	r5, pc, r4, asr pc	; <UNPREDICTABLE>
    2dac:	5f003233 	svcpl	0x00003233
    2db0:	4152465f 	cmpmi	r2, pc, asr r6
    2db4:	455f5443 	ldrbmi	r5, [pc, #-1091]	; 2979 <_Min_Stack_Size+0x2579>
    2db8:	4c495350 	mcrrmi	3, 5, r5, r9, cr0
    2dbc:	5f5f4e4f 	svcpl	0x005f4e4f
    2dc0:	31783020 	cmncc	r8, r0, lsr #32
    2dc4:	35312d50 	ldrcc	r2, [r1, #-3408]!	; 0xfffff2b0
    2dc8:	5f5f0052 	svcpl	0x005f0052
    2dcc:	33544e49 	cmpcc	r4, #1168	; 0x490
    2dd0:	414d5f32 	cmpmi	sp, r2, lsr pc
    2dd4:	205f5f58 	subscs	r5, pc, r8, asr pc	; <UNPREDICTABLE>
    2dd8:	66377830 			; <UNDEFINED> instruction: 0x66377830
    2ddc:	66666666 	strbtvs	r6, [r6], -r6, ror #12
    2de0:	004c6666 	subeq	r6, ip, r6, ror #12
    2de4:	4553555f 	ldrbmi	r5, [r3, #-1375]	; 0xfffffaa1
    2de8:	5444475f 	strbpl	r4, [r4], #-1887	; 0xfffff8a1
    2dec:	0020414f 	eoreq	r4, r0, pc, asr #2
    2df0:	696d5f5f 	stmdbvs	sp!, {r0, r1, r2, r3, r4, r6, r8, r9, sl, fp, ip, lr}^
    2df4:	69735f6e 	ldmdbvs	r3!, {r1, r2, r3, r5, r6, r8, r9, sl, fp, ip, lr}^
    2df8:	7828657a 	stmdavc	r8!, {r1, r3, r4, r5, r6, r8, sl, sp, lr}
    2dfc:	74732029 	ldrbtvc	r2, [r3], #-41	; 0xffffffd7
    2e00:	63697461 	cmnvs	r9, #1627389952	; 0x61000000
    2e04:	29782820 	ldmdbcs	r8!, {r5, fp, sp}^
    2e08:	475f5f00 	ldrbmi	r5, [pc, -r0, lsl #30]
    2e0c:	545f5858 	ldrbpl	r5, [pc], #-2136	; 2e14 <_Min_Stack_Size+0x2a14>
    2e10:	49455059 	stmdbmi	r5, {r0, r3, r4, r6, ip, lr}^
    2e14:	5f4f464e 	svcpl	0x004f464e
    2e18:	41555145 	cmpmi	r5, r5, asr #2
    2e1c:	5954494c 	ldmdbpl	r4, {r2, r3, r6, r8, fp, lr}^
    2e20:	4c4e495f 	mcrrmi	9, 5, r4, lr, cr15	; <UNPREDICTABLE>
    2e24:	20454e49 	subcs	r4, r5, r9, asr #28
    2e28:	525f0030 	subspl	r0, pc, #48	; 0x30
    2e2c:	544e4545 	strbpl	r4, [lr], #-1349	; 0xfffffabb
    2e30:	4548435f 	strbmi	r4, [r8, #-863]	; 0xfffffca1
    2e34:	545f4b43 	ldrbpl	r4, [pc], #-2883	; 2e3c <_Min_Stack_Size+0x2a3c>
    2e38:	6176284d 	cmnvs	r6, sp, asr #16
    2e3c:	5f202972 	svcpl	0x00202972
    2e40:	4e454552 	mcrmi	5, 2, r4, cr5, cr2, {2}
    2e44:	48435f54 	stmdami	r3, {r2, r4, r6, r8, r9, sl, fp, ip, lr}^
    2e48:	284b4345 	stmdacs	fp, {r0, r2, r6, r8, r9, lr}^
    2e4c:	2c726176 	ldfcse	f6, [r2], #-472	; 0xfffffe28
    2e50:	6f6c5f20 	svcvs	0x006c5f20
    2e54:	746c6163 	strbtvc	r6, [ip], #-355	; 0xfffffe9d
    2e58:	5f656d69 	svcpl	0x00656d69
    2e5c:	2c667562 	cfstr64cs	mvdx7, [r6], #-392	; 0xfffffe78
    2e60:	72747320 	rsbsvc	r7, r4, #32, 6	; 0x80000000
    2e64:	20746375 	rsbscs	r6, r4, r5, ror r3
    2e68:	6d745f5f 	ldclvs	15, cr5, [r4, #-380]!	; 0xfffffe84
    2e6c:	202c2a20 	eorcs	r2, ip, r0, lsr #20
    2e70:	657a6973 	ldrbvs	r6, [sl, #-2419]!	; 0xfffff68d
    2e74:	2a20666f 	bcs	81c838 <_Min_Stack_Size+0x81c438>
    2e78:	61762828 	cmnvs	r6, r8, lsr #16
    2e7c:	3e2d2972 			; <UNDEFINED> instruction: 0x3e2d2972
    2e80:	636f6c5f 	cmnvs	pc, #24320	; 0x5f00
    2e84:	69746c61 	ldmdbvs	r4!, {r0, r5, r6, sl, fp, sp, lr}^
    2e88:	625f656d 	subsvs	r6, pc, #457179136	; 0x1b400000
    2e8c:	2c296675 	stccs	6, cr6, [r9], #-468	; 0xfffffe2c
    2e90:	5f002920 	svcpl	0x00002920
    2e94:	544e495f 	strbpl	r4, [lr], #-2399	; 0xfffff6a1
    2e98:	41454c5f 	cmpmi	r5, pc, asr ip
    2e9c:	34365453 	ldrtcc	r5, [r6], #-1107	; 0xfffffbad
    2ea0:	58414d5f 	stmdapl	r1, {r0, r1, r2, r3, r4, r6, r8, sl, fp, lr}^
    2ea4:	30205f5f 	eorcc	r5, r0, pc, asr pc
    2ea8:	66663778 			; <UNDEFINED> instruction: 0x66663778
    2eac:	66666666 	strbtvs	r6, [r6], -r6, ror #12
    2eb0:	66666666 	strbtvs	r6, [r6], -r6, ror #12
    2eb4:	66666666 	strbtvs	r6, [r6], -r6, ror #12
    2eb8:	004c4c66 	subeq	r4, ip, r6, ror #24
    2ebc:	756e5f5f 	strbvc	r5, [lr, #-3935]!	; 0xfffff0a1
    2ec0:	735f6c6c 	cmpvc	pc, #108, 24	; 0x6c00
    2ec4:	69746e65 	ldmdbvs	r4!, {r0, r2, r5, r6, r9, sl, fp, sp, lr}^
    2ec8:	206c656e 	rsbcs	r6, ip, lr, ror #10
    2ecc:	74615f5f 	strbtvc	r5, [r1], #-3935	; 0xfffff0a1
    2ed0:	62697274 	rsbvs	r7, r9, #116, 4	; 0x40000007
    2ed4:	5f657475 	svcpl	0x00657475
    2ed8:	5f28285f 	svcpl	0x0028285f
    2edc:	6e65735f 	mcrvs	3, 3, r7, cr5, cr15, {2}
    2ee0:	656e6974 	strbvs	r6, [lr, #-2420]!	; 0xfffff68c
    2ee4:	295f5f6c 	ldmdbcs	pc, {r2, r3, r5, r6, r8, r9, sl, fp, ip, lr}^	; <UNPREDICTABLE>
    2ee8:	5f5f0029 	svcpl	0x005f0029
    2eec:	5f4d5241 	svcpl	0x004d5241
    2ef0:	54414546 	strbpl	r4, [r1], #-1350	; 0xfffffaba
    2ef4:	5f455255 	svcpl	0x00455255
    2ef8:	36314642 	ldrtcc	r4, [r1], -r2, asr #12
    2efc:	4345565f 	movtmi	r5, #22111	; 0x565f
    2f00:	5f524f54 	svcpl	0x00524f54
    2f04:	54495241 	strbpl	r5, [r9], #-577	; 0xfffffdbf
    2f08:	54454d48 	strbpl	r4, [r5], #-3400	; 0xfffff2b8
    2f0c:	5f004349 	svcpl	0x00004349
    2f10:	65656e5f 	strbvs	r6, [r5, #-3679]!	; 0xfffff1a1
    2f14:	554e5f64 	strbpl	r5, [lr, #-3940]	; 0xfffff09c
    2f18:	00204c4c 	eoreq	r4, r0, ip, asr #24
    2f1c:	4645445f 			; <UNDEFINED> instruction: 0x4645445f
    2f20:	544c5541 	strbpl	r5, [ip], #-1345	; 0xfffffabf
    2f24:	554f535f 	strbpl	r5, [pc, #-863]	; 2bcd <_Min_Stack_Size+0x27cd>
    2f28:	20454352 	subcs	r4, r5, r2, asr r3
    2f2c:	5f5f0031 	svcpl	0x005f0031
    2f30:	33544c46 	cmpcc	r4, #17920	; 0x4600
    2f34:	414d5f32 	cmpmi	sp, r2, lsr pc
    2f38:	445f544e 	ldrbmi	r5, [pc], #-1102	; 2f40 <_Min_Stack_Size+0x2b40>
    2f3c:	5f5f4749 	svcpl	0x005f4749
    2f40:	00343220 	eorseq	r3, r4, r0, lsr #4
    2f44:	4c535f5f 	mrrcmi	15, 5, r5, r3, cr15
    2f48:	30204642 	eorcc	r4, r0, r2, asr #12
    2f4c:	30303078 	eorscc	r3, r0, r8, ror r0
    2f50:	5f5f0031 	svcpl	0x005f0031
    2f54:	33544c46 	cmpcc	r4, #17920	; 0x4600
    2f58:	45445f32 	strbmi	r5, [r4, #-3890]	; 0xfffff0ce
    2f5c:	4d524f4e 	ldclmi	15, cr4, [r2, #-312]	; 0xfffffec8
    2f60:	4e494d5f 	mcrmi	13, 2, r4, cr9, cr15, {2}
    2f64:	31205f5f 			; <UNDEFINED> instruction: 0x31205f5f
    2f68:	3130342e 	teqcc	r0, lr, lsr #8
    2f6c:	34383932 	ldrtcc	r3, [r8], #-2354	; 0xfffff6ce
    2f70:	32333436 	eorscc	r3, r3, #905969664	; 0x36000000
    2f74:	37313834 			; <UNDEFINED> instruction: 0x37313834
    2f78:	342d6531 	strtcc	r6, [sp], #-1329	; 0xfffffacf
    2f7c:	32334635 	eorscc	r4, r3, #55574528	; 0x3500000
    2f80:	66666f00 	strbtvs	r6, [r6], -r0, lsl #30
    2f84:	6f746573 	svcvs	0x00746573
    2f88:	59542866 	ldmdbpl	r4, {r1, r2, r5, r6, fp, sp}^
    2f8c:	4d2c4550 	cfstr32mi	mvfx4, [ip, #-320]!	; 0xfffffec0
    2f90:	45424d45 	strbmi	r4, [r2, #-3397]	; 0xfffff2bb
    2f94:	5f202952 	svcpl	0x00202952
    2f98:	6975625f 	ldmdbvs	r5!, {r0, r1, r2, r3, r4, r6, r9, sp, lr}^
    2f9c:	6e69746c 	cdpvs	4, 6, cr7, cr9, cr12, {3}
    2fa0:	66666f5f 	uqsaxvs	r6, r6, pc	; <UNPREDICTABLE>
    2fa4:	6f746573 	svcvs	0x00746573
    2fa8:	54282066 	strtpl	r2, [r8], #-102	; 0xffffff9a
    2fac:	2c455059 	mcrrcs	0, 5, r5, r5, cr9
    2fb0:	4d454d20 	stclmi	13, cr4, [r5, #-128]	; 0xffffff80
    2fb4:	29524542 	ldmdbcs	r2, {r1, r6, r8, sl, lr}^
    2fb8:	555f5f00 	ldrbpl	r5, [pc, #-3840]	; 20c0 <_Min_Stack_Size+0x1cc0>
    2fbc:	36544e49 	ldrbcc	r4, [r4], -r9, asr #28
    2fc0:	28435f34 	stmdacs	r3, {r2, r4, r5, r8, r9, sl, fp, ip, lr}^
    2fc4:	63202963 			; <UNDEFINED> instruction: 0x63202963
    2fc8:	20232320 	eorcs	r2, r3, r0, lsr #6
    2fcc:	004c4c55 	subeq	r4, ip, r5, asr ip
    2fd0:	49555f5f 	ldmdbmi	r5, {r0, r1, r2, r3, r4, r6, r8, r9, sl, fp, ip, lr}^
    2fd4:	4c5f544e 	cfldrdmi	mvd5, [pc], {78}	; 0x4e
    2fd8:	54534145 	ldrbpl	r4, [r3], #-325	; 0xfffffebb
    2fdc:	545f3436 	ldrbpl	r3, [pc], #-1078	; 2fe4 <_Min_Stack_Size+0x2be4>
    2fe0:	5f455059 	svcpl	0x00455059
    2fe4:	6f6c205f 	svcvs	0x006c205f
    2fe8:	6c20676e 	stcvs	7, cr6, [r0], #-440	; 0xfffffe48
    2fec:	20676e6f 	rsbcs	r6, r7, pc, ror #28
    2ff0:	69736e75 	ldmdbvs	r3!, {r0, r2, r4, r5, r6, r9, sl, fp, sp, lr}^
    2ff4:	64656e67 	strbtvs	r6, [r5], #-3687	; 0xfffff199
    2ff8:	746e6920 	strbtvc	r6, [lr], #-2336	; 0xfffff6e0
    2ffc:	415f5f00 	cmpmi	pc, r0, lsl #30
    3000:	465f4d52 			; <UNDEFINED> instruction: 0x465f4d52
    3004:	55544145 	ldrbpl	r4, [r4, #-325]	; 0xfffffebb
    3008:	415f4552 	cmpmi	pc, r2, asr r5	; <UNPREDICTABLE>
    300c:	5f005345 	svcpl	0x00005345
    3010:	42444c5f 	submi	r4, r4, #24320	; 0x5f00
    3014:	50455f4c 	subpl	r5, r5, ip, asr #30
    3018:	4f4c4953 	svcmi	0x004c4953
    301c:	205f5f4e 	subscs	r5, pc, lr, asr #30
    3020:	32322e32 	eorscc	r2, r2, #800	; 0x320
    3024:	36343430 			; <UNDEFINED> instruction: 0x36343430
    3028:	32393430 	eorscc	r3, r9, #48, 8	; 0x30000000
    302c:	31333035 	teqcc	r3, r5, lsr r0
    3030:	2d653133 	stfcse	f3, [r5, #-204]!	; 0xffffff34
    3034:	004c3631 	subeq	r3, ip, r1, lsr r6
    3038:	75705f5f 	ldrbvc	r5, [r0, #-3935]!	; 0xfffff0a1
    303c:	20326572 	eorscs	r6, r2, r2, ror r5
    3040:	74615f5f 	strbtvc	r5, [r1], #-3935	; 0xfffff0a1
    3044:	62697274 	rsbvs	r7, r9, #116, 4	; 0x40000007
    3048:	5f657475 	svcpl	0x00657475
    304c:	5f28285f 	svcpl	0x0028285f
    3050:	6e6f635f 	mcrvs	3, 3, r6, cr15, cr15, {2}
    3054:	5f5f7473 	svcpl	0x005f7473
    3058:	5f002929 	svcpl	0x00002929
    305c:	4343475f 	movtmi	r4, #14175	; 0x375f
    3060:	4f54415f 	svcmi	0x0054415f
    3064:	5f43494d 	svcpl	0x0043494d
    3068:	52414843 	subpl	r4, r1, #4390912	; 0x430000
    306c:	545f3631 	ldrbpl	r3, [pc], #-1585	; 3074 <_Min_Stack_Size+0x2c74>
    3070:	434f4c5f 	movtmi	r4, #64607	; 0xfc5f
    3074:	52465f4b 	subpl	r5, r6, #300	; 0x12c
    3078:	32204545 	eorcc	r4, r0, #289406976	; 0x11400000
    307c:	4e5f5f00 	cdpmi	15, 5, cr5, cr15, cr0, {0}
    3080:	414c4c55 	cmpmi	ip, r5, asr ip
    3084:	494c4942 	stmdbmi	ip, {r1, r6, r8, fp, lr}^
    3088:	505f5954 	subspl	r5, pc, r4, asr r9	; <UNPREDICTABLE>
    308c:	4d474152 	stfmie	f4, [r7, #-328]	; 0xfffffeb8
    3090:	55505f41 	ldrbpl	r5, [r0, #-3905]	; 0xfffff0bf
    3094:	00204853 	eoreq	r4, r0, r3, asr r8
    3098:	42445f5f 	submi	r5, r4, #380	; 0x17c
    309c:	414d5f4c 	cmpmi	sp, ip, asr #30
    30a0:	58455f58 	stmdapl	r5, {r3, r4, r6, r8, r9, sl, fp, ip, lr}^
    30a4:	205f5f50 	subscs	r5, pc, r0, asr pc	; <UNPREDICTABLE>
    30a8:	34323031 	ldrtcc	r3, [r2], #-49	; 0xffffffcf
    30ac:	415f5f00 	cmpmi	pc, r0, lsl #30
    30b0:	494d4f54 	stmdbmi	sp, {r2, r4, r6, r8, r9, sl, fp, lr}^
    30b4:	45525f43 	ldrbmi	r5, [r2, #-3907]	; 0xfffff0bd
    30b8:	5341454c 	movtpl	r4, #5452	; 0x154c
    30bc:	00332045 	eorseq	r2, r3, r5, asr #32
    30c0:	4c465f5f 	mcrrmi	15, 5, r5, r6, cr15
    30c4:	58323354 	ldmdapl	r2!, {r2, r4, r6, r8, r9, ip, sp}
    30c8:	5341485f 	movtpl	r4, #6239	; 0x185f
    30cc:	4e45445f 	mcrmi	4, 2, r4, cr5, cr15, {2}
    30d0:	5f4d524f 	svcpl	0x004d524f
    30d4:	0031205f 	eorseq	r2, r1, pc, asr r0
    30d8:	4c465f5f 	mcrrmi	15, 5, r5, r6, cr15
    30dc:	414d5f54 	cmpmi	sp, r4, asr pc
    30e0:	445f544e 	ldrbmi	r5, [pc], #-1102	; 30e8 <_Min_Stack_Size+0x2ce8>
    30e4:	5f5f4749 	svcpl	0x005f4749
    30e8:	00343220 	eorseq	r3, r4, r0, lsr #4
    30ec:	4e41525f 	mcrmi	2, 2, r5, cr1, cr15, {2}
    30f0:	5f383444 	svcpl	0x00383444
    30f4:	44454553 	strbmi	r4, [r5], #-1363	; 0xfffffaad
    30f8:	2820315f 	stmdacs	r0!, {r0, r1, r2, r3, r4, r6, r8, ip, sp}
    30fc:	62617830 	rsbvs	r7, r1, #48, 16	; 0x300000
    3100:	00296463 	eoreq	r6, r9, r3, ror #8
    3104:	44555f5f 	ldrbmi	r5, [r5], #-3935	; 0xfffff0a1
    3108:	42495f51 	submi	r5, r9, #324	; 0x144
    310c:	5f5f5449 	svcpl	0x005f5449
    3110:	5f003020 	svcpl	0x00003020
    3114:	4c57454e 	cfldr64mi	mvdx4, [r7], {78}	; 0x4e
    3118:	535f4249 	cmppl	pc, #-1879048188	; 0x90000004
    311c:	4f494454 	svcmi	0x00494454
    3120:	0020485f 	eoreq	r4, r0, pc, asr r8
    3124:	695f5f5f 	ldmdbvs	pc, {r0, r1, r2, r3, r4, r6, r8, r9, sl, fp, ip, lr}^	; <UNPREDICTABLE>
    3128:	705f746e 	subsvc	r7, pc, lr, ror #8
    312c:	69647274 	stmdbvs	r4!, {r2, r4, r5, r6, r9, ip, sp, lr}^
    3130:	745f6666 	ldrbvc	r6, [pc], #-1638	; 3138 <_Min_Stack_Size+0x2d38>
    3134:	0020685f 	eoreq	r6, r0, pc, asr r8
    3138:	4545525f 	strbmi	r5, [r5, #-607]	; 0xfffffda1
    313c:	435f544e 	cmpmi	pc, #1308622848	; 0x4e000000
    3140:	4e41454c 	cdpmi	5, 4, cr4, cr1, cr12, {2}
    3144:	5f285055 	svcpl	0x00285055
    3148:	29727470 	ldmdbcs	r2!, {r4, r5, r6, sl, ip, sp, lr}^
    314c:	5f282820 	svcpl	0x00282820
    3150:	29727470 	ldmdbcs	r2!, {r4, r5, r6, sl, ip, sp, lr}^
    3154:	5f5f3e2d 	svcpl	0x005f3e2d
    3158:	61656c63 	cmnvs	r5, r3, ror #24
    315c:	2970756e 	ldmdbcs	r0!, {r1, r2, r3, r5, r6, r8, sl, ip, sp, lr}^
    3160:	555f5f00 	ldrbpl	r5, [pc, #-3840]	; 2268 <_Min_Stack_Size+0x1e68>
    3164:	55434341 	strbpl	r4, [r3, #-833]	; 0xfffffcbf
    3168:	414d5f4d 	cmpmi	sp, sp, asr #30
    316c:	205f5f58 	subscs	r5, pc, r8, asr pc	; <UNPREDICTABLE>
    3170:	46465830 			; <UNDEFINED> instruction: 0x46465830
    3174:	46464646 	strbmi	r4, [r6], -r6, asr #12
    3178:	2d504646 	ldclcs	6, cr4, [r0, #-280]	; 0xfffffee8
    317c:	4b553631 	blmi	1550a48 <_Min_Stack_Size+0x1550648>
    3180:	435f5f00 	cmpmi	pc, #0, 30
    3184:	55535f43 	ldrbpl	r5, [r3, #-3907]	; 0xfffff0bd
    3188:	524f5050 	subpl	r5, pc, #80	; 0x50
    318c:	5f5f5354 	svcpl	0x005f5354
    3190:	4e55465f 	mrcmi	6, 2, r4, cr5, cr15, {2}
    3194:	205f5f43 	subscs	r5, pc, r3, asr #30
    3198:	5f5f0031 	svcpl	0x005f0031
    319c:	36544c46 	ldrbcc	r4, [r4], -r6, asr #24
    31a0:	4f4e5f34 	svcmi	0x004e5f34
    31a4:	4d5f4d52 	ldclmi	13, cr4, [pc, #-328]	; 3064 <_Min_Stack_Size+0x2c64>
    31a8:	5f5f5841 	svcpl	0x005f5841
    31ac:	372e3120 	strcc	r3, [lr, -r0, lsr #2]!
    31b0:	39363739 	ldmdbcc	r6!, {r0, r3, r4, r5, r8, r9, sl, ip, sp}
    31b4:	34333133 	ldrtcc	r3, [r3], #-307	; 0xfffffecd
    31b8:	33323638 	teqcc	r2, #56, 12	; 0x3800000
    31bc:	65373531 	ldrvs	r3, [r7, #-1329]!	; 0xfffffacf
    31c0:	3830332b 	ldmdacc	r0!, {r0, r1, r3, r5, r8, r9, ip, sp}
    31c4:	00343646 	eorseq	r3, r4, r6, asr #12
    31c8:	4e475f5f 	mcrmi	15, 2, r5, cr7, cr15, {2}
    31cc:	494c4355 	stmdbmi	ip, {r0, r2, r4, r6, r8, r9, lr}^
    31d0:	4d5f454b 	cfldr64mi	mvdx4, [pc, #-300]	; 30ac <_Min_Stack_Size+0x2cac>
    31d4:	5f485441 	svcpl	0x00485441
    31d8:	4c495542 	cfstr64mi	mvdx5, [r9], {66}	; 0x42
    31dc:	5f4e4954 	svcpl	0x004e4954
    31e0:	534e4f43 	movtpl	r4, #61251	; 0xef43
    31e4:	544e4154 	strbpl	r4, [lr], #-340	; 0xfffffeac
    31e8:	5f002053 	svcpl	0x00002053
    31ec:	4e454552 	mcrmi	5, 2, r4, cr5, cr2, {2}
    31f0:	53415f54 	movtpl	r5, #8020	; 0x1f54
    31f4:	4d495443 	cfstrdmi	mvd5, [r9, #-268]	; 0xfffffef4
    31f8:	55425f45 	strbpl	r5, [r2, #-3909]	; 0xfffff0bb
    31fc:	74702846 	ldrbtvc	r2, [r0], #-2118	; 0xfffff7ba
    3200:	28202972 	stmdacs	r0!, {r1, r4, r5, r6, r8, fp, sp}
    3204:	72747028 	rsbsvc	r7, r4, #40	; 0x28
    3208:	5f3e2d29 	svcpl	0x003e2d29
    320c:	74637361 	strbtvc	r7, [r3], #-865	; 0xfffffc9f
    3210:	5f656d69 	svcpl	0x00656d69
    3214:	29667562 	stmdbcs	r6!, {r1, r5, r6, r8, sl, ip, sp, lr}^
    3218:	5f545f00 	svcpl	0x00545f00
    321c:	44525450 	ldrbmi	r5, [r2], #-1104	; 0xfffffbb0
    3220:	5f464649 	svcpl	0x00464649
    3224:	5f5f0020 	svcpl	0x005f0020
    3228:	4c42444c 	cfstrdmi	mvd4, [r2], {76}	; 0x4c
    322c:	4e45445f 	mcrmi	4, 2, r4, cr5, cr15, {2}
    3230:	5f4d524f 	svcpl	0x004d524f
    3234:	5f4e494d 	svcpl	0x004e494d
    3238:	2e34205f 	mrccs	0, 1, r2, cr4, cr15, {2}
    323c:	36303439 			; <UNDEFINED> instruction: 0x36303439
    3240:	35343635 	ldrcc	r3, [r4, #-1589]!	; 0xfffff9cb
    3244:	32313438 	eorscc	r3, r1, #56, 8	; 0x38000000
    3248:	34353634 	ldrtcc	r3, [r5], #-1588	; 0xfffff9cc
    324c:	32332d65 	eorscc	r2, r3, #6464	; 0x1940
    3250:	5f004c34 	svcpl	0x00004c34
    3254:	544e495f 	strbpl	r4, [lr], #-2399	; 0xfffff6a1
    3258:	4d5f3436 	cfldrdmi	mvd3, [pc, #-216]	; 3188 <_Min_Stack_Size+0x2d88>
    325c:	5f5f5841 	svcpl	0x005f5841
    3260:	37783020 	ldrbcc	r3, [r8, -r0, lsr #32]!
    3264:	66666666 	strbtvs	r6, [r6], -r6, ror #12
    3268:	66666666 	strbtvs	r6, [r6], -r6, ror #12
    326c:	66666666 	strbtvs	r6, [r6], -r6, ror #12
    3270:	4c666666 	stclmi	6, cr6, [r6], #-408	; 0xfffffe68
    3274:	5f5f004c 	svcpl	0x005f004c
    3278:	5f4d5241 	svcpl	0x004d5241
    327c:	54414546 	strbpl	r4, [r1], #-1350	; 0xfffffaba
    3280:	5f455255 	svcpl	0x00455255
    3284:	20544153 	subscs	r4, r4, r3, asr r1
    3288:	525f0031 	subspl	r0, pc, #49	; 0x31
    328c:	544e4545 	strbpl	r4, [lr], #-1349	; 0xfffffabb
    3290:	4548435f 	strbmi	r4, [r8, #-863]	; 0xfffffca1
    3294:	455f4b43 	ldrbmi	r4, [pc, #-2883]	; 2759 <_Min_Stack_Size+0x2359>
    3298:	4752454d 	ldrbmi	r4, [r2, -sp, asr #10]
    329c:	59434e45 	stmdbpl	r3, {r0, r2, r6, r9, sl, fp, lr}^
    32a0:	72617628 	rsbvc	r7, r1, #40, 12	; 0x2800000
    32a4:	525f2029 	subspl	r2, pc, #41	; 0x29
    32a8:	544e4545 	strbpl	r4, [lr], #-1349	; 0xfffffabb
    32ac:	4548435f 	strbmi	r4, [r8, #-863]	; 0xfffffca1
    32b0:	76284b43 	strtvc	r4, [r8], -r3, asr #22
    32b4:	202c7261 	eorcs	r7, ip, r1, ror #4
    32b8:	656d655f 	strbvs	r6, [sp, #-1375]!	; 0xfffffaa1
    32bc:	6e656772 	mcrvs	7, 3, r6, cr5, cr2, {3}
    32c0:	202c7963 	eorcs	r7, ip, r3, ror #18
    32c4:	72616863 	rsbvc	r6, r1, #6488064	; 0x630000
    32c8:	202c2a20 	eorcs	r2, ip, r0, lsr #20
    32cc:	4545525f 	strbmi	r5, [r5, #-607]	; 0xfffffda1
    32d0:	455f544e 	ldrbmi	r5, [pc, #-1102]	; 2e8a <_Min_Stack_Size+0x2a8a>
    32d4:	4752454d 	ldrbmi	r4, [r2, -sp, asr #10]
    32d8:	59434e45 	stmdbpl	r3, {r0, r2, r6, r9, sl, fp, lr}^
    32dc:	5a49535f 	bpl	1258060 <_Min_Stack_Size+0x1257c60>
    32e0:	29202c45 	stmdbcs	r0!, {r0, r2, r6, sl, fp, sp}
    32e4:	555f5f00 	ldrbpl	r5, [pc, #-3840]	; 23ec <_Min_Stack_Size+0x1fec>
    32e8:	52464c4c 	subpl	r4, r6, #76, 24	; 0x4c00
    32ec:	5f544341 	svcpl	0x00544341
    32f0:	54494249 	strbpl	r4, [r9], #-585	; 0xfffffdb7
    32f4:	30205f5f 	eorcc	r5, r0, pc, asr pc
    32f8:	4e415f00 	cdpmi	15, 4, cr5, cr1, cr0, {0}
    32fc:	535f4953 	cmppl	pc, #1359872	; 0x14c000
    3300:	45444454 	strbmi	r4, [r4, #-1108]	; 0xfffffbac
    3304:	20485f46 	subcs	r5, r8, r6, asr #30
    3308:	45525f00 	ldrbmi	r5, [r2, #-3840]	; 0xfffff100
    330c:	5f544e45 	svcpl	0x00544e45
    3310:	4c414d53 	mcrrmi	13, 5, r4, r1, cr3
    3314:	48435f4c 	stmdami	r3, {r2, r3, r6, r8, r9, sl, fp, ip, lr}^
    3318:	5f4b4345 	svcpl	0x004b4345
    331c:	54494e49 	strbpl	r4, [r9], #-3657	; 0xfffff1b7
    3320:	72747028 	rsbsvc	r7, r4, #40	; 0x28
    3324:	5f002029 	svcpl	0x00002029
    3328:	554e475f 	strbpl	r4, [lr, #-1887]	; 0xfffff8a1
    332c:	205f5f43 	subscs	r5, pc, r3, asr #30
    3330:	5f003331 	svcpl	0x00003331
    3334:	4e454552 	mcrmi	5, 2, r4, cr5, cr2, {2}
    3338:	43575f54 	cmpmi	r7, #84, 30	; 0x150
    333c:	4d4f5452 	cfstrdmi	mvd5, [pc, #-328]	; 31fc <_Min_Stack_Size+0x2dfc>
    3340:	54535f42 	ldrbpl	r5, [r3], #-3906	; 0xfffff0be
    3344:	28455441 	stmdacs	r5, {r0, r6, sl, ip, lr}^
    3348:	29727470 	ldmdbcs	r2!, {r4, r5, r6, sl, ip, sp, lr}^
    334c:	70282820 	eorvc	r2, r8, r0, lsr #16
    3350:	2d297274 	sfmcs	f7, 4, [r9, #-464]!	; 0xfffffe30
    3354:	696d5f3e 	stmdbvs	sp!, {r1, r2, r3, r4, r5, r8, r9, sl, fp, ip, lr}^
    3358:	3e2d6373 	mcrcc	3, 1, r6, cr13, cr3, {3}
    335c:	7263775f 	rsbvc	r7, r3, #24903680	; 0x17c0000
    3360:	626d6f74 	rsbvs	r6, sp, #116, 30	; 0x1d0
    3364:	6174735f 	cmnvs	r4, pc, asr r3
    3368:	00296574 	eoreq	r6, r9, r4, ror r5
    336c:	4f4c5f5f 	svcmi	0x004c5f5f
    3370:	575f474e 	ldrbpl	r4, [pc, -lr, asr #14]
    3374:	48544449 	ldmdami	r4, {r0, r3, r6, sl, lr}^
    3378:	33205f5f 			; <UNDEFINED> instruction: 0x33205f5f
    337c:	575f0032 	smmlarpl	pc, r2, r0, r0	; <UNPREDICTABLE>
    3380:	5f544e41 	svcpl	0x00544e41
    3384:	5f455355 	svcpl	0x00455355
    3388:	4f544447 	svcmi	0x00544447
    338c:	00312041 	eorseq	r2, r1, r1, asr #32
    3390:	575f545f 			; <UNDEFINED> instruction: 0x575f545f
    3394:	52414843 	subpl	r4, r1, #4390912	; 0x430000
    3398:	5f00205f 	svcpl	0x0000205f
    339c:	4341555f 	movtmi	r5, #5471	; 0x155f
    33a0:	5f4d5543 	svcpl	0x004d5543
    33a4:	54494246 	strbpl	r4, [r9], #-582	; 0xfffffdba
    33a8:	31205f5f 			; <UNDEFINED> instruction: 0x31205f5f
    33ac:	5f5f0036 	svcpl	0x005f0036
    33b0:	6e726177 	mrcvs	1, 3, r6, cr2, cr7, {3}
    33b4:	6665725f 			; <UNDEFINED> instruction: 0x6665725f
    33b8:	6e657265 	cdpvs	2, 6, cr7, cr5, cr5, {3}
    33bc:	28736563 	ldmdacs	r3!, {r0, r1, r5, r6, r8, sl, sp, lr}^
    33c0:	2c6d7973 			; <UNDEFINED> instruction: 0x2c6d7973
    33c4:	2967736d 	stmdbcs	r7!, {r0, r2, r3, r5, r6, r8, r9, ip, sp, lr}^
    33c8:	615f5f20 	cmpvs	pc, r0, lsr #30
    33cc:	5f5f6d73 	svcpl	0x005f6d73
    33d0:	732e2228 			; <UNDEFINED> instruction: 0x732e2228
    33d4:	69746365 	ldmdbvs	r4!, {r0, r2, r5, r6, r8, r9, sp, lr}^
    33d8:	2e206e6f 	cdpcs	14, 2, cr6, cr0, cr15, {3}
    33dc:	2e756e67 	cdpcs	14, 7, cr6, cr5, cr7, {3}
    33e0:	6e726177 	mrcvs	1, 3, r6, cr2, cr7, {3}
    33e4:	2e676e69 	cdpcs	14, 6, cr6, cr7, cr9, {3}
    33e8:	73232022 			; <UNDEFINED> instruction: 0x73232022
    33ec:	3b296d79 	blcc	a5e9d8 <_Min_Stack_Size+0xa5e5d8>
    33f0:	615f5f20 	cmpvs	pc, r0, lsr #30
    33f4:	5f5f6d73 	svcpl	0x005f6d73
    33f8:	612e2228 			; <UNDEFINED> instruction: 0x612e2228
    33fc:	7a696373 	bvc	1a5c1d0 <_Min_Stack_Size+0x1a5bdd0>
    3400:	22225c20 	eorcs	r5, r2, #32, 24	; 0x2000
    3404:	67736d20 	ldrbvs	r6, [r3, -r0, lsr #26]!
    3408:	225c2220 	subscs	r2, ip, #32, 4
    340c:	203b2922 	eorscs	r2, fp, r2, lsr #18
    3410:	73615f5f 	cmnvc	r1, #380	; 0x17c
    3414:	285f5f6d 	ldmdacs	pc, {r0, r2, r3, r5, r6, r8, r9, sl, fp, ip, lr}^	; <UNPREDICTABLE>
    3418:	72702e22 	rsbsvc	r2, r0, #544	; 0x220
    341c:	6f697665 	svcvs	0x00697665
    3420:	29227375 	stmdbcs	r2!, {r0, r2, r4, r5, r6, r8, r9, ip, sp, lr}
    3424:	74735f00 	ldrbtvc	r5, [r3], #-3840	; 0xfffff100
    3428:	74756f64 	ldrbtvc	r6, [r5], #-3940	; 0xfffff09c
    342c:	7828725f 	stmdavc	r8!, {r0, r1, r2, r3, r4, r6, r9, ip, sp, lr}
    3430:	525f2029 	subspl	r2, pc, #41	; 0x29
    3434:	544e4545 	strbpl	r4, [lr], #-1349	; 0xfffffabb
    3438:	4454535f 	ldrbmi	r5, [r4], #-863	; 0xfffffca1
    343c:	2854554f 	ldmdacs	r4, {r0, r1, r2, r3, r6, r8, sl, ip, lr}^
    3440:	5f002978 	svcpl	0x00002978
    3444:	5246555f 	subpl	r5, r6, #398458880	; 0x17c00000
    3448:	5f544341 	svcpl	0x00544341
    344c:	49535045 	ldmdbmi	r3, {r0, r2, r6, ip, lr}^
    3450:	5f4e4f4c 	svcpl	0x004e4f4c
    3454:	7830205f 	ldmdavc	r0!, {r0, r1, r2, r3, r4, r6, sp}
    3458:	312d5031 			; <UNDEFINED> instruction: 0x312d5031
    345c:	00525536 	subseq	r5, r2, r6, lsr r5
    3460:	43575f5f 	cmpmi	r7, #380	; 0x17c
    3464:	5f524148 	svcpl	0x00524148
    3468:	5f4e494d 	svcpl	0x004e494d
    346c:	5530205f 	ldrpl	r2, [r0, #-95]!	; 0xffffffa1
    3470:	555f5f00 	ldrbpl	r5, [pc, #-3840]	; 2578 <_Min_Stack_Size+0x2178>
    3474:	495f5151 	ldmdbmi	pc, {r0, r4, r6, r8, ip, lr}^	; <UNPREDICTABLE>
    3478:	5f544942 	svcpl	0x00544942
    347c:	0030205f 	eorseq	r2, r0, pc, asr r0
    3480:	57454e5f 	smlsldpl	r4, r5, pc, lr	; <UNPREDICTABLE>
    3484:	5f42494c 	svcpl	0x0042494c
    3488:	53524556 	cmppl	r2, #360710144	; 0x15800000
    348c:	5f4e4f49 	svcpl	0x004e4f49
    3490:	205f5f48 	subscs	r5, pc, r8, asr #30
    3494:	5f5f0031 	svcpl	0x005f0031
    3498:	5f434347 	svcpl	0x00434347
    349c:	4d4f5441 	cfstrdmi	mvd5, [pc, #-260]	; 33a0 <_Min_Stack_Size+0x2fa0>
    34a0:	4c5f4349 	mrrcmi	3, 4, r4, pc, cr9	; <UNPREDICTABLE>
    34a4:	5f474e4f 	svcpl	0x00474e4f
    34a8:	4b434f4c 	blmi	10d71e0 <_Min_Stack_Size+0x10d6de0>
    34ac:	4552465f 	ldrbmi	r4, [r2, #-1631]	; 0xfffff9a1
    34b0:	00322045 	eorseq	r2, r2, r5, asr #32
    34b4:	4c555f5f 	mrrcmi	15, 5, r5, r5, cr15	; <UNPREDICTABLE>
    34b8:	55434341 	strbpl	r4, [r3, #-833]	; 0xfffffcbf
    34bc:	494d5f4d 	stmdbmi	sp, {r0, r2, r3, r6, r8, r9, sl, fp, ip, lr}^
    34c0:	205f5f4e 	subscs	r5, pc, lr, asr #30
    34c4:	55302e30 	ldrpl	r2, [r0, #-3632]!	; 0xfffff1d0
    34c8:	5f004b4c 	svcpl	0x00004b4c
    34cc:	58455441 	stmdapl	r5, {r0, r6, sl, ip, lr}^
    34d0:	445f5449 	ldrbmi	r5, [pc], #-1097	; 34d8 <_Min_Stack_Size+0x30d8>
    34d4:	4d414e59 	stclmi	14, cr4, [r1, #-356]	; 0xfffffe9c
    34d8:	415f4349 	cmpmi	pc, r9, asr #6
    34dc:	434f4c4c 	movtmi	r4, #64588	; 0xfc4c
    34e0:	5f003120 	svcpl	0x00003120
    34e4:	65656e5f 	strbvs	r6, [r5, #-3679]!	; 0xfffff1a1
    34e8:	69735f64 	ldmdbvs	r3!, {r2, r5, r6, r8, r9, sl, fp, ip, lr}^
    34ec:	745f657a 	ldrbvc	r6, [pc], #-1402	; 34f4 <_Min_Stack_Size+0x30f4>
    34f0:	4c5f5f00 	mrrcmi	15, 0, r5, pc, cr0	; <UNPREDICTABLE>
    34f4:	5f4c4244 	svcpl	0x004c4244
    34f8:	5f58414d 	svcpl	0x0058414d
    34fc:	2e31205f 	mrccs	0, 1, r2, cr1, cr15, {2}
    3500:	36373937 			; <UNDEFINED> instruction: 0x36373937
    3504:	33313339 	teqcc	r1, #-469762048	; 0xe4000000
    3508:	32363834 	eorscc	r3, r6, #52, 16	; 0x340000
    350c:	37353133 			; <UNDEFINED> instruction: 0x37353133
    3510:	30332b65 	eorscc	r2, r3, r5, ror #22
    3514:	5f004c38 	svcpl	0x00004c38
    3518:	4d52415f 	ldfmie	f4, [r2, #-380]	; 0xfffffe84
    351c:	4352415f 	cmpmi	r2, #-1073741801	; 0xc0000017
    3520:	00372048 	eorseq	r2, r7, r8, asr #32
    3524:	4c465f5f 	mcrrmi	15, 5, r5, r6, cr15
    3528:	41525f54 	cmpmi	r2, r4, asr pc
    352c:	5f584944 	svcpl	0x00584944
    3530:	0032205f 	eorseq	r2, r2, pc, asr r0
    3534:	4545525f 	strbmi	r5, [r5, #-607]	; 0xfffffda1
    3538:	535f544e 	cmppl	pc, #1308622848	; 0x4e000000
    353c:	52454454 	subpl	r4, r5, #84, 8	; 0x54000000
    3540:	705f2852 	subsvc	r2, pc, r2, asr r8	; <UNPREDICTABLE>
    3544:	20297274 	eorcs	r7, r9, r4, ror r2
    3548:	705f2828 	subsvc	r2, pc, r8, lsr #16
    354c:	2d297274 	sfmcs	f7, 4, [r9, #-464]!	; 0xfffffe30
    3550:	74735f3e 	ldrbtvc	r5, [r3], #-3902	; 0xfffff0c2
    3554:	72726564 	rsbsvc	r6, r2, #100, 10	; 0x19000000
    3558:	5f5f0029 	svcpl	0x005f0029
    355c:	5f4d5241 	svcpl	0x004d5241
    3560:	54414546 	strbpl	r4, [r1], #-1350	; 0xfffffaba
    3564:	5f455255 	svcpl	0x00455255
    3568:	45534d43 	ldrbmi	r4, [r3, #-3395]	; 0xfffff2bd
    356c:	465f5f00 	ldrbmi	r5, [pc], -r0, lsl #30
    3570:	4d5f544c 	cfldrdmi	mvd5, [pc, #-304]	; 3448 <_Min_Stack_Size+0x3048>
    3574:	455f4e49 	ldrbmi	r4, [pc, #-3657]	; 2733 <_Min_Stack_Size+0x2333>
    3578:	5f5f5058 	svcpl	0x005f5058
    357c:	312d2820 			; <UNDEFINED> instruction: 0x312d2820
    3580:	00293532 	eoreq	r3, r9, r2, lsr r5
    3584:	454c4946 	strbmi	r4, [ip, #-2374]	; 0xfffff6ba
    3588:	454d414e 	strbmi	r4, [sp, #-334]	; 0xfffffeb2
    358c:	58414d5f 	stmdapl	r1, {r0, r1, r2, r3, r4, r6, r8, sl, fp, lr}^
    3590:	32303120 	eorscc	r3, r0, #32, 2
    3594:	5f5f0034 	svcpl	0x005f0034
    3598:	4c42444c 	cfstrdmi	mvd4, [r2], {76}	; 0x4c
    359c:	5341485f 	movtpl	r4, #6239	; 0x185f
    35a0:	4955515f 	ldmdbmi	r5, {r0, r1, r2, r3, r4, r6, r8, ip, lr}^
    35a4:	4e5f5445 	cdpmi	4, 5, cr5, cr15, cr5, {2}
    35a8:	5f5f4e41 	svcpl	0x005f4e41
    35ac:	5f003120 	svcpl	0x00003120
    35b0:	4c41565f 	mcrrmi	6, 5, r5, r1, cr15
    35b4:	20545349 	subscs	r5, r4, r9, asr #6
    35b8:	6e675f5f 	mcrvs	15, 3, r5, cr7, cr15, {2}
    35bc:	765f6375 			; <UNDEFINED> instruction: 0x765f6375
    35c0:	696c5f61 	stmdbvs	ip!, {r0, r5, r6, r8, r9, sl, fp, ip, lr}^
    35c4:	50007473 	andpl	r7, r0, r3, ror r4
    35c8:	706d745f 	rsbvc	r7, sp, pc, asr r4
    35cc:	20726964 	rsbscs	r6, r2, r4, ror #18
    35d0:	6d742f22 	ldclvs	15, cr2, [r4, #-136]!	; 0xffffff78
    35d4:	5f002270 	svcpl	0x00002270
    35d8:	4e4f4c5f 	mcrmi	12, 2, r4, cr15, cr15, {2}
    35dc:	4f4c5f47 	svcmi	0x004c5f47
    35e0:	575f474e 	ldrbpl	r4, [pc, -lr, asr #14]
    35e4:	48544449 	ldmdami	r4, {r0, r3, r6, sl, lr}^
    35e8:	36205f5f 	qsaxcc	r5, r0, pc	; <UNPREDICTABLE>
    35ec:	5f5f0034 	svcpl	0x005f0034
    35f0:	544e4955 	strbpl	r4, [lr], #-2389	; 0xfffff6ab
    35f4:	5341465f 	movtpl	r4, #5727	; 0x165f
    35f8:	5f343654 	svcpl	0x00343654
    35fc:	5f58414d 	svcpl	0x0058414d
    3600:	7830205f 	ldmdavc	r0!, {r0, r1, r2, r3, r4, r6, sp}
    3604:	66666666 	strbtvs	r6, [r6], -r6, ror #12
    3608:	66666666 	strbtvs	r6, [r6], -r6, ror #12
    360c:	66666666 	strbtvs	r6, [r6], -r6, ror #12
    3610:	66666666 	strbtvs	r6, [r6], -r6, ror #12
    3614:	004c4c55 	subeq	r4, ip, r5, asr ip
    3618:	52415f5f 	subpl	r5, r1, #380	; 0x17c
    361c:	50465f4d 	subpl	r5, r6, sp, asr #30
    3620:	485f5f00 	ldmdami	pc, {r8, r9, sl, fp, ip, lr}^	; <UNPREDICTABLE>
    3624:	42495f41 	submi	r5, r9, #260	; 0x104
    3628:	5f5f5449 	svcpl	0x005f5449
    362c:	5f003820 	svcpl	0x00003820
    3630:	544e495f 	strbpl	r4, [lr], #-2399	; 0xfffff6a1
    3634:	5f525450 	svcpl	0x00525450
    3638:	54444957 	strbpl	r4, [r4], #-2391	; 0xfffff6a9
    363c:	205f5f48 	subscs	r5, pc, r8, asr #30
    3640:	5f003233 	svcpl	0x00003233
    3644:	4343475f 	movtmi	r4, #14175	; 0x375f
    3648:	4f54415f 	svcmi	0x0054415f
    364c:	5f43494d 	svcpl	0x0043494d
    3650:	4e4f4c4c 	cdpmi	12, 4, cr4, cr15, cr12, {2}
    3654:	4f4c5f47 	svcmi	0x004c5f47
    3658:	465f4b43 	ldrbmi	r4, [pc], -r3, asr #22
    365c:	20454552 	subcs	r4, r5, r2, asr r5
    3660:	525f0031 	subspl	r0, pc, #49	; 0x31
    3664:	544e4545 	strbpl	r4, [lr], #-1349	; 0xfffffabb
    3668:	434f4c5f 	movtmi	r4, #64607	; 0xfc5f
    366c:	28454c41 	stmdacs	r5, {r0, r6, sl, fp, lr}^
    3670:	7274705f 	rsbsvc	r7, r4, #95	; 0x5f
    3674:	28282029 	stmdacs	r8!, {r0, r3, r5, sp}
    3678:	7274705f 	rsbsvc	r7, r4, #95	; 0x5f
    367c:	5f3e2d29 	svcpl	0x003e2d29
    3680:	61636f6c 	cmnvs	r3, ip, ror #30
    3684:	0029656c 	eoreq	r6, r9, ip, ror #10
    3688:	4c465f5f 	mcrrmi	15, 5, r5, r6, cr15
    368c:	58323354 	ldmdapl	r2!, {r2, r4, r6, r8, r9, ip, sp}
    3690:	4e494d5f 	mcrmi	13, 2, r4, cr9, cr15, {2}
    3694:	32205f5f 	eorcc	r5, r0, #380	; 0x17c
    3698:	3532322e 	ldrcc	r3, [r2, #-558]!	; 0xfffffdd2
    369c:	38333730 	ldmdacc	r3!, {r4, r5, r8, r9, sl, ip, sp}
    36a0:	30353835 	eorscc	r3, r5, r5, lsr r8
    36a4:	31303237 	teqcc	r0, r7, lsr r2
    36a8:	332d6534 			; <UNDEFINED> instruction: 0x332d6534
    36ac:	33463830 	movtcc	r3, #26672	; 0x6830
    36b0:	5f007832 	svcpl	0x00007832
    36b4:	4e454552 	mcrmi	5, 2, r4, cr5, cr2, {2}
    36b8:	41525f54 	cmpmi	r2, r4, asr pc
    36bc:	3834444e 	ldmdacc	r4!, {r1, r2, r3, r6, sl, lr}
    36c0:	4c554d5f 	mrrcmi	13, 5, r4, r5, cr15
    36c4:	74702854 	ldrbtvc	r2, [r0], #-2132	; 0xfffff7ac
    36c8:	28202972 	stmdacs	r0!, {r1, r4, r5, r6, r8, fp, sp}
    36cc:	72747028 	rsbsvc	r7, r4, #40	; 0x28
    36d0:	5f3e2d29 	svcpl	0x003e2d29
    36d4:	2d383472 	cfldrscs	mvf3, [r8, #-456]!	; 0xfffffe38
    36d8:	756d5f3e 	strbvc	r5, [sp, #-3902]!	; 0xfffff0c2
    36dc:	0029746c 	eoreq	r7, r9, ip, ror #8
    36e0:	4c465f5f 	mcrrmi	15, 5, r5, r6, cr15
    36e4:	5f343654 	svcpl	0x00343654
    36e8:	5f58414d 	svcpl	0x0058414d
    36ec:	5f505845 	svcpl	0x00505845
    36f0:	3031205f 	eorscc	r2, r1, pc, asr r0
    36f4:	5f003432 	svcpl	0x00003432
    36f8:	4843575f 	stmdami	r3, {r0, r1, r2, r3, r4, r6, r8, r9, sl, ip, lr}^
    36fc:	545f5241 	ldrbpl	r5, [pc], #-577	; 3704 <_Min_Stack_Size+0x3304>
    3700:	5f5f0020 	svcpl	0x005f0020
    3704:	36544c46 	ldrbcc	r4, [r4], -r6, asr #24
    3708:	494d5f34 	stmdbmi	sp, {r2, r4, r5, r8, r9, sl, fp, ip, lr}^
    370c:	205f5f4e 	subscs	r5, pc, lr, asr #30
    3710:	32322e32 	eorscc	r2, r2, #800	; 0x320
    3714:	33373035 	teqcc	r7, #53	; 0x35
    3718:	35383538 	ldrcc	r3, [r8, #-1336]!	; 0xfffffac8
    371c:	30323730 	eorscc	r3, r2, r0, lsr r7
    3720:	2d653431 	cfstrdcs	mvd3, [r5, #-196]!	; 0xffffff3c
    3724:	46383033 			; <UNDEFINED> instruction: 0x46383033
    3728:	5f003436 	svcpl	0x00003436
    372c:	4e454552 	mcrmi	5, 2, r4, cr5, cr2, {2}
    3730:	4e495f54 	mcrmi	15, 2, r5, cr9, cr4, {2}
    3734:	525f5449 	subspl	r5, pc, #1224736768	; 0x49000000
    3738:	52455345 	subpl	r5, r5, #335544321	; 0x14000001
    373c:	5f444556 	svcpl	0x00444556
    3740:	5f002038 	svcpl	0x00002038
    3744:	6e695f5f 	mcrvs	15, 3, r5, cr9, cr15, {2}
    3748:	5f323374 	svcpl	0x00323374
    374c:	65645f74 	strbvs	r5, [r4, #-3956]!	; 0xfffff08c
    3750:	656e6966 	strbvs	r6, [lr, #-2406]!	; 0xfffff69a
    3754:	00312064 	eorseq	r2, r1, r4, rrx
    3758:	45525f5f 	ldrbmi	r5, [r2, #-3935]	; 0xfffff0a1
    375c:	5f544e45 	svcpl	0x00544e45
    3760:	54494e49 	strbpl	r4, [r9], #-3657	; 0xfffff1b7
    3764:	53494d5f 	movtpl	r4, #40287	; 0x9d5f
    3768:	45475f43 	strbmi	r5, [r7, #-3907]	; 0xfffff0bd
    376c:	434f4c54 	movtmi	r4, #64596	; 0xfc54
    3770:	4e454c41 	cdpmi	12, 4, cr4, cr5, cr1, {2}
    3774:	5f454d41 	svcpl	0x00454d41
    3778:	5f00204c 	svcpl	0x0000204c
    377c:	45564148 	ldrbmi	r4, [r6, #-328]	; 0xfffffeb8
    3780:	5f43435f 	svcpl	0x0043435f
    3784:	49484e49 	stmdbmi	r8, {r0, r3, r6, r9, sl, fp, lr}^
    3788:	5f544942 	svcpl	0x00544942
    378c:	504f4f4c 	subpl	r4, pc, ip, asr #30
    3790:	5f4f545f 	svcpl	0x004f545f
    3794:	4342494c 	movtmi	r4, #10572	; 0x294c
    3798:	204c4c41 	subcs	r4, ip, r1, asr #24
    379c:	5f5f0031 	svcpl	0x005f0031
    37a0:	4c4c554e 	cfstr64mi	mvdx5, [ip], {78}	; 0x4e
    37a4:	4c494241 	sfmmi	f4, 2, [r9], {65}	; 0x41
    37a8:	5f595449 	svcpl	0x00595449
    37ac:	47415250 	smlsldmi	r5, r1, r0, r2
    37b0:	505f414d 	subspl	r4, pc, sp, asr #2
    37b4:	0020504f 	eoreq	r5, r0, pc, asr #32
    37b8:	52415f5f 	subpl	r5, r1, #380	; 0x17c
    37bc:	52415f4d 	subpl	r5, r1, #308	; 0x134
    37c0:	505f4843 	subspl	r4, pc, r3, asr #16
    37c4:	49464f52 	stmdbmi	r6, {r1, r4, r6, r8, r9, sl, fp, lr}^
    37c8:	5f00454c 	svcpl	0x0000454c
    37cc:	544e495f 	strbpl	r4, [lr], #-2399	; 0xfffff6a1
    37d0:	545f3436 	ldrbpl	r3, [pc], #-1078	; 37d8 <_Min_Stack_Size+0x33d8>
    37d4:	5f455059 	svcpl	0x00455059
    37d8:	6f6c205f 	svcvs	0x006c205f
    37dc:	6c20676e 	stcvs	7, cr6, [r0], #-440	; 0xfffffe48
    37e0:	20676e6f 	rsbcs	r6, r7, pc, ror #28
    37e4:	00746e69 	rsbseq	r6, r4, r9, ror #28
    37e8:	464c5f5f 			; <UNDEFINED> instruction: 0x464c5f5f
    37ec:	54434152 	strbpl	r4, [r3], #-338	; 0xfffffeae
    37f0:	4942465f 	stmdbmi	r2, {r0, r1, r2, r3, r4, r6, r9, sl, lr}^
    37f4:	205f5f54 	subscs	r5, pc, r4, asr pc	; <UNPREDICTABLE>
    37f8:	5f003133 	svcpl	0x00003133
    37fc:	4148435f 	cmpmi	r8, pc, asr r3
    3800:	49425f52 	stmdbmi	r2, {r1, r4, r6, r8, r9, sl, fp, ip, lr}^
    3804:	205f5f54 	subscs	r5, pc, r4, asr pc	; <UNPREDICTABLE>
    3808:	5f5f0038 	svcpl	0x005f0038
    380c:	455a4953 	ldrbmi	r4, [sl, #-2387]	; 0xfffff6ad
    3810:	575f464f 	ldrbpl	r4, [pc, -pc, asr #12]
    3814:	52414843 	subpl	r4, r1, #4390912	; 0x430000
    3818:	5f5f545f 	svcpl	0x005f545f
    381c:	5f003420 	svcpl	0x00003420
    3820:	6572705f 	ldrbvs	r7, [r2, #-95]!	; 0xffffffa1
    3824:	74636964 	strbtvc	r6, [r3], #-2404	; 0xfffff69c
    3828:	6c61665f 	stclvs	6, cr6, [r1], #-380	; 0xfffffe84
    382c:	65286573 	strvs	r6, [r8, #-1395]!	; 0xfffffa8d
    3830:	20297078 	eorcs	r7, r9, r8, ror r0
    3834:	75625f5f 	strbvc	r5, [r2, #-3935]!	; 0xfffff0a1
    3838:	69746c69 	ldmdbvs	r4!, {r0, r3, r5, r6, sl, fp, sp, lr}^
    383c:	78655f6e 	stmdavc	r5!, {r1, r2, r3, r5, r6, r8, r9, sl, fp, ip, lr}^
    3840:	74636570 	strbtvc	r6, [r3], #-1392	; 0xfffffa90
    3844:	78652828 	stmdavc	r5!, {r3, r5, fp, sp}^
    3848:	202c2970 	eorcs	r2, ip, r0, ror r9
    384c:	5f002930 	svcpl	0x00002930
    3850:	5353415f 	cmppl	r3, #-1073741801	; 0xc0000017
    3854:	5f545245 	svcpl	0x00545245
    3858:	434e5546 	movtmi	r5, #58694	; 0xe546
    385c:	665f5f20 	ldrbvs	r5, [pc], -r0, lsr #30
    3860:	5f636e75 	svcpl	0x00636e75
    3864:	5f5f005f 	svcpl	0x005f005f
    3868:	41524655 	cmpmi	r2, r5, asr r6
    386c:	4d5f5443 	cfldrdmi	mvd5, [pc, #-268]	; 3768 <_Min_Stack_Size+0x3368>
    3870:	5f5f5841 	svcpl	0x005f5841
    3874:	46583020 	ldrbmi	r3, [r8], -r0, lsr #32
    3878:	50464646 	subpl	r4, r6, r6, asr #12
    387c:	5536312d 	ldrpl	r3, [r6, #-301]!	; 0xfffffed3
    3880:	5f5f0052 	svcpl	0x005f0052
    3884:	746e695f 	strbtvc	r6, [lr], #-2399	; 0xfffff6a1
    3888:	61656c5f 	cmnvs	r5, pc, asr ip
    388c:	34367473 	ldrtcc	r7, [r6], #-1139	; 0xfffffb8d
    3890:	645f745f 	ldrbvs	r7, [pc], #-1119	; 3898 <_Min_Stack_Size+0x3498>
    3894:	6e696665 	cdpvs	6, 6, cr6, cr9, cr5, {3}
    3898:	31206465 			; <UNDEFINED> instruction: 0x31206465
    389c:	465f5f00 	ldrbmi	r5, [pc], -r0, lsl #30
    38a0:	495f544c 	ldmdbmi	pc, {r2, r3, r6, sl, ip, lr}^	; <UNPREDICTABLE>
    38a4:	45495f53 	strbmi	r5, [r9, #-3923]	; 0xfffff0ad
    38a8:	30365f43 	eorscc	r5, r6, r3, asr #30
    38ac:	5f393535 	svcpl	0x00393535
    38b0:	0031205f 	eorseq	r2, r1, pc, asr r0
    38b4:	4e41575f 	mcrmi	7, 2, r5, cr1, cr15, {2}
    38b8:	45525f54 	ldrbmi	r5, [r2, #-3924]	; 0xfffff0ac
    38bc:	5f544e45 	svcpl	0x00544e45
    38c0:	4c414d53 	mcrrmi	13, 5, r4, r1, cr3
    38c4:	0031204c 	eorseq	r2, r1, ip, asr #32
    38c8:	48545f5f 	ldmdami	r4, {r0, r1, r2, r3, r4, r6, r8, r9, sl, fp, ip, lr}^
    38cc:	20574f52 	subscs	r4, r7, r2, asr pc
    38d0:	415f5f00 	cmpmi	pc, r0, lsl #30
    38d4:	465f4d52 			; <UNDEFINED> instruction: 0x465f4d52
    38d8:	55544145 	ldrbpl	r4, [r4, #-325]	; 0xfffffebb
    38dc:	505f4552 	subspl	r4, pc, r2, asr r5	; <UNPREDICTABLE>
    38e0:	48545541 	ldmdami	r4, {r0, r6, r8, sl, ip, lr}^
    38e4:	45525f00 	ldrbmi	r5, [r2, #-3840]	; 0xfffff100
    38e8:	5f544e45 	svcpl	0x00544e45
    38ec:	43454843 	movtmi	r4, #22595	; 0x5843
    38f0:	504d5f4b 	subpl	r5, sp, fp, asr #30
    38f4:	72617628 	rsbvc	r7, r1, #40, 12	; 0x2800000
    38f8:	525f2029 	subspl	r2, pc, #41	; 0x29
    38fc:	544e4545 	strbpl	r4, [lr], #-1349	; 0xfffffabb
    3900:	4548435f 	strbmi	r4, [r8, #-863]	; 0xfffffca1
    3904:	76284b43 	strtvc	r4, [r8], -r3, asr #22
    3908:	202c7261 	eorcs	r7, ip, r1, ror #4
    390c:	2c706d5f 	ldclcs	13, cr6, [r0], #-380	; 0xfffffe84
    3910:	72747320 	rsbsvc	r7, r4, #32, 6	; 0x80000000
    3914:	20746375 	rsbscs	r6, r4, r5, ror r3
    3918:	72706d5f 	rsbsvc	r6, r0, #6080	; 0x17c0
    391c:	2a206365 	bcs	81c6b8 <_Min_Stack_Size+0x81c2b8>
    3920:	6973202c 	ldmdbvs	r3!, {r2, r3, r5, sp}^
    3924:	666f657a 			; <UNDEFINED> instruction: 0x666f657a
    3928:	28282a20 	stmdacs	r8!, {r5, r9, fp, sp}
    392c:	29726176 	ldmdbcs	r2!, {r1, r2, r4, r5, r6, r8, sp, lr}^
    3930:	6d5f3e2d 	ldclvs	14, cr3, [pc, #-180]	; 3884 <_Min_Stack_Size+0x3484>
    3934:	202c2970 	eorcs	r2, ip, r0, ror r9
    3938:	4545525f 	strbmi	r5, [r5, #-607]	; 0xfffffda1
    393c:	495f544e 	ldmdbmi	pc, {r1, r2, r3, r6, sl, ip, lr}^	; <UNPREDICTABLE>
    3940:	5f54494e 	svcpl	0x0054494e
    3944:	7628504d 	strtvc	r5, [r8], -sp, asr #32
    3948:	29297261 	stmdbcs	r9!, {r0, r5, r6, r9, ip, sp, lr}
    394c:	45525f00 	ldrbmi	r5, [r2, #-3840]	; 0xfffff100
    3950:	5f544e45 	svcpl	0x00544e45
    3954:	54494e49 	strbpl	r4, [r9], #-3657	; 0xfffff1b7
    3958:	53494d5f 	movtpl	r4, #40287	; 0x9d5f
    395c:	61762843 	cmnvs	r6, r3, asr #16
    3960:	64202972 	strtvs	r2, [r0], #-2418	; 0xfffff68e
    3964:	207b206f 	rsbscs	r2, fp, pc, rrx
    3968:	75727473 	ldrbvc	r7, [r2, #-1139]!	; 0xfffffb8d
    396c:	5f207463 	svcpl	0x00207463
    3970:	6e656572 	mcrvs	5, 3, r6, cr5, cr2, {3}
    3974:	5f2a2074 	svcpl	0x002a2074
    3978:	203d2072 	eorscs	r2, sp, r2, ror r0
    397c:	72617628 	rsbvc	r7, r1, #40, 12	; 0x2800000
    3980:	5f203b29 	svcpl	0x00203b29
    3984:	5f3e2d72 	svcpl	0x003e2d72
    3988:	6373696d 	cmnvs	r3, #1785856	; 0x1b4000
    398c:	735f3e2d 	cmpvc	pc, #720	; 0x2d0
    3990:	6f747274 	svcvs	0x00747274
    3994:	616c5f6b 	cmnvs	ip, fp, ror #30
    3998:	3d207473 	cfstrscc	mvf7, [r0, #-460]!	; 0xfffffe34
    399c:	554e5f20 	strbpl	r5, [lr, #-3872]	; 0xfffff0e0
    39a0:	203b4c4c 	eorscs	r4, fp, ip, asr #24
    39a4:	3e2d725f 	mcrcc	2, 1, r7, cr13, cr15, {2}
    39a8:	73696d5f 	cmnvc	r9, #6080	; 0x17c0
    39ac:	5f3e2d63 	svcpl	0x003e2d63
    39b0:	656c626d 	strbvs	r6, [ip, #-621]!	; 0xfffffd93
    39b4:	74735f6e 	ldrbtvc	r5, [r3], #-3950	; 0xfffff092
    39b8:	2e657461 	cdpcs	4, 6, cr7, cr5, cr1, {3}
    39bc:	6f635f5f 	svcvs	0x00635f5f
    39c0:	20746e75 	rsbscs	r6, r4, r5, ror lr
    39c4:	3b30203d 	blcc	c0bac0 <_Min_Stack_Size+0xc0b6c0>
    39c8:	2d725f20 	ldclcs	15, cr5, [r2, #-128]!	; 0xffffff80
    39cc:	696d5f3e 	stmdbvs	sp!, {r1, r2, r3, r4, r5, r8, r9, sl, fp, ip, lr}^
    39d0:	3e2d6373 	mcrcc	3, 1, r6, cr13, cr3, {3}
    39d4:	6c626d5f 	stclvs	13, cr6, [r2], #-380	; 0xfffffe84
    39d8:	735f6e65 	cmpvc	pc, #1616	; 0x650
    39dc:	65746174 	ldrbvs	r6, [r4, #-372]!	; 0xfffffe8c
    39e0:	765f5f2e 	ldrbvc	r5, [pc], -lr, lsr #30
    39e4:	65756c61 	ldrbvs	r6, [r5, #-3169]!	; 0xfffff39f
    39e8:	775f5f2e 	ldrbvc	r5, [pc, -lr, lsr #30]
    39ec:	3d206863 	stccc	8, cr6, [r0, #-396]!	; 0xfffffe74
    39f0:	203b3020 	eorscs	r3, fp, r0, lsr #32
    39f4:	3e2d725f 	mcrcc	2, 1, r7, cr13, cr15, {2}
    39f8:	73696d5f 	cmnvc	r9, #6080	; 0x17c0
    39fc:	5f3e2d63 	svcpl	0x003e2d63
    3a00:	6f746377 	svcvs	0x00746377
    3a04:	735f626d 	cmpvc	pc, #-805306362	; 0xd0000006
    3a08:	65746174 	ldrbvs	r6, [r4, #-372]!	; 0xfffffe8c
    3a0c:	635f5f2e 	cmpvs	pc, #46, 30	; 0xb8
    3a10:	746e756f 	strbtvc	r7, [lr], #-1391	; 0xfffffa91
    3a14:	30203d20 	eorcc	r3, r0, r0, lsr #26
    3a18:	725f203b 	subsvc	r2, pc, #59	; 0x3b
    3a1c:	6d5f3e2d 	ldclvs	14, cr3, [pc, #-180]	; 3970 <_Min_Stack_Size+0x3570>
    3a20:	2d637369 	stclcs	3, cr7, [r3, #-420]!	; 0xfffffe5c
    3a24:	63775f3e 	cmnvs	r7, #62, 30	; 0xf8
    3a28:	626d6f74 	rsbvs	r6, sp, #116, 30	; 0x1d0
    3a2c:	6174735f 	cmnvs	r4, pc, asr r3
    3a30:	5f2e6574 	svcpl	0x002e6574
    3a34:	6c61765f 	stclvs	6, cr7, [r1], #-380	; 0xfffffe84
    3a38:	5f2e6575 	svcpl	0x002e6575
    3a3c:	6863775f 	stmdavs	r3!, {r0, r1, r2, r3, r4, r6, r8, r9, sl, ip, sp, lr}^
    3a40:	30203d20 	eorcc	r3, r0, r0, lsr #26
    3a44:	725f203b 	subsvc	r2, pc, #59	; 0x3b
    3a48:	6d5f3e2d 	ldclvs	14, cr3, [pc, #-180]	; 399c <_Min_Stack_Size+0x359c>
    3a4c:	2d637369 	stclcs	3, cr7, [r3, #-420]!	; 0xfffffe5c
    3a50:	626d5f3e 	rsbvs	r5, sp, #62, 30	; 0xf8
    3a54:	63776f74 	cmnvs	r7, #116, 30	; 0x1d0
    3a58:	6174735f 	cmnvs	r4, pc, asr r3
    3a5c:	5f2e6574 	svcpl	0x002e6574
    3a60:	756f635f 	strbvc	r6, [pc, #-863]!	; 3709 <_Min_Stack_Size+0x3309>
    3a64:	3d20746e 	cfstrscc	mvf7, [r0, #-440]!	; 0xfffffe48
    3a68:	203b3020 	eorscs	r3, fp, r0, lsr #32
    3a6c:	3e2d725f 	mcrcc	2, 1, r7, cr13, cr15, {2}
    3a70:	73696d5f 	cmnvc	r9, #6080	; 0x17c0
    3a74:	5f3e2d63 	svcpl	0x003e2d63
    3a78:	6f74626d 	svcvs	0x0074626d
    3a7c:	735f6377 	cmpvc	pc, #-603979775	; 0xdc000001
    3a80:	65746174 	ldrbvs	r6, [r4, #-372]!	; 0xfffffe8c
    3a84:	765f5f2e 	ldrbvc	r5, [pc], -lr, lsr #30
    3a88:	65756c61 	ldrbvs	r6, [r5, #-3169]!	; 0xfffff39f
    3a8c:	775f5f2e 	ldrbvc	r5, [pc, -lr, lsr #30]
    3a90:	3d206863 	stccc	8, cr6, [r0, #-396]!	; 0xfffffe74
    3a94:	203b3020 	eorscs	r3, fp, r0, lsr #32
    3a98:	3e2d725f 	mcrcc	2, 1, r7, cr13, cr15, {2}
    3a9c:	73696d5f 	cmnvc	r9, #6080	; 0x17c0
    3aa0:	5f3e2d63 	svcpl	0x003e2d63
    3aa4:	6c72626d 	lfmvs	f6, 2, [r2], #-436	; 0xfffffe4c
    3aa8:	735f6e65 	cmpvc	pc, #1616	; 0x650
    3aac:	65746174 	ldrbvs	r6, [r4, #-372]!	; 0xfffffe8c
    3ab0:	635f5f2e 	cmpvs	pc, #46, 30	; 0xb8
    3ab4:	746e756f 	strbtvc	r7, [lr], #-1391	; 0xfffffa91
    3ab8:	30203d20 	eorcc	r3, r0, r0, lsr #26
    3abc:	725f203b 	subsvc	r2, pc, #59	; 0x3b
    3ac0:	6d5f3e2d 	ldclvs	14, cr3, [pc, #-180]	; 3a14 <_Min_Stack_Size+0x3614>
    3ac4:	2d637369 	stclcs	3, cr7, [r3, #-420]!	; 0xfffffe5c
    3ac8:	626d5f3e 	rsbvs	r5, sp, #62, 30	; 0xf8
    3acc:	6e656c72 	mcrvs	12, 3, r6, cr5, cr2, {3}
    3ad0:	6174735f 	cmnvs	r4, pc, asr r3
    3ad4:	5f2e6574 	svcpl	0x002e6574
    3ad8:	6c61765f 	stclvs	6, cr7, [r1], #-380	; 0xfffffe84
    3adc:	5f2e6575 	svcpl	0x002e6575
    3ae0:	6863775f 	stmdavs	r3!, {r0, r1, r2, r3, r4, r6, r8, r9, sl, ip, sp, lr}^
    3ae4:	30203d20 	eorcc	r3, r0, r0, lsr #26
    3ae8:	725f203b 	subsvc	r2, pc, #59	; 0x3b
    3aec:	6d5f3e2d 	ldclvs	14, cr3, [pc, #-180]	; 3a40 <_Min_Stack_Size+0x3640>
    3af0:	2d637369 	stclcs	3, cr7, [r3, #-420]!	; 0xfffffe5c
    3af4:	626d5f3e 	rsbvs	r5, sp, #62, 30	; 0xf8
    3af8:	776f7472 			; <UNDEFINED> instruction: 0x776f7472
    3afc:	74735f63 	ldrbtvc	r5, [r3], #-3939	; 0xfffff09d
    3b00:	2e657461 	cdpcs	4, 6, cr7, cr5, cr1, {3}
    3b04:	6f635f5f 	svcvs	0x00635f5f
    3b08:	20746e75 	rsbscs	r6, r4, r5, ror lr
    3b0c:	3b30203d 	blcc	c0bc08 <_Min_Stack_Size+0xc0b808>
    3b10:	2d725f20 	ldclcs	15, cr5, [r2, #-128]!	; 0xffffff80
    3b14:	696d5f3e 	stmdbvs	sp!, {r1, r2, r3, r4, r5, r8, r9, sl, fp, ip, lr}^
    3b18:	3e2d6373 	mcrcc	3, 1, r6, cr13, cr3, {3}
    3b1c:	72626d5f 	rsbvc	r6, r2, #6080	; 0x17c0
    3b20:	63776f74 	cmnvs	r7, #116, 30	; 0x1d0
    3b24:	6174735f 	cmnvs	r4, pc, asr r3
    3b28:	5f2e6574 	svcpl	0x002e6574
    3b2c:	6c61765f 	stclvs	6, cr7, [r1], #-380	; 0xfffffe84
    3b30:	5f2e6575 	svcpl	0x002e6575
    3b34:	6863775f 	stmdavs	r3!, {r0, r1, r2, r3, r4, r6, r8, r9, sl, ip, sp, lr}^
    3b38:	30203d20 	eorcc	r3, r0, r0, lsr #26
    3b3c:	725f203b 	subsvc	r2, pc, #59	; 0x3b
    3b40:	6d5f3e2d 	ldclvs	14, cr3, [pc, #-180]	; 3a94 <_Min_Stack_Size+0x3694>
    3b44:	2d637369 	stclcs	3, cr7, [r3, #-420]!	; 0xfffffe5c
    3b48:	626d5f3e 	rsbvs	r5, sp, #62, 30	; 0xf8
    3b4c:	6f747273 	svcvs	0x00747273
    3b50:	5f736377 	svcpl	0x00736377
    3b54:	74617473 	strbtvc	r7, [r1], #-1139	; 0xfffffb8d
    3b58:	5f5f2e65 	svcpl	0x005f2e65
    3b5c:	6e756f63 	cdpvs	15, 7, cr6, cr5, cr3, {3}
    3b60:	203d2074 	eorscs	r2, sp, r4, ror r0
    3b64:	5f203b30 	svcpl	0x00203b30
    3b68:	5f3e2d72 	svcpl	0x003e2d72
    3b6c:	6373696d 	cmnvs	r3, #1785856	; 0x1b4000
    3b70:	6d5f3e2d 	ldclvs	14, cr3, [pc, #-180]	; 3ac4 <_Min_Stack_Size+0x36c4>
    3b74:	74727362 	ldrbtvc	r7, [r2], #-866	; 0xfffffc9e
    3b78:	7363776f 	cmnvc	r3, #29097984	; 0x1bc0000
    3b7c:	6174735f 	cmnvs	r4, pc, asr r3
    3b80:	5f2e6574 	svcpl	0x002e6574
    3b84:	6c61765f 	stclvs	6, cr7, [r1], #-380	; 0xfffffe84
    3b88:	5f2e6575 	svcpl	0x002e6575
    3b8c:	6863775f 	stmdavs	r3!, {r0, r1, r2, r3, r4, r6, r8, r9, sl, ip, sp, lr}^
    3b90:	30203d20 	eorcc	r3, r0, r0, lsr #26
    3b94:	725f203b 	subsvc	r2, pc, #59	; 0x3b
    3b98:	6d5f3e2d 	ldclvs	14, cr3, [pc, #-180]	; 3aec <_Min_Stack_Size+0x36ec>
    3b9c:	2d637369 	stclcs	3, cr7, [r3, #-420]!	; 0xfffffe5c
    3ba0:	63775f3e 	cmnvs	r7, #62, 30	; 0xf8
    3ba4:	6d6f7472 	cfstrdvs	mvd7, [pc, #-456]!	; 39e4 <_Min_Stack_Size+0x35e4>
    3ba8:	74735f62 	ldrbtvc	r5, [r3], #-3938	; 0xfffff09e
    3bac:	2e657461 	cdpcs	4, 6, cr7, cr5, cr1, {3}
    3bb0:	6f635f5f 	svcvs	0x00635f5f
    3bb4:	20746e75 	rsbscs	r6, r4, r5, ror lr
    3bb8:	3b30203d 	blcc	c0bcb4 <_Min_Stack_Size+0xc0b8b4>
    3bbc:	2d725f20 	ldclcs	15, cr5, [r2, #-128]!	; 0xffffff80
    3bc0:	696d5f3e 	stmdbvs	sp!, {r1, r2, r3, r4, r5, r8, r9, sl, fp, ip, lr}^
    3bc4:	3e2d6373 	mcrcc	3, 1, r6, cr13, cr3, {3}
    3bc8:	7263775f 	rsbvc	r7, r3, #24903680	; 0x17c0000
    3bcc:	626d6f74 	rsbvs	r6, sp, #116, 30	; 0x1d0
    3bd0:	6174735f 	cmnvs	r4, pc, asr r3
    3bd4:	5f2e6574 	svcpl	0x002e6574
    3bd8:	6c61765f 	stclvs	6, cr7, [r1], #-380	; 0xfffffe84
    3bdc:	5f2e6575 	svcpl	0x002e6575
    3be0:	6863775f 	stmdavs	r3!, {r0, r1, r2, r3, r4, r6, r8, r9, sl, ip, sp, lr}^
    3be4:	30203d20 	eorcc	r3, r0, r0, lsr #26
    3be8:	725f203b 	subsvc	r2, pc, #59	; 0x3b
    3bec:	6d5f3e2d 	ldclvs	14, cr3, [pc, #-180]	; 3b40 <_Min_Stack_Size+0x3740>
    3bf0:	2d637369 	stclcs	3, cr7, [r3, #-420]!	; 0xfffffe5c
    3bf4:	63775f3e 	cmnvs	r7, #62, 30	; 0xf8
    3bf8:	6f747273 	svcvs	0x00747273
    3bfc:	5f73626d 	svcpl	0x0073626d
    3c00:	74617473 	strbtvc	r7, [r1], #-1139	; 0xfffffb8d
    3c04:	5f5f2e65 	svcpl	0x005f2e65
    3c08:	6e756f63 	cdpvs	15, 7, cr6, cr5, cr3, {3}
    3c0c:	203d2074 	eorscs	r2, sp, r4, ror r0
    3c10:	5f203b30 	svcpl	0x00203b30
    3c14:	5f3e2d72 	svcpl	0x003e2d72
    3c18:	6373696d 	cmnvs	r3, #1785856	; 0x1b4000
    3c1c:	775f3e2d 	ldrbvc	r3, [pc, -sp, lsr #28]
    3c20:	74727363 	ldrbtvc	r7, [r2], #-867	; 0xfffffc9d
    3c24:	73626d6f 	cmnvc	r2, #7104	; 0x1bc0
    3c28:	6174735f 	cmnvs	r4, pc, asr r3
    3c2c:	5f2e6574 	svcpl	0x002e6574
    3c30:	6c61765f 	stclvs	6, cr7, [r1], #-380	; 0xfffffe84
    3c34:	5f2e6575 	svcpl	0x002e6575
    3c38:	6863775f 	stmdavs	r3!, {r0, r1, r2, r3, r4, r6, r8, r9, sl, ip, sp, lr}^
    3c3c:	30203d20 	eorcc	r3, r0, r0, lsr #26
    3c40:	5f5f203b 	svcpl	0x005f203b
    3c44:	4e454552 	mcrmi	5, 2, r4, cr5, cr2, {2}
    3c48:	4e495f54 	mcrmi	15, 2, r5, cr9, cr4, {2}
    3c4c:	4d5f5449 	cfldrdmi	mvd5, [pc, #-292]	; 3b30 <_Min_Stack_Size+0x3730>
    3c50:	5f435349 	svcpl	0x00435349
    3c54:	4c544547 	cfldr64mi	mvdx4, [r4], {71}	; 0x47
    3c58:	4c41434f 	mcrrmi	3, 4, r4, r1, cr15
    3c5c:	4d414e45 	stclmi	14, cr4, [r1, #-276]	; 0xfffffeec
    3c60:	3b4c5f45 	blcc	131b97c <_Min_Stack_Size+0x131b57c>
    3c64:	2d725f20 	ldclcs	15, cr5, [r2, #-128]!	; 0xffffff80
    3c68:	696d5f3e 	stmdbvs	sp!, {r1, r2, r3, r4, r5, r8, r9, sl, fp, ip, lr}^
    3c6c:	3e2d6373 	mcrcc	3, 1, r6, cr13, cr3, {3}
    3c70:	34366c5f 	ldrtcc	r6, [r6], #-3167	; 0xfffff3a1
    3c74:	75625f61 	strbvc	r5, [r2, #-3937]!	; 0xfffff09f
    3c78:	5d305b66 	vldmdbpl	r0!, {d5-<overflow reg d55>}
    3c7c:	27203d20 	strcs	r3, [r0, -r0, lsr #26]!
    3c80:	3b27305c 	blcc	9cfdf8 <_Min_Stack_Size+0x9cf9f8>
    3c84:	2d725f20 	ldclcs	15, cr5, [r2, #-128]!	; 0xffffff80
    3c88:	696d5f3e 	stmdbvs	sp!, {r1, r2, r3, r4, r5, r8, r9, sl, fp, ip, lr}^
    3c8c:	3e2d6373 	mcrcc	3, 1, r6, cr13, cr3, {3}
    3c90:	7465675f 	strbtvc	r6, [r5], #-1887	; 0xfffff8a1
    3c94:	65746164 	ldrbvs	r6, [r4, #-356]!	; 0xfffffe9c
    3c98:	7272655f 	rsbsvc	r6, r2, #398458880	; 0x17c00000
    3c9c:	30203d20 	eorcc	r3, r0, r0, lsr #26
    3ca0:	207d203b 	rsbscs	r2, sp, fp, lsr r0
    3ca4:	6c696877 	stclvs	8, cr6, [r9], #-476	; 0xfffffe24
    3ca8:	30282065 	eorcc	r2, r8, r5, rrx
    3cac:	5f5f0029 	svcpl	0x005f0029
    3cb0:	41524653 	cmpmi	r2, r3, asr r6
    3cb4:	495f5443 	ldmdbmi	pc, {r0, r1, r6, sl, ip, lr}^	; <UNPREDICTABLE>
    3cb8:	5f544942 	svcpl	0x00544942
    3cbc:	0030205f 	eorseq	r2, r0, pc, asr r0
    3cc0:	4654415f 			; <UNDEFINED> instruction: 0x4654415f
    3cc4:	5f454c49 	svcpl	0x00454c49
    3cc8:	52554f53 	subspl	r4, r5, #332	; 0x14c
    3ccc:	31204543 			; <UNDEFINED> instruction: 0x31204543
    3cd0:	455f5f00 	ldrbmi	r5, [pc, #-3840]	; 2dd8 <_Min_Stack_Size+0x29d8>
    3cd4:	78285058 	stmdavc	r8!, {r3, r4, r6, ip, lr}
    3cd8:	5f5f2029 	svcpl	0x005f2029
    3cdc:	78232320 	stmdavc	r3!, {r5, r8, r9, sp}
    3ce0:	5f232320 	svcpl	0x00232320
    3ce4:	5f5f005f 	svcpl	0x005f005f
    3ce8:	45545942 	ldrbmi	r5, [r4, #-2370]	; 0xfffff6be
    3cec:	44524f5f 	ldrbmi	r4, [r2], #-3935	; 0xfffff0a1
    3cf0:	5f5f5245 	svcpl	0x005f5245
    3cf4:	4f5f5f20 	svcmi	0x005f5f20
    3cf8:	52454452 	subpl	r4, r5, #1375731712	; 0x52000000
    3cfc:	54494c5f 	strbpl	r4, [r9], #-3167	; 0xfffff3a1
    3d00:	5f454c54 	svcpl	0x00454c54
    3d04:	49444e45 	stmdbmi	r4, {r0, r2, r6, r9, sl, fp, lr}^
    3d08:	5f5f4e41 	svcpl	0x005f4e41
    3d0c:	465f5f00 	ldrbmi	r5, [pc], -r0, lsl #30
    3d10:	3233544c 	eorscc	r5, r3, #76, 8	; 0x4c000000
    3d14:	5350455f 	cmppl	r0, #398458880	; 0x17c00000
    3d18:	4e4f4c49 	cdpmi	12, 4, cr4, cr15, cr9, {2}
    3d1c:	31205f5f 			; <UNDEFINED> instruction: 0x31205f5f
    3d20:	3239312e 	eorscc	r3, r9, #-2147483637	; 0x8000000b
    3d24:	38323930 	ldmdacc	r2!, {r4, r5, r8, fp, ip, sp}
    3d28:	30353539 	eorscc	r3, r5, r9, lsr r5
    3d2c:	32313837 	eorscc	r3, r1, #3604480	; 0x370000
    3d30:	372d6535 			; <UNDEFINED> instruction: 0x372d6535
    3d34:	00323346 	eorseq	r3, r2, r6, asr #6
    3d38:	52415f5f 	subpl	r5, r1, #380	; 0x17c
    3d3c:	454e5f4d 	strbmi	r5, [lr, #-3917]	; 0xfffff0b3
    3d40:	465f4e4f 	ldrbmi	r4, [pc], -pc, asr #28
    3d44:	4e5f0050 	mrcmi	0, 2, r0, cr15, cr0, {2}
    3d48:	5248544f 	subpl	r5, r8, #1325400064	; 0x4f000000
    3d4c:	0020574f 	eoreq	r5, r0, pc, asr #14
    3d50:	66735f5f 	uhsaxvs	r5, r3, pc	; <UNPREDICTABLE>
    3d54:	28666f65 	stmdacs	r6!, {r0, r2, r5, r6, r8, r9, sl, fp, sp, lr}^
    3d58:	28202970 	stmdacs	r0!, {r4, r5, r6, r8, fp, sp}
    3d5c:	746e6928 	strbtvc	r6, [lr], #-2344	; 0xfffff6d8
    3d60:	28282829 	stmdacs	r8!, {r0, r3, r5, fp, sp}
    3d64:	3e2d2970 			; <UNDEFINED> instruction: 0x3e2d2970
    3d68:	616c665f 	cmnvs	ip, pc, asr r6
    3d6c:	26207367 	strtcs	r7, [r0], -r7, ror #6
    3d70:	535f5f20 	cmppl	pc, #32, 30	; 0x80
    3d74:	29464f45 	stmdbcs	r6, {r0, r2, r6, r8, r9, sl, fp, lr}^
    3d78:	203d2120 	eorscs	r2, sp, r0, lsr #2
    3d7c:	00292930 	eoreq	r2, r9, r0, lsr r9
    3d80:	534e415f 	movtpl	r4, #57695	; 0xe15f
    3d84:	43454449 	movtmi	r4, #21577	; 0x5449
    3d88:	5f485f4c 	svcpl	0x00485f4c
    3d8c:	4f450020 	svcmi	0x00450020
    3d90:	2d282046 	stccs	0, cr2, [r8, #-280]!	; 0xfffffee8
    3d94:	5f002931 	svcpl	0x00002931
    3d98:	4749535f 	smlsldmi	r5, r9, pc, r3	; <UNPREDICTABLE>
    3d9c:	4f54415f 	svcmi	0x0054415f
    3da0:	5f43494d 	svcpl	0x0043494d
    3da4:	45505954 	ldrbmi	r5, [r0, #-2388]	; 0xfffff6ac
    3da8:	69205f5f 	stmdbvs	r0!, {r0, r1, r2, r3, r4, r6, r8, r9, sl, fp, ip, lr}
    3dac:	5f00746e 	svcpl	0x0000746e
    3db0:	4e454552 	mcrmi	5, 2, r4, cr5, cr2, {2}
    3db4:	4e495f54 	mcrmi	15, 2, r5, cr9, cr4, {2}
    3db8:	505f5449 	subspl	r5, pc, r9, asr #8
    3dbc:	5a5f5254 	bpl	17d8714 <_Min_Stack_Size+0x17d8314>
    3dc0:	454f5245 	strbmi	r5, [pc, #-581]	; 3b83 <_Min_Stack_Size+0x3783>
    3dc4:	61762844 	cmnvs	r6, r4, asr #16
    3dc8:	7b202972 	blvc	80e398 <_Min_Stack_Size+0x80df98>
    3dcc:	61762820 	cmnvs	r6, r0, lsr #16
    3dd0:	3e2d2972 			; <UNDEFINED> instruction: 0x3e2d2972
    3dd4:	6474735f 	ldrbtvs	r7, [r4], #-863	; 0xfffffca1
    3dd8:	3d206e69 	stccc	14, cr6, [r0, #-420]!	; 0xfffffe5c
    3ddc:	5f5f2620 	svcpl	0x005f2620
    3de0:	305b6673 	subscc	r6, fp, r3, ror r6
    3de4:	28203b5d 	stmdacs	r0!, {r0, r2, r3, r4, r6, r8, r9, fp, ip, sp}
    3de8:	29726176 	ldmdbcs	r2!, {r1, r2, r4, r5, r6, r8, sp, lr}^
    3dec:	735f3e2d 	cmpvc	pc, #720	; 0x2d0
    3df0:	756f6474 	strbvc	r6, [pc, #-1140]!	; 3984 <_Min_Stack_Size+0x3584>
    3df4:	203d2074 	eorscs	r2, sp, r4, ror r0
    3df8:	735f5f26 	cmpvc	pc, #38, 30	; 0x98
    3dfc:	5d315b66 	vldmdbpl	r1!, {d5-<overflow reg d55>}
    3e00:	7628203b 			; <UNDEFINED> instruction: 0x7628203b
    3e04:	2d297261 	sfmcs	f7, 4, [r9, #-388]!	; 0xfffffe7c
    3e08:	74735f3e 	ldrbtvc	r5, [r3], #-3902	; 0xfffff0c2
    3e0c:	72726564 	rsbsvc	r6, r2, #100, 10	; 0x19000000
    3e10:	26203d20 	strtcs	r3, [r0], -r0, lsr #26
    3e14:	66735f5f 	uhsaxvs	r5, r3, pc	; <UNPREDICTABLE>
    3e18:	3b5d325b 	blcc	175078c <_Min_Stack_Size+0x175038c>
    3e1c:	5f007d20 	svcpl	0x00007d20
    3e20:	5246555f 	subpl	r5, r6, #398458880	; 0x17c00000
    3e24:	5f544341 	svcpl	0x00544341
    3e28:	54494246 	strbpl	r4, [r9], #-582	; 0xfffffdba
    3e2c:	31205f5f 			; <UNDEFINED> instruction: 0x31205f5f
    3e30:	5f5f0036 	svcpl	0x005f0036
    3e34:	5f514455 	svcpl	0x00514455
    3e38:	54494246 	strbpl	r4, [r9], #-582	; 0xfffffdba
    3e3c:	36205f5f 	qsaxcc	r5, r0, pc	; <UNPREDICTABLE>
    3e40:	5f5f0034 	svcpl	0x005f0034
    3e44:	5f4c4244 	svcpl	0x004c4244
    3e48:	4d524f4e 	ldclmi	15, cr4, [r2, #-312]	; 0xfffffec8
    3e4c:	58414d5f 	stmdapl	r1, {r0, r1, r2, r3, r4, r6, r8, sl, fp, lr}^
    3e50:	28205f5f 	stmdacs	r0!, {r0, r1, r2, r3, r4, r6, r8, r9, sl, fp, ip, lr}
    3e54:	756f6428 	strbvc	r6, [pc, #-1064]!	; 3a34 <_Min_Stack_Size+0x3634>
    3e58:	29656c62 	stmdbcs	r5!, {r1, r5, r6, sl, fp, sp, lr}^
    3e5c:	39372e31 	ldmdbcc	r7!, {r0, r4, r5, r9, sl, fp, sp}
    3e60:	33393637 	teqcc	r9, #57671680	; 0x3700000
    3e64:	38343331 	ldmdacc	r4!, {r0, r4, r5, r8, r9, ip, sp}
    3e68:	31333236 	teqcc	r3, r6, lsr r2
    3e6c:	2b653735 	blcs	1951b48 <_Min_Stack_Size+0x1951748>
    3e70:	4c383033 	ldcmi	0, cr3, [r8], #-204	; 0xffffff34
    3e74:	5f5f0029 	svcpl	0x005f0029
    3e78:	43554e47 	cmpmi	r5, #1136	; 0x470
    3e7c:	454b494c 	strbmi	r4, [fp, #-2380]	; 0xfffff6b4
    3e80:	4955425f 	ldmdbmi	r5, {r0, r1, r2, r3, r4, r6, r9, lr}^
    3e84:	4e49544c 	cdpmi	4, 4, cr5, cr9, cr12, {2}
    3e88:	4d454d5f 	stclmi	13, cr4, [r5, #-380]	; 0xfffffe84
    3e8c:	20595043 	subscs	r5, r9, r3, asr #32
    3e90:	5f5f0031 	svcpl	0x005f0031
    3e94:	414f4c46 	cmpmi	pc, r6, asr #24
    3e98:	59545f54 	ldmdbpl	r4, {r2, r4, r6, r8, r9, sl, fp, ip, lr}^
    3e9c:	66204550 			; <UNDEFINED> instruction: 0x66204550
    3ea0:	74616f6c 	strbtvc	r6, [r1], #-3948	; 0xfffff094
    3ea4:	415f5f00 	cmpmi	pc, r0, lsl #30
    3ea8:	5f534350 	svcpl	0x00534350
    3eac:	5f5f3233 	svcpl	0x005f3233
    3eb0:	5f003120 	svcpl	0x00003120
    3eb4:	4f45535f 	svcmi	0x0045535f
    3eb8:	78302046 	ldmdavc	r0!, {r1, r2, r6, sp}
    3ebc:	30323030 	eorscc	r3, r2, r0, lsr r0
    3ec0:	45525f00 	ldrbmi	r5, [r2, #-3840]	; 0xfffff100
    3ec4:	5f544e45 	svcpl	0x00544e45
    3ec8:	4c52424d 	lfmmi	f4, 2, [r2], {77}	; 0x4d
    3ecc:	535f4e45 	cmppl	pc, #1104	; 0x450
    3ed0:	45544154 	ldrbmi	r4, [r4, #-340]	; 0xfffffeac
    3ed4:	72747028 	rsbsvc	r7, r4, #40	; 0x28
    3ed8:	28282029 	stmdacs	r8!, {r0, r3, r5, sp}
    3edc:	29727470 	ldmdbcs	r2!, {r4, r5, r6, sl, ip, sp, lr}^
    3ee0:	6d5f3e2d 	ldclvs	14, cr3, [pc, #-180]	; 3e34 <_Min_Stack_Size+0x3a34>
    3ee4:	2d637369 	stclcs	3, cr7, [r3, #-420]!	; 0xfffffe5c
    3ee8:	626d5f3e 	rsbvs	r5, sp, #62, 30	; 0xf8
    3eec:	6e656c72 	mcrvs	12, 3, r6, cr5, cr2, {3}
    3ef0:	6174735f 	cmnvs	r4, pc, asr r3
    3ef4:	00296574 	eoreq	r6, r9, r4, ror r5
    3ef8:	42445f5f 	submi	r5, r4, #380	; 0x17c
    3efc:	45445f4c 	strbmi	r5, [r4, #-3916]	; 0xfffff0b4
    3f00:	4d524f4e 	ldclmi	15, cr4, [r2, #-312]	; 0xfffffec8
    3f04:	4e494d5f 	mcrmi	13, 2, r4, cr9, cr15, {2}
    3f08:	28205f5f 	stmdacs	r0!, {r0, r1, r2, r3, r4, r6, r8, r9, sl, fp, ip, lr}
    3f0c:	756f6428 	strbvc	r6, [pc, #-1064]!	; 3aec <_Min_Stack_Size+0x36ec>
    3f10:	29656c62 	stmdbcs	r5!, {r1, r5, r6, sl, fp, sp, lr}^
    3f14:	34392e34 	ldrtcc	r2, [r9], #-3636	; 0xfffff1cc
    3f18:	36353630 			; <UNDEFINED> instruction: 0x36353630
    3f1c:	34383534 	ldrtcc	r3, [r8], #-1332	; 0xfffffacc
    3f20:	36343231 			; <UNDEFINED> instruction: 0x36343231
    3f24:	2d653435 	cfstrdcs	mvd3, [r5, #-212]!	; 0xffffff2c
    3f28:	4c343233 	lfmmi	f3, 4, [r4], #-204	; 0xffffff34
    3f2c:	475f0029 	ldrbmi	r0, [pc, -r9, lsr #32]
    3f30:	41424f4c 	cmpmi	r2, ip, asr #30
    3f34:	45525f4c 	ldrbmi	r5, [r2, #-3916]	; 0xfffff0b4
    3f38:	20544e45 	subscs	r4, r4, r5, asr #28
    3f3c:	695f2628 	ldmdbvs	pc, {r3, r5, r9, sl, sp}^	; <UNPREDICTABLE>
    3f40:	7275706d 	rsbsvc	r7, r5, #109	; 0x6d
    3f44:	61645f65 	cmnvs	r4, r5, ror #30
    3f48:	00296174 	eoreq	r6, r9, r4, ror r1
    3f4c:	4e495f5f 	mcrmi	15, 2, r5, cr9, cr15, {2}
    3f50:	41465f54 	cmpmi	r6, r4, asr pc
    3f54:	32335453 	eorscc	r5, r3, #1392508928	; 0x53000000
    3f58:	5059545f 	subspl	r5, r9, pc, asr r4
    3f5c:	205f5f45 	subscs	r5, pc, r5, asr #30
    3f60:	00746e69 	rsbseq	r6, r4, r9, ror #28
    3f64:	74635f4c 	strbtvc	r5, [r3], #-3916	; 0xfffff0b4
    3f68:	696d7265 	stmdbvs	sp!, {r0, r2, r5, r6, r9, ip, sp, lr}^
    3f6c:	36312064 	ldrtcc	r2, [r1], -r4, rrx
    3f70:	4e5f5f00 	cdpmi	15, 5, cr5, cr15, cr0, {0}
    3f74:	494c5745 	stmdbmi	ip, {r0, r2, r6, r8, r9, sl, ip, lr}^
    3f78:	494d5f42 	stmdbmi	sp, {r1, r6, r8, r9, sl, fp, ip, lr}^
    3f7c:	5f524f4e 	svcpl	0x00524f4e
    3f80:	0034205f 	eorseq	r2, r4, pc, asr r0
    3f84:	4c465f5f 	mcrrmi	15, 5, r5, r6, cr15
    3f88:	5f343654 	svcpl	0x00343654
    3f8c:	5f534148 	svcpl	0x00534148
    3f90:	45495551 	strbmi	r5, [r9, #-1361]	; 0xfffffaaf
    3f94:	414e5f54 	cmpmi	lr, r4, asr pc
    3f98:	205f5f4e 	subscs	r5, pc, lr, asr #30
    3f9c:	5f5f0031 	svcpl	0x005f0031
    3fa0:	414c4c55 	cmpmi	ip, r5, asr ip
    3fa4:	4d554343 	ldclmi	3, cr4, [r5, #-268]	; 0xfffffef4
    3fa8:	58414d5f 	stmdapl	r1, {r0, r1, r2, r3, r4, r6, r8, sl, fp, lr}^
    3fac:	30205f5f 	eorcc	r5, r0, pc, asr pc
    3fb0:	46464658 			; <UNDEFINED> instruction: 0x46464658
    3fb4:	46464646 	strbmi	r4, [r6], -r6, asr #12
    3fb8:	46464646 	strbmi	r4, [r6], -r6, asr #12
    3fbc:	46464646 	strbmi	r4, [r6], -r6, asr #12
    3fc0:	332d5046 			; <UNDEFINED> instruction: 0x332d5046
    3fc4:	4c4c5532 	cfstr64mi	mvdx5, [ip], {50}	; 0x32
    3fc8:	5f5f004b 	svcpl	0x005f004b
    3fcc:	43415355 	movtmi	r5, #4949	; 0x1355
    3fd0:	5f4d5543 	svcpl	0x004d5543
    3fd4:	54494249 	strbpl	r4, [r9], #-585	; 0xfffffdb7
    3fd8:	38205f5f 	stmdacc	r0!, {r0, r1, r2, r3, r4, r6, r8, r9, sl, fp, ip, lr}
    3fdc:	415f5f00 	cmpmi	pc, r0, lsl #30
    3fe0:	415f4d52 	cmpmi	pc, r2, asr sp	; <UNPREDICTABLE>
    3fe4:	5f484352 	svcpl	0x00484352
    3fe8:	5f4d4537 	svcpl	0x004d4537
    3fec:	0031205f 	eorseq	r2, r1, pc, asr r0
    3ff0:	4c465f5f 	mcrrmi	15, 5, r5, r6, cr15
    3ff4:	5f343654 	svcpl	0x00343654
    3ff8:	5f534148 	svcpl	0x00534148
    3ffc:	4f4e4544 	svcmi	0x004e4544
    4000:	5f5f4d52 	svcpl	0x005f4d52
    4004:	5f003120 	svcpl	0x00003120
    4008:	544c465f 	strbpl	r4, [ip], #-1631	; 0xfffff9a1
    400c:	4749445f 	smlsldmi	r4, r9, pc, r4	; <UNPREDICTABLE>
    4010:	36205f5f 	qsaxcc	r5, r0, pc	; <UNPREDICTABLE>
    4014:	555f5f00 	ldrbpl	r5, [pc, #-3840]	; 311c <_Min_Stack_Size+0x2d1c>
    4018:	55434341 	strbpl	r4, [r3, #-833]	; 0xfffffcbf
    401c:	50455f4d 	subpl	r5, r5, sp, asr #30
    4020:	4f4c4953 	svcmi	0x004c4953
    4024:	205f5f4e 	subscs	r5, pc, lr, asr #30
    4028:	50317830 	eorspl	r7, r1, r0, lsr r8
    402c:	5536312d 	ldrpl	r3, [r6, #-301]!	; 0xfffffed3
    4030:	575f004b 	ldrbpl	r0, [pc, -fp, asr #32]
    4034:	52414843 	subpl	r4, r1, #4390912	; 0x430000
    4038:	445f545f 	ldrbmi	r5, [pc], #-1119	; 4040 <_Min_Stack_Size+0x3c40>
    403c:	414c4345 	cmpmi	ip, r5, asr #6
    4040:	20444552 	subcs	r4, r4, r2, asr r5
    4044:	59535f00 	ldmdbpl	r3, {r8, r9, sl, fp, ip, lr}^
    4048:	45525f53 	ldrbmi	r5, [r2, #-3923]	; 0xfffff0ad
    404c:	5f544e45 	svcpl	0x00544e45
    4050:	00205f48 	eoreq	r5, r0, r8, asr #30
    4054:	4c465f5f 	mcrrmi	15, 5, r5, r6, cr15
    4058:	56455f54 			; <UNDEFINED> instruction: 0x56455f54
    405c:	4d5f4c41 	ldclmi	12, cr4, [pc, #-260]	; 3f60 <_Min_Stack_Size+0x3b60>
    4060:	4f485445 	svcmi	0x00485445
    4064:	205f5f44 	subscs	r5, pc, r4, asr #30
    4068:	5f5f0030 	svcpl	0x005f0030
    406c:	41484353 	cmpmi	r8, r3, asr r3
    4070:	414d5f52 	cmpmi	sp, r2, asr pc
    4074:	205f5f58 	subscs	r5, pc, r8, asr pc	; <UNPREDICTABLE>
    4078:	66377830 			; <UNDEFINED> instruction: 0x66377830
    407c:	495f5f00 	ldmdbmi	pc, {r8, r9, sl, fp, ip, lr}^	; <UNPREDICTABLE>
    4080:	465f544e 	ldrbmi	r5, [pc], -lr, asr #8
    4084:	38545341 	ldmdacc	r4, {r0, r6, r8, r9, ip, lr}^
    4088:	4449575f 	strbmi	r5, [r9], #-1887	; 0xfffff8a1
    408c:	5f5f4854 	svcpl	0x005f4854
    4090:	00323320 	eorseq	r3, r2, r0, lsr #6
    4094:	54535f5f 	ldrbpl	r5, [r3], #-3935	; 0xfffff0a1
    4098:	555f4344 	ldrbpl	r4, [pc, #-836]	; 3d5c <_Min_Stack_Size+0x395c>
    409c:	315f4654 	cmpcc	pc, r4, asr r6	; <UNPREDICTABLE>
    40a0:	205f5f36 	subscs	r5, pc, r6, lsr pc	; <UNPREDICTABLE>
    40a4:	525f0031 	subspl	r0, pc, #49	; 0x31
    40a8:	34444e41 	strbcc	r4, [r4], #-3649	; 0xfffff1bf
    40ac:	554d5f38 	strbpl	r5, [sp, #-3896]	; 0xfffff0c8
    40b0:	325f544c 	subscc	r5, pc, #76, 8	; 0x4c000000
    40b4:	78302820 	ldmdavc	r0!, {r5, fp, sp}
    40b8:	35303030 	ldrcc	r3, [r0, #-48]!	; 0xffffffd0
    40bc:	5f5f0029 	svcpl	0x005f0029
    40c0:	5f4d5241 	svcpl	0x004d5241
    40c4:	54414546 	strbpl	r4, [r1], #-1350	; 0xfffffaba
    40c8:	5f455255 	svcpl	0x00455255
    40cc:	4552444c 	ldrbmi	r4, [r2, #-1100]	; 0xfffffbb4
    40d0:	525f0058 	subspl	r0, pc, #88	; 0x58
    40d4:	544e4545 	strbpl	r4, [lr], #-1349	; 0xfffffabb
    40d8:	4548435f 	strbmi	r4, [r8, #-863]	; 0xfffffca1
    40dc:	4d5f4b43 	vldrmi	d20, [pc, #-268]	; 3fd8 <_Min_Stack_Size+0x3bd8>
    40e0:	28435349 	stmdacs	r3, {r0, r3, r6, r8, r9, ip, lr}^
    40e4:	29726176 	ldmdbcs	r2!, {r1, r2, r4, r5, r6, r8, sp, lr}^
    40e8:	45525f20 	ldrbmi	r5, [r2, #-3872]	; 0xfffff0e0
    40ec:	5f544e45 	svcpl	0x00544e45
    40f0:	43454843 	movtmi	r4, #22595	; 0x5843
    40f4:	6176284b 	cmnvs	r6, fp, asr #16
    40f8:	5f202c72 	svcpl	0x00202c72
    40fc:	6373696d 	cmnvs	r3, #1785856	; 0x1b4000
    4100:	7473202c 	ldrbtvc	r2, [r3], #-44	; 0xffffffd4
    4104:	74637572 	strbtvc	r7, [r3], #-1394	; 0xfffffa8e
    4108:	696d5f20 	stmdbvs	sp!, {r5, r8, r9, sl, fp, ip, lr}^
    410c:	725f6373 	subsvc	r6, pc, #-872415231	; 0xcc000001
    4110:	746e6565 	strbtvc	r6, [lr], #-1381	; 0xfffffa9b
    4114:	202c2a20 	eorcs	r2, ip, r0, lsr #20
    4118:	657a6973 	ldrbvs	r6, [sl, #-2419]!	; 0xfffff68d
    411c:	2a20666f 	bcs	81dae0 <_Min_Stack_Size+0x81d6e0>
    4120:	61762828 	cmnvs	r6, r8, lsr #16
    4124:	3e2d2972 			; <UNDEFINED> instruction: 0x3e2d2972
    4128:	73696d5f 	cmnvc	r9, #6080	; 0x17c0
    412c:	202c2963 	eorcs	r2, ip, r3, ror #18
    4130:	4545525f 	strbmi	r5, [r5, #-607]	; 0xfffffda1
    4134:	495f544e 	ldmdbmi	pc, {r1, r2, r3, r6, sl, ip, lr}^	; <UNPREDICTABLE>
    4138:	5f54494e 	svcpl	0x0054494e
    413c:	4353494d 	cmpmi	r3, #1261568	; 0x134000
    4140:	72617628 	rsbvc	r7, r1, #40, 12	; 0x2800000
    4144:	5f002929 	svcpl	0x00002929
    4148:	54505f54 	ldrbpl	r5, [r0], #-3924	; 0xfffff0ac
    414c:	46494452 			; <UNDEFINED> instruction: 0x46494452
    4150:	5f002046 	svcpl	0x00002046
    4154:	5151555f 	cmppl	r1, pc, asr r5
    4158:	4942465f 	stmdbmi	r2, {r0, r1, r2, r3, r4, r6, r9, sl, lr}^
    415c:	205f5f54 	subscs	r5, pc, r4, asr pc	; <UNPREDICTABLE>
    4160:	54530038 	ldrbpl	r0, [r3], #-56	; 0xffffffc8
    4164:	4632334d 	ldrtmi	r3, [r2], -sp, asr #6
    4168:	00312034 	eorseq	r2, r1, r4, lsr r0
    416c:	49575f5f 	ldmdbmi	r7, {r0, r1, r2, r3, r4, r6, r8, r9, sl, fp, ip, lr}^
    4170:	545f544e 	ldrbpl	r5, [pc], #-1102	; 4178 <_Min_Stack_Size+0x3d78>
    4174:	5f455059 	svcpl	0x00455059
    4178:	6e75205f 	mrcvs	0, 3, r2, cr5, cr15, {2}
    417c:	6e676973 			; <UNDEFINED> instruction: 0x6e676973
    4180:	69206465 	stmdbvs	r0!, {r0, r2, r5, r6, sl, sp, lr}
    4184:	5f00746e 	svcpl	0x0000746e
    4188:	4d52415f 	ldfmie	f4, [r2, #-380]	; 0xfffffe84
    418c:	3150465f 	cmpcc	r0, pc, asr r6
    4190:	52415f36 	subpl	r5, r1, #54, 30	; 0xd8
    4194:	5f005347 	svcpl	0x00005347
    4198:	4343475f 	movtmi	r4, #14175	; 0x375f
    419c:	4345495f 	movtmi	r4, #22879	; 0x595f
    41a0:	3935355f 	ldmdbcc	r5!, {r0, r1, r2, r3, r4, r6, r8, sl, ip, sp}
    41a4:	5f003020 	svcpl	0x00003020
    41a8:	4e454552 	mcrmi	5, 2, r4, cr5, cr2, {2}
    41ac:	43575f54 	cmpmi	r7, #84, 30	; 0x150
    41b0:	424d4f54 	submi	r4, sp, #84, 30	; 0x150
    41b4:	4154535f 	cmpmi	r4, pc, asr r3
    41b8:	70284554 	eorvc	r4, r8, r4, asr r5
    41bc:	20297274 	eorcs	r7, r9, r4, ror r2
    41c0:	74702828 	ldrbtvc	r2, [r0], #-2088	; 0xfffff7d8
    41c4:	3e2d2972 			; <UNDEFINED> instruction: 0x3e2d2972
    41c8:	73696d5f 	cmnvc	r9, #6080	; 0x17c0
    41cc:	5f3e2d63 	svcpl	0x003e2d63
    41d0:	6f746377 	svcvs	0x00746377
    41d4:	735f626d 	cmpvc	pc, #-805306362	; 0xd0000006
    41d8:	65746174 	ldrbvs	r6, [r4, #-372]!	; 0xfffffe8c
    41dc:	5f5f0029 	svcpl	0x005f0029
    41e0:	75716572 	ldrbvc	r6, [r1, #-1394]!	; 0xfffffa8e
    41e4:	73657269 	cmnvc	r5, #-1879048186	; 0x90000006
    41e8:	6c6e755f 	cfstr64vs	mvdx7, [lr], #-380	; 0xfffffe84
    41ec:	656b636f 	strbvs	r6, [fp, #-879]!	; 0xfffffc91
    41f0:	2e2e2864 	cdpcs	8, 2, cr2, cr14, cr4, {3}
    41f4:	5f20292e 	svcpl	0x0020292e
    41f8:	636f6c5f 	cmnvs	pc, #24320	; 0x5f00
    41fc:	6e615f6b 	cdpvs	15, 6, cr5, cr1, cr11, {3}
    4200:	61746f6e 	cmnvs	r4, lr, ror #30
    4204:	6c286574 	cfstr32vs	mvfx6, [r8], #-464	; 0xfffffe30
    4208:	736b636f 	cmnvc	fp, #-1140850687	; 0xbc000001
    420c:	6378655f 	cmnvs	r8, #398458880	; 0x17c00000
    4210:	6564756c 	strbvs	r7, [r4, #-1388]!	; 0xfffffa94
    4214:	5f5f2864 	svcpl	0x005f2864
    4218:	415f4156 	cmpmi	pc, r6, asr r1	; <UNPREDICTABLE>
    421c:	5f534752 	svcpl	0x00534752
    4220:	0029295f 	eoreq	r2, r9, pc, asr r9
    4224:	464c5f5f 			; <UNDEFINED> instruction: 0x464c5f5f
    4228:	54434152 	strbpl	r4, [r3], #-338	; 0xfffffeae
    422c:	58414d5f 	stmdapl	r1, {r0, r1, r2, r3, r4, r6, r8, sl, fp, lr}^
    4230:	30205f5f 	eorcc	r5, r0, pc, asr pc
    4234:	46463758 			; <UNDEFINED> instruction: 0x46463758
    4238:	46464646 	strbmi	r4, [r6], -r6, asr #12
    423c:	332d5046 			; <UNDEFINED> instruction: 0x332d5046
    4240:	00524c31 	subseq	r4, r2, r1, lsr ip
    4244:	49535f5f 	ldmdbmi	r3, {r0, r1, r2, r3, r4, r6, r8, r9, sl, fp, ip, lr}^
    4248:	464f455a 			; <UNDEFINED> instruction: 0x464f455a
    424c:	5254505f 	subspl	r5, r4, #95	; 0x5f
    4250:	46464944 	strbmi	r4, [r6], -r4, asr #18
    4254:	5f5f545f 	svcpl	0x005f545f
    4258:	5f003420 	svcpl	0x00003420
    425c:	44525450 	ldrbmi	r5, [r2], #-1104	; 0xfffffbb0
    4260:	5f464649 	svcpl	0x00464649
    4264:	45445f54 	strbmi	r5, [r4, #-3924]	; 0xfffff0ac
    4268:	52414c43 	subpl	r4, r1, #17152	; 0x4300
    426c:	00204445 	eoreq	r4, r0, r5, asr #8
    4270:	695f5f5f 	ldmdbvs	pc, {r0, r1, r2, r3, r4, r6, r8, r9, sl, fp, ip, lr}^	; <UNPREDICTABLE>
    4274:	6c5f746e 	cfldrdvs	mvd7, [pc], {110}	; 0x6e
    4278:	74736165 	ldrbtvc	r6, [r3], #-357	; 0xfffffe9b
    427c:	5f745f38 	svcpl	0x00745f38
    4280:	69666564 	stmdbvs	r6!, {r2, r5, r6, r8, sl, sp, lr}^
    4284:	2064656e 	rsbcs	r6, r4, lr, ror #10
    4288:	5f5f0031 	svcpl	0x005f0031
    428c:	5f4d5241 	svcpl	0x004d5241
    4290:	54414546 	strbpl	r4, [r1], #-1350	; 0xfffffaba
    4294:	5f455255 	svcpl	0x00455255
    4298:	56494449 	strbpl	r4, [r9], -r9, asr #8
    429c:	5f003120 	svcpl	0x00003120
    42a0:	4f4c465f 	svcmi	0x004c465f
    42a4:	575f5441 	ldrbpl	r5, [pc, -r1, asr #8]
    42a8:	5f44524f 	svcpl	0x0044524f
    42ac:	4544524f 	strbmi	r5, [r4, #-591]	; 0xfffffdb1
    42b0:	205f5f52 	subscs	r5, pc, r2, asr pc	; <UNPREDICTABLE>
    42b4:	524f5f5f 	subpl	r5, pc, #380	; 0x17c
    42b8:	5f524544 	svcpl	0x00524544
    42bc:	5454494c 	ldrbpl	r4, [r4], #-2380	; 0xfffff6b4
    42c0:	455f454c 	ldrbmi	r4, [pc, #-1356]	; 3d7c <_Min_Stack_Size+0x397c>
    42c4:	4149444e 	cmpmi	r9, lr, asr #8
    42c8:	005f5f4e 	subseq	r5, pc, lr, asr #30
    42cc:	4343475f 	movtmi	r4, #14175	; 0x375f
    42d0:	4843575f 	stmdami	r3, {r0, r1, r2, r3, r4, r6, r8, r9, sl, ip, lr}^
    42d4:	545f5241 	ldrbpl	r5, [pc], #-577	; 42dc <_Min_Stack_Size+0x3edc>
    42d8:	5f5f0020 	svcpl	0x005f0020
    42dc:	6f6c6e75 	svcvs	0x006c6e75
    42e0:	28736b63 	ldmdacs	r3!, {r0, r1, r5, r6, r8, r9, fp, sp, lr}^
    42e4:	292e2e2e 	stmdbcs	lr!, {r1, r2, r3, r5, r9, sl, fp, sp}
    42e8:	6c5f5f20 	mrrcvs	15, 2, r5, pc, cr0	; <UNPREDICTABLE>
    42ec:	5f6b636f 	svcpl	0x006b636f
    42f0:	6f6e6e61 	svcvs	0x006e6e61
    42f4:	65746174 	ldrbvs	r6, [r4, #-372]!	; 0xfffffe8c
    42f8:	6c6e7528 	cfstr64vs	mvdx7, [lr], #-160	; 0xffffff60
    42fc:	5f6b636f 	svcpl	0x006b636f
    4300:	636e7566 	cmnvs	lr, #427819008	; 0x19800000
    4304:	6e6f6974 			; <UNDEFINED> instruction: 0x6e6f6974
    4308:	565f5f28 	ldrbpl	r5, [pc], -r8, lsr #30
    430c:	52415f41 	subpl	r5, r1, #260	; 0x104
    4310:	5f5f5347 	svcpl	0x005f5347
    4314:	5f002929 	svcpl	0x00002929
    4318:	5058455f 	subspl	r4, r8, pc, asr r5
    431c:	2054524f 	subscs	r5, r4, pc, asr #4
    4320:	555f5f00 	ldrbpl	r5, [pc, #-3840]	; 3428 <_Min_Stack_Size+0x3028>
    4324:	5f544e49 	svcpl	0x00544e49
    4328:	5341454c 	movtpl	r4, #5452	; 0x154c
    432c:	545f3854 	ldrbpl	r3, [pc], #-2132	; 4334 <_Min_Stack_Size+0x3f34>
    4330:	5f455059 	svcpl	0x00455059
    4334:	6e75205f 	mrcvs	0, 3, r2, cr5, cr15, {2}
    4338:	6e676973 			; <UNDEFINED> instruction: 0x6e676973
    433c:	63206465 			; <UNDEFINED> instruction: 0x63206465
    4340:	00726168 	rsbseq	r6, r2, r8, ror #2
    4344:	424f5f5f 	submi	r5, pc, #380	; 0x17c
    4348:	454c4f53 	strbmi	r4, [ip, #-3923]	; 0xfffff0ad
    434c:	4d5f4554 	cfldr64mi	mvdx4, [pc, #-336]	; 4204 <_Min_Stack_Size+0x3e04>
    4350:	5f485441 	svcpl	0x00485441
    4354:	41464544 	cmpmi	r6, r4, asr #10
    4358:	20544c55 	subscs	r4, r4, r5, asr ip
    435c:	5f5f0031 	svcpl	0x005f0031
    4360:	54524853 	ldrbpl	r4, [r2], #-2131	; 0xfffff7ad
    4364:	4449575f 	strbmi	r5, [r9], #-1887	; 0xfffff8a1
    4368:	5f5f4854 	svcpl	0x005f4854
    436c:	00363120 	eorseq	r3, r6, r0, lsr #2
    4370:	4d495f5f 	stclmi	15, cr5, [r9, #-380]	; 0xfffffe84
    4374:	54524f50 	ldrbpl	r4, [r2], #-3920	; 0xfffff0b0
    4378:	525f0020 	subspl	r0, pc, #32
    437c:	34444e41 	strbcc	r4, [r4], #-3649	; 0xfffff1bf
    4380:	45535f38 	ldrbmi	r5, [r3, #-3896]	; 0xfffff0c8
    4384:	325f4445 	subscc	r4, pc, #1157627904	; 0x45000000
    4388:	78302820 	ldmdavc	r0!, {r5, fp, sp}
    438c:	34333231 	ldrtcc	r3, [r3], #-561	; 0xfffffdcf
    4390:	415f0029 	cmpmi	pc, r9, lsr #32
    4394:	49584554 	ldmdbmi	r8, {r2, r4, r6, r8, sl, lr}^
    4398:	49535f54 	ldmdbmi	r3, {r2, r4, r6, r8, r9, sl, fp, ip, lr}^
    439c:	3320455a 			; <UNDEFINED> instruction: 0x3320455a
    43a0:	5f5f0032 	svcpl	0x005f0032
    43a4:	5f415355 	svcpl	0x00415355
    43a8:	54494246 	strbpl	r4, [r9], #-582	; 0xfffffdba
    43ac:	31205f5f 			; <UNDEFINED> instruction: 0x31205f5f
    43b0:	5f5f0036 	svcpl	0x005f0036
    43b4:	616c6f76 	smcvs	50934	; 0xc6f6
    43b8:	656c6974 	strbvs	r6, [ip, #-2420]!	; 0xfffff68c
    43bc:	6c6f7620 	stclvs	6, cr7, [pc], #-128	; 4344 <_Min_Stack_Size+0x3f44>
    43c0:	6c697461 	cfstrdvs	mvd7, [r9], #-388	; 0xfffffe7c
    43c4:	4d5f0065 	ldclmi	0, cr0, [pc, #-404]	; 4238 <_Min_Stack_Size+0x3e38>
    43c8:	49484341 	stmdbmi	r8, {r0, r6, r8, r9, lr}^
    43cc:	5f5f454e 	svcpl	0x005f454e
    43d0:	45505954 	ldrbmi	r5, [r0, #-2388]	; 0xfffff6ac
    43d4:	20485f53 	subcs	r5, r8, r3, asr pc
    43d8:	495f5f00 	ldmdbmi	pc, {r8, r9, sl, fp, ip, lr}^	; <UNPREDICTABLE>
    43dc:	5f454545 	svcpl	0x00454545
    43e0:	5454494c 	ldrbpl	r4, [r4], #-2380	; 0xfffff6b4
    43e4:	455f454c 	ldrbmi	r4, [pc, #-1356]	; 3ea0 <_Min_Stack_Size+0x3aa0>
    43e8:	4149444e 	cmpmi	r9, lr, asr #8
    43ec:	5f00204e 	svcpl	0x0000204e
    43f0:	636f6c5f 	cmnvs	pc, #24320	; 0x5f00
    43f4:	6c635f6b 	stclvs	15, cr5, [r3], #-428	; 0xfffffe54
    43f8:	5f65736f 	svcpl	0x0065736f
    43fc:	75636572 	strbvc	r6, [r3, #-1394]!	; 0xfffffa8e
    4400:	76697372 			; <UNDEFINED> instruction: 0x76697372
    4404:	6f6c2865 	svcvs	0x006c2865
    4408:	20296b63 	eorcs	r6, r9, r3, ror #22
    440c:	65725f5f 	ldrbvs	r5, [r2, #-3935]!	; 0xfffff0a1
    4410:	67726174 			; <UNDEFINED> instruction: 0x67726174
    4414:	6c5f7465 	cfldrdvs	mvd7, [pc], {101}	; 0x65
    4418:	5f6b636f 	svcpl	0x006b636f
    441c:	736f6c63 	cmnvc	pc, #25344	; 0x6300
    4420:	65725f65 	ldrbvs	r5, [r2, #-3941]!	; 0xfffff09b
    4424:	73727563 	cmnvc	r2, #415236096	; 0x18c00000
    4428:	28657669 	stmdacs	r5!, {r0, r3, r5, r6, r9, sl, ip, sp, lr}^
    442c:	6b636f6c 	blvs	18e01e4 <_Min_Stack_Size+0x18dfde4>
    4430:	5f5f0029 	svcpl	0x005f0029
    4434:	4c42444c 	cfstrdmi	mvd4, [r2], {76}	; 0x4c
    4438:	4e494d5f 	mcrmi	13, 2, r4, cr9, cr15, {2}
    443c:	5f30315f 	svcpl	0x0030315f
    4440:	5f505845 	svcpl	0x00505845
    4444:	2d28205f 	stccs	0, cr2, [r8, #-380]!	; 0xfffffe84
    4448:	29373033 	ldmdbcs	r7!, {r0, r1, r4, r5, ip, sp}
    444c:	74735f00 	ldrbtvc	r5, [r3], #-3840	; 0xfffff100
    4450:	72726564 	rsbsvc	r6, r2, #100, 10	; 0x19000000
    4454:	7828725f 	stmdavc	r8!, {r0, r1, r2, r3, r4, r6, r9, ip, sp, lr}
    4458:	525f2029 	subspl	r2, pc, #41	; 0x29
    445c:	544e4545 	strbpl	r4, [lr], #-1349	; 0xfffffabb
    4460:	4454535f 	ldrbmi	r5, [r4], #-863	; 0xfffffca1
    4464:	28525245 	ldmdacs	r2, {r0, r2, r6, r9, ip, lr}^
    4468:	5f002978 	svcpl	0x00002978
    446c:	544c465f 	strbpl	r4, [ip], #-1631	; 0xfffff9a1
    4470:	5341485f 	movtpl	r4, #6239	; 0x185f
    4474:	4955515f 	ldmdbmi	r5, {r0, r1, r2, r3, r4, r6, r8, ip, lr}^
    4478:	4e5f5445 	cdpmi	4, 5, cr5, cr15, cr5, {2}
    447c:	5f5f4e41 	svcpl	0x005f4e41
    4480:	5f003120 	svcpl	0x00003120
    4484:	4e454552 	mcrmi	5, 2, r4, cr5, cr2, {2}
    4488:	4d455f54 	stclmi	15, cr5, [r5, #-336]	; 0xfffffeb0
    448c:	45475245 	strbmi	r5, [r7, #-581]	; 0xfffffdbb
    4490:	2859434e 	ldmdacs	r9, {r1, r2, r3, r6, r8, r9, lr}^
    4494:	7274705f 	rsbsvc	r7, r4, #95	; 0x5f
    4498:	28282029 	stmdacs	r8!, {r0, r3, r5, sp}
    449c:	7274705f 	rsbsvc	r7, r4, #95	; 0x5f
    44a0:	5f3e2d29 	svcpl	0x003e2d29
    44a4:	72656d65 	rsbvc	r6, r5, #6464	; 0x1940
    44a8:	636e6567 	cmnvs	lr, #432013312	; 0x19c00000
    44ac:	5f002979 	svcpl	0x00002979
    44b0:	4654415f 			; <UNDEFINED> instruction: 0x4654415f
    44b4:	5f454c49 	svcpl	0x00454c49
    44b8:	49534956 	ldmdbmi	r3, {r1, r2, r4, r6, r8, fp, lr}^
    44bc:	20454c42 	subcs	r4, r5, r2, asr #24
    44c0:	5f5f0031 	svcpl	0x005f0031
    44c4:	4152464c 	cmpmi	r2, ip, asr #12
    44c8:	455f5443 	ldrbmi	r5, [pc, #-1091]	; 408d <_Min_Stack_Size+0x3c8d>
    44cc:	4c495350 	mcrrmi	3, 5, r5, r9, cr0
    44d0:	5f5f4e4f 	svcpl	0x005f4e4f
    44d4:	31783020 	cmncc	r8, r0, lsr #32
    44d8:	31332d50 	teqcc	r3, r0, asr sp
    44dc:	5f00524c 	svcpl	0x0000524c
    44e0:	49474542 	stmdbmi	r7, {r1, r6, r8, sl, lr}^
    44e4:	54535f4e 	ldrbpl	r5, [r3], #-3918	; 0xfffff0b2
    44e8:	20435f44 	subcs	r5, r3, r4, asr #30
    44ec:	6d5f5f00 	ldclvs	15, cr5, [pc, #-0]	; 44f4 <_Min_Stack_Size+0x40f4>
    44f0:	6f6c6c61 	svcvs	0x006c6c61
    44f4:	696c5f63 	stmdbvs	ip!, {r0, r1, r5, r6, r8, r9, sl, fp, ip, lr}^
    44f8:	5f20656b 	svcpl	0x0020656b
    44fc:	7474615f 	ldrbtvc	r6, [r4], #-351	; 0xfffffea1
    4500:	75626972 	strbvc	r6, [r2, #-2418]!	; 0xfffff68e
    4504:	5f5f6574 	svcpl	0x005f6574
    4508:	5f5f2828 	svcpl	0x005f2828
    450c:	6c6c616d 	stfvse	f6, [ip], #-436	; 0xfffffe4c
    4510:	5f5f636f 	svcpl	0x005f636f
    4514:	5f002929 	svcpl	0x00002929
    4518:	5041535f 	subpl	r5, r1, pc, asr r3
    451c:	78302050 	ldmdavc	r0!, {r4, r6, sp}
    4520:	30303130 	eorscc	r3, r0, r0, lsr r1
    4524:	415f5f00 	cmpmi	pc, r0, lsl #30
    4528:	535f4d52 	cmppl	pc, #5248	; 0x1480
    452c:	4f455a49 	svcmi	0x00455a49
    4530:	494d5f46 	stmdbmi	sp, {r1, r2, r6, r8, r9, sl, fp, ip, lr}^
    4534:	414d494e 	cmpmi	sp, lr, asr #18
    4538:	4e455f4c 	cdpmi	15, 4, cr5, cr5, cr12, {2}
    453c:	31204d55 			; <UNDEFINED> instruction: 0x31204d55
    4540:	4f505f00 	svcmi	0x00505f00
    4544:	45544e49 	ldrbmi	r4, [r4, #-3657]	; 0xfffff1b7
    4548:	4e495f52 	mcrmi	15, 2, r5, cr9, cr2, {2}
    454c:	6f6c2054 	svcvs	0x006c2054
    4550:	5f00676e 	svcpl	0x0000676e
    4554:	544c465f 	strbpl	r4, [ip], #-1631	; 0xfffff9a1
    4558:	5f583233 	svcpl	0x00583233
    455c:	4d524f4e 	ldclmi	15, cr4, [r2, #-312]	; 0xfffffec8
    4560:	58414d5f 	stmdapl	r1, {r0, r1, r2, r3, r4, r6, r8, sl, fp, lr}^
    4564:	31205f5f 			; <UNDEFINED> instruction: 0x31205f5f
    4568:	3739372e 	ldrcc	r3, [r9, -lr, lsr #14]!
    456c:	31333936 	teqcc	r3, r6, lsr r9
    4570:	36383433 			; <UNDEFINED> instruction: 0x36383433
    4574:	35313332 	ldrcc	r3, [r1, #-818]!	; 0xfffffcce
    4578:	332b6537 			; <UNDEFINED> instruction: 0x332b6537
    457c:	33463830 	movtcc	r3, #26672	; 0x6830
    4580:	5f007832 	svcpl	0x00007832
    4584:	6d72615f 	ldfvse	f6, [r2, #-380]!	; 0xfffffe84
    4588:	31205f5f 			; <UNDEFINED> instruction: 0x31205f5f
    458c:	53465f00 	movtpl	r5, #28416	; 0x6f00
    4590:	4f494454 	svcmi	0x00494454
    4594:	5f5f0020 	svcpl	0x005f0020
    4598:	33544c46 	cmpcc	r4, #17920	; 0x4600
    459c:	494d5f32 	stmdbmi	sp, {r1, r4, r5, r8, r9, sl, fp, ip, lr}^
    45a0:	30315f4e 	eorscc	r5, r1, lr, asr #30
    45a4:	5058455f 	subspl	r4, r8, pc, asr r5
    45a8:	28205f5f 	stmdacs	r0!, {r0, r1, r2, r3, r4, r6, r8, r9, sl, fp, ip, lr}
    45ac:	2937332d 	ldmdbcs	r7!, {r0, r2, r3, r5, r8, r9, ip, sp}
    45b0:	525f5f00 	subspl	r5, pc, #0, 30
    45b4:	5f444e41 	svcpl	0x00444e41
    45b8:	2058414d 	subscs	r4, r8, sp, asr #2
    45bc:	66377830 			; <UNDEFINED> instruction: 0x66377830
    45c0:	66666666 	strbtvs	r6, [r6], -r6, ror #12
    45c4:	5f006666 	svcpl	0x00006666
    45c8:	4f53495f 	svcmi	0x0053495f
    45cc:	565f435f 			; <UNDEFINED> instruction: 0x565f435f
    45d0:	42495349 	submi	r5, r9, #603979777	; 0x24000001
    45d4:	3220454c 	eorcc	r4, r0, #76, 10	; 0x13000000
    45d8:	00313130 	eorseq	r3, r1, r0, lsr r1
    45dc:	52415f5f 	subpl	r5, r1, #380	; 0x17c
    45e0:	50465f4d 	subpl	r5, r6, sp, asr #30
    45e4:	465f3631 			; <UNDEFINED> instruction: 0x465f3631
    45e8:	414d524f 	cmpmi	sp, pc, asr #4
    45ec:	4c415f54 	mcrrmi	15, 5, r5, r1, cr4
    45f0:	4e524554 	mrcmi	5, 2, r4, cr2, cr4, {2}
    45f4:	56495441 	strbpl	r5, [r9], -r1, asr #8
    45f8:	5f5f0045 	svcpl	0x005f0045
    45fc:	44534246 	ldrbmi	r4, [r3], #-582	; 0xfffffdba
    4600:	73284449 			; <UNDEFINED> instruction: 0x73284449
    4604:	74732029 	ldrbtvc	r2, [r3], #-41	; 0xffffffd7
    4608:	74637572 	strbtvc	r7, [r3], #-1394	; 0xfffffa8e
    460c:	685f5f20 	ldmdavs	pc, {r5, r8, r9, sl, fp, ip, lr}^	; <UNPREDICTABLE>
    4610:	006b6361 	rsbeq	r6, fp, r1, ror #6
    4614:	444c5f5f 	strbmi	r5, [ip], #-3935	; 0xfffff0a1
    4618:	4e5f4c42 	cdpmi	12, 5, cr4, cr15, cr2, {2}
    461c:	5f4d524f 	svcpl	0x004d524f
    4620:	5f58414d 	svcpl	0x0058414d
    4624:	2e31205f 	mrccs	0, 1, r2, cr1, cr15, {2}
    4628:	36373937 			; <UNDEFINED> instruction: 0x36373937
    462c:	33313339 	teqcc	r1, #-469762048	; 0xe4000000
    4630:	32363834 	eorscc	r3, r6, #52, 16	; 0x340000
    4634:	37353133 			; <UNDEFINED> instruction: 0x37353133
    4638:	30332b65 	eorscc	r2, r3, r5, ror #22
    463c:	5f004c38 	svcpl	0x00004c38
    4640:	4843414d 	stmdami	r3, {r0, r2, r3, r6, r8, lr}^
    4644:	5f454e49 	svcpl	0x00454e49
    4648:	4645445f 			; <UNDEFINED> instruction: 0x4645445f
    464c:	544c5541 	strbpl	r5, [ip], #-1345	; 0xfffffabf
    4650:	5059545f 	subspl	r5, r9, pc, asr r4
    4654:	485f5345 	ldmdami	pc, {r0, r2, r6, r8, r9, ip, lr}^	; <UNPREDICTABLE>
    4658:	5f5f0020 	svcpl	0x005f0020
    465c:	47474942 	strbmi	r4, [r7, -r2, asr #18]
    4660:	5f545345 	svcpl	0x00545345
    4664:	47494c41 	strbmi	r4, [r9, -r1, asr #24]
    4668:	4e454d4e 	cdpmi	13, 4, cr4, cr5, cr14, {2}
    466c:	205f5f54 	subscs	r5, pc, r4, asr pc	; <UNPREDICTABLE>
    4670:	475f0038 	smmlarmi	pc, r8, r0, r0	; <UNPREDICTABLE>
    4674:	505f4343 	subspl	r4, pc, r3, asr #6
    4678:	49445254 	stmdbmi	r4, {r2, r4, r6, r9, ip, lr}^
    467c:	545f4646 	ldrbpl	r4, [pc], #-1606	; 4684 <_Min_Stack_Size+0x4284>
    4680:	5f5f0020 	svcpl	0x005f0020
    4684:	43554e47 	cmpmi	r5, #1136	; 0x470
    4688:	454b494c 	strbmi	r4, [fp, #-2380]	; 0xfffff6b4
    468c:	4955425f 	ldmdbmi	r5, {r0, r1, r2, r3, r4, r6, r9, lr}^
    4690:	4e49544c 	cdpmi	4, 4, cr5, cr9, cr12, {2}
    4694:	58454e5f 	stmdapl	r5, {r0, r1, r2, r3, r4, r6, r9, sl, fp, lr}^
    4698:	52415f54 	subpl	r5, r1, #84, 30	; 0x150
    469c:	00312047 	eorseq	r2, r1, r7, asr #32
    46a0:	41545f5f 	cmpmi	r4, pc, asr pc
    46a4:	4942495f 	stmdbmi	r2, {r0, r1, r2, r3, r4, r6, r8, fp, lr}^
    46a8:	205f5f54 	subscs	r5, pc, r4, asr pc	; <UNPREDICTABLE>
    46ac:	53003436 	movwpl	r3, #1078	; 0x436
    46b0:	32334d54 	eorscc	r4, r3, #84, 26	; 0x1500
    46b4:	5f003120 	svcpl	0x00003120
    46b8:	6565725f 	strbvs	r7, [r5, #-607]!	; 0xfffffda1
    46bc:	615f746e 	cmpvs	pc, lr, ror #8
    46c0:	72657373 	rsbvc	r7, r5, #-872415231	; 0xcc000001
    46c4:	29782874 	ldmdbcs	r8!, {r2, r4, r5, r6, fp, sp}^
    46c8:	78282820 	stmdavc	r8!, {r5, fp, sp}
    46cc:	203f2029 	eorscs	r2, pc, r9, lsr #32
    46d0:	696f7628 	stmdbvs	pc!, {r3, r5, r9, sl, ip, sp, lr}^	; <UNPREDICTABLE>
    46d4:	20302964 	eorscs	r2, r0, r4, ror #18
    46d8:	5f5f203a 	svcpl	0x005f203a
    46dc:	65737361 	ldrbvs	r7, [r3, #-865]!	; 0xfffffc9f
    46e0:	665f7472 			; <UNDEFINED> instruction: 0x665f7472
    46e4:	28636e75 	stmdacs	r3!, {r0, r2, r4, r5, r6, r9, sl, fp, sp, lr}^
    46e8:	49465f5f 	stmdbmi	r6, {r0, r1, r2, r3, r4, r6, r8, r9, sl, fp, ip, lr}^
    46ec:	5f5f454c 	svcpl	0x005f454c
    46f0:	5f5f202c 	svcpl	0x005f202c
    46f4:	454e494c 	strbmi	r4, [lr, #-2380]	; 0xfffff6b4
    46f8:	202c5f5f 	eorcs	r5, ip, pc, asr pc
    46fc:	61686328 	cmnvs	r8, r8, lsr #6
    4700:	292a2072 	stmdbcs	sl!, {r1, r4, r5, r6, sp}
    4704:	22202c30 	eorcs	r2, r0, #48, 24	; 0x3000
    4708:	4e454552 	mcrmi	5, 2, r4, cr5, cr2, {2}
    470c:	616d2054 	qdsubvs	r2, r4, sp
    4710:	636f6c6c 	cmnvs	pc, #108, 24	; 0x6c00
    4714:	63757320 	cmnvs	r5, #32, 6	; 0x80000000
    4718:	64656563 	strbtvs	r6, [r5], #-1379	; 0xfffffa9d
    471c:	29226465 	stmdbcs	r2!, {r0, r2, r5, r6, sl, sp, lr}
    4720:	5f5f0029 	svcpl	0x005f0029
    4724:	5f4d5241 	svcpl	0x004d5241
    4728:	54414546 	strbpl	r4, [r1], #-1350	; 0xfffffaba
    472c:	5f455255 	svcpl	0x00455255
    4730:	4d445251 	sfmmi	f5, 2, [r4, #-324]	; 0xfffffebc
    4734:	5f5f0058 	svcpl	0x005f0058
    4738:	5f4d5241 	svcpl	0x004d5241
    473c:	48435241 	stmdami	r3, {r0, r6, r9, ip, lr}^
    4740:	4153495f 	cmpmi	r3, pc, asr r9
    4744:	5548545f 	strbpl	r5, [r8, #-1119]	; 0xfffffba1
    4748:	3220424d 	eorcc	r4, r0, #-805306364	; 0xd0000004
    474c:	4f495f00 	svcmi	0x00495f00
    4750:	2046424e 	subcs	r4, r6, lr, asr #4
    4754:	5f5f0032 	svcpl	0x005f0032
    4758:	474e4f4c 	strbmi	r4, [lr, -ip, asr #30]
    475c:	4e4f4c5f 	mcrmi	12, 2, r4, cr15, cr15, {2}
    4760:	414d5f47 	cmpmi	sp, r7, asr #30
    4764:	205f5f58 	subscs	r5, pc, r8, asr pc	; <UNPREDICTABLE>
    4768:	66377830 			; <UNDEFINED> instruction: 0x66377830
    476c:	66666666 	strbtvs	r6, [r6], -r6, ror #12
    4770:	66666666 	strbtvs	r6, [r6], -r6, ror #12
    4774:	66666666 	strbtvs	r6, [r6], -r6, ror #12
    4778:	4c4c6666 	mcrrmi	6, 6, r6, ip, cr6
    477c:	615f5f00 	cmpvs	pc, r0, lsl #30
    4780:	745f6772 	ldrbvc	r6, [pc], #-1906	; 4788 <_Min_Stack_Size+0x4388>
    4784:	5f657079 	svcpl	0x00657079
    4788:	28676174 	stmdacs	r7!, {r2, r4, r5, r6, r8, sp, lr}^
    478c:	5f677261 	svcpl	0x00677261
    4790:	646e696b 	strbtvs	r6, [lr], #-2411	; 0xfffff695
    4794:	6772612c 	ldrbvs	r6, [r2, -ip, lsr #2]!
    4798:	7864695f 	stmdavc	r4!, {r0, r1, r2, r3, r4, r6, r8, fp, sp, lr}^
    479c:	7079742c 	rsbsvc	r7, r9, ip, lsr #8
    47a0:	61745f65 	cmnvs	r4, r5, ror #30
    47a4:	64695f67 	strbtvs	r5, [r9], #-3943	; 0xfffff099
    47a8:	00202978 	eoreq	r2, r0, r8, ror r9
    47ac:	54535f5f 	ldrbpl	r5, [r3], #-3935	; 0xfffff0a1
    47b0:	474e4952 	smlsldmi	r4, lr, r2, r9
    47b4:	20297828 	eorcs	r7, r9, r8, lsr #16
    47b8:	5f007823 	svcpl	0x00007823
    47bc:	5153555f 	cmppl	r3, pc, asr r5
    47c0:	4942495f 	stmdbmi	r2, {r0, r1, r2, r3, r4, r6, r8, fp, lr}^
    47c4:	205f5f54 	subscs	r5, pc, r4, asr pc	; <UNPREDICTABLE>
    47c8:	525f0030 	subspl	r0, pc, #48	; 0x30
    47cc:	544e4545 	strbpl	r4, [lr], #-1349	; 0xfffffabb
    47d0:	494e495f 	stmdbmi	lr, {r0, r1, r2, r3, r4, r6, r8, fp, lr}^
    47d4:	54505f54 	ldrbpl	r5, [r0], #-3924	; 0xfffff0ac
    47d8:	61762852 	cmnvs	r6, r2, asr r8
    47dc:	7b202972 	blvc	80edac <_Min_Stack_Size+0x80e9ac>
    47e0:	6d656d20 	stclvs	13, cr6, [r5, #-128]!	; 0xffffff80
    47e4:	28746573 	ldmdacs	r4!, {r0, r1, r4, r5, r6, r8, sl, sp, lr}^
    47e8:	72617628 	rsbvc	r7, r1, #40, 12	; 0x2800000
    47ec:	30202c29 	eorcc	r2, r0, r9, lsr #24
    47f0:	6973202c 	ldmdbvs	r3!, {r2, r3, r5, sp}^
    47f4:	666f657a 			; <UNDEFINED> instruction: 0x666f657a
    47f8:	76282a28 	strtvc	r2, [r8], -r8, lsr #20
    47fc:	29297261 	stmdbcs	r9!, {r0, r5, r6, r9, ip, sp, lr}
    4800:	5f203b29 	svcpl	0x00203b29
    4804:	4e454552 	mcrmi	5, 2, r4, cr5, cr2, {2}
    4808:	4e495f54 	mcrmi	15, 2, r5, cr9, cr4, {2}
    480c:	505f5449 	subspl	r5, pc, r9, asr #8
    4810:	5a5f5254 	bpl	17d9168 <_Min_Stack_Size+0x17d8d68>
    4814:	454f5245 	strbmi	r5, [pc, #-581]	; 45d7 <_Min_Stack_Size+0x41d7>
    4818:	61762844 	cmnvs	r6, r4, asr #16
    481c:	203b2972 	eorscs	r2, fp, r2, ror r9
    4820:	5f5f007d 	svcpl	0x005f007d
    4824:	59504f43 	ldmdbpl	r0, {r0, r1, r6, r8, r9, sl, fp, lr}^
    4828:	48474952 	stmdami	r7, {r1, r4, r6, r8, fp, lr}^
    482c:	29732854 	ldmdbcs	r3!, {r2, r4, r6, fp, sp}^
    4830:	72747320 	rsbsvc	r7, r4, #32, 6	; 0x80000000
    4834:	20746375 	rsbscs	r6, r4, r5, ror r3
    4838:	61685f5f 	cmnvs	r8, pc, asr pc
    483c:	5f006b63 	svcpl	0x00006b63
    4840:	5246555f 	subpl	r5, r6, #398458880	; 0x17c00000
    4844:	5f544341 	svcpl	0x00544341
    4848:	54494249 	strbpl	r4, [r9], #-585	; 0xfffffdb7
    484c:	30205f5f 	eorcc	r5, r0, pc, asr pc
    4850:	415f5f00 	cmpmi	pc, r0, lsl #30
    4854:	335f4d52 	cmpcc	pc, #5248	; 0x1480
    4858:	54494232 	strbpl	r4, [r9], #-562	; 0xfffffdce
    485c:	4154535f 	cmpmi	r4, pc, asr r3
    4860:	31204554 			; <UNDEFINED> instruction: 0x31204554
    4864:	495f5f00 	ldmdbmi	pc, {r8, r9, sl, fp, ip, lr}^	; <UNPREDICTABLE>
    4868:	5f38544e 	svcpl	0x0038544e
    486c:	29632843 	stmdbcs	r3!, {r0, r1, r6, fp, sp}^
    4870:	5f006320 	svcpl	0x00006320
    4874:	52464c5f 	subpl	r4, r6, #24320	; 0x5f00
    4878:	5f544341 	svcpl	0x00544341
    487c:	54494249 	strbpl	r4, [r9], #-585	; 0xfffffdb7
    4880:	30205f5f 	eorcc	r5, r0, pc, asr pc
    4884:	535f5f00 	cmppl	pc, #0, 30
    4888:	4f455a49 	svcmi	0x00455a49
    488c:	4e495f46 	cdpmi	15, 4, cr5, cr9, cr6, {2}
    4890:	205f5f54 	subscs	r5, pc, r4, asr pc	; <UNPREDICTABLE>
    4894:	5f5f0034 	svcpl	0x005f0034
    4898:	5f4c4244 	svcpl	0x004c4244
    489c:	5f4e494d 	svcpl	0x004e494d
    48a0:	5f505845 	svcpl	0x00505845
    48a4:	2d28205f 	stccs	0, cr2, [r8, #-380]!	; 0xfffffe84
    48a8:	31323031 	teqcc	r2, r1, lsr r0
    48ac:	5f5f0029 	svcpl	0x005f0029
    48b0:	72617567 	rsbvc	r7, r1, #432013312	; 0x19c00000
    48b4:	5f646564 	svcpl	0x00646564
    48b8:	78287962 	stmdavc	r8!, {r1, r5, r6, r8, fp, ip, sp, lr}
    48bc:	5f5f2029 	svcpl	0x005f2029
    48c0:	6b636f6c 	blvs	18e0678 <_Min_Stack_Size+0x18e0278>
    48c4:	6e6e615f 	mcrvs	1, 3, r6, cr14, cr15, {2}
    48c8:	7461746f 	strbtvc	r7, [r1], #-1135	; 0xfffffb91
    48cc:	75672865 	strbvc	r2, [r7, #-2149]!	; 0xfffff79b
    48d0:	65647261 	strbvs	r7, [r4, #-609]!	; 0xfffffd9f
    48d4:	79625f64 	stmdbvc	r2!, {r2, r5, r6, r8, r9, sl, fp, ip, lr}^
    48d8:	29297828 	stmdbcs	r9!, {r3, r5, fp, ip, sp, lr}
    48dc:	705f5f00 	subsvc	r5, pc, r0, lsl #30
    48e0:	746e6972 	strbtvc	r6, [lr], #-2418	; 0xfffff68e
    48e4:	696c3066 	stmdbvs	ip!, {r1, r2, r5, r6, ip, sp}^
    48e8:	6628656b 	strtvs	r6, [r8], -fp, ror #10
    48ec:	7261746d 	rsbvc	r7, r1, #1828716544	; 0x6d000000
    48f0:	69662c67 	stmdbvs	r6!, {r0, r1, r2, r5, r6, sl, fp, sp}^
    48f4:	76747372 			; <UNDEFINED> instruction: 0x76747372
    48f8:	72617261 	rsbvc	r7, r1, #268435462	; 0x10000006
    48fc:	00202967 	eoreq	r2, r0, r7, ror #18
    4900:	4c465f5f 	mcrrmi	15, 5, r5, r6, cr15
    4904:	5f323354 	svcpl	0x00323354
    4908:	5f474944 	svcpl	0x00474944
    490c:	0036205f 	eorseq	r2, r6, pc, asr r0
    4910:	65645f5f 	strbvs	r5, [r4, #-3935]!	; 0xfffff0a1
    4914:	20326461 	eorscs	r6, r2, r1, ror #8
    4918:	74615f5f 	strbtvc	r5, [r1], #-3935	; 0xfffff0a1
    491c:	62697274 	rsbvs	r7, r9, #116, 4	; 0x40000007
    4920:	5f657475 	svcpl	0x00657475
    4924:	5f28285f 	svcpl	0x0028285f
    4928:	726f6e5f 	rsbvc	r6, pc, #1520	; 0x5f0
    492c:	72757465 	rsbsvc	r7, r5, #1694498816	; 0x65000000
    4930:	295f5f6e 	ldmdbcs	pc, {r1, r2, r3, r5, r6, r8, r9, sl, fp, ip, lr}^	; <UNPREDICTABLE>
    4934:	4e470029 	cdpmi	0, 4, cr0, cr7, cr9, {1}
    4938:	31432055 	qdaddcc	r2, r5, r3
    493c:	33312031 	teqcc	r1, #49	; 0x31
    4940:	312e332e 			; <UNDEFINED> instruction: 0x312e332e
    4944:	32303220 	eorscc	r3, r0, #32, 4
    4948:	31363034 	teqcc	r6, r4, lsr r0
    494c:	6d2d2034 	stcvs	0, cr2, [sp, #-208]!	; 0xffffff30
    4950:	3d757063 	ldclcc	0, cr7, [r5, #-396]!	; 0xfffffe74
    4954:	74726f63 	ldrbtvc	r6, [r2], #-3939	; 0xfffff09d
    4958:	6d2d7865 	stcvs	8, cr7, [sp, #-404]!	; 0xfffffe6c
    495c:	6d2d2034 	stcvs	0, cr2, [sp, #-208]!	; 0xffffff30
    4960:	3d757066 	ldclcc	0, cr7, [r5, #-408]!	; 0xfffffe68
    4964:	34767066 	ldrbtcc	r7, [r6], #-102	; 0xffffff9a
    4968:	2d70732d 	ldclcs	3, cr7, [r0, #-180]!	; 0xffffff4c
    496c:	20363164 	eorscs	r3, r6, r4, ror #2
    4970:	6c666d2d 	stclvs	13, cr6, [r6], #-180	; 0xffffff4c
    4974:	2d74616f 	ldfcse	f6, [r4, #-444]!	; 0xfffffe44
    4978:	3d696261 	sfmcc	f6, 2, [r9, #-388]!	; 0xfffffe7c
    497c:	64726168 	ldrbtvs	r6, [r2], #-360	; 0xfffffe98
    4980:	746d2d20 	strbtvc	r2, [sp], #-3360	; 0xfffff2e0
    4984:	626d7568 	rsbvs	r7, sp, #104, 10	; 0x1a000000
    4988:	616d2d20 	cmnvs	sp, r0, lsr #26
    498c:	3d686372 	stclcc	3, cr6, [r8, #-456]!	; 0xfffffe38
    4990:	766d7261 	strbtvc	r7, [sp], -r1, ror #4
    4994:	6d2d6537 	cfstr32vs	mvfx6, [sp, #-220]!	; 0xffffff24
    4998:	2070662b 	rsbscs	r6, r0, fp, lsr #12
    499c:	2033672d 	eorscs	r6, r3, sp, lsr #14
    49a0:	20304f2d 	eorscs	r4, r0, sp, lsr #30
    49a4:	6474732d 	ldrbtvs	r7, [r4], #-813	; 0xfffffcd3
    49a8:	756e673d 	strbvc	r6, [lr, #-1853]!	; 0xfffff8c3
    49ac:	2d203131 	stfcss	f3, [r0, #-196]!	; 0xffffff3c
    49b0:	6e756666 	cdpvs	6, 7, cr6, cr5, cr6, {3}
    49b4:	6f697463 	svcvs	0x00697463
    49b8:	65732d6e 	ldrbvs	r2, [r3, #-3438]!	; 0xfffff292
    49bc:	6f697463 	svcvs	0x00697463
    49c0:	2d20736e 	stccs	3, cr7, [r0, #-440]!	; 0xfffffe48
    49c4:	74616466 	strbtvc	r6, [r1], #-1126	; 0xfffffb9a
    49c8:	65732d61 	ldrbvs	r2, [r3, #-3425]!	; 0xfffff29f
    49cc:	6f697463 	svcvs	0x00697463
    49d0:	2d20736e 	stccs	3, cr7, [r0, #-440]!	; 0xfffffe48
    49d4:	61747366 	cmnvs	r4, r6, ror #6
    49d8:	752d6b63 	strvc	r6, [sp, #-2915]!	; 0xfffff49d
    49dc:	65676173 	strbvs	r6, [r7, #-371]!	; 0xfffffe8d
    49e0:	63662d20 	cmnvs	r6, #32, 26	; 0x800
    49e4:	6f6c6379 	svcvs	0x006c6379
    49e8:	6974616d 	ldmdbvs	r4!, {r0, r2, r3, r5, r6, r8, sp, lr}^
    49ec:	6f632d63 	svcvs	0x00632d63
    49f0:	656c706d 	strbvs	r7, [ip, #-109]!	; 0xffffff93
    49f4:	79746978 	ldmdbvc	r4!, {r3, r4, r5, r6, r8, fp, sp, lr}^
    49f8:	535f5f00 	cmppl	pc, #0, 30
    49fc:	2046424e 	subcs	r4, r6, lr, asr #4
    4a00:	30307830 	eorscc	r7, r0, r0, lsr r8
    4a04:	5f003230 	svcpl	0x00003230
    4a08:	41484357 	cmpmi	r8, r7, asr r3
    4a0c:	5f545f52 	svcpl	0x00545f52
    4a10:	49464544 	stmdbmi	r6, {r2, r6, r8, sl, lr}^
    4a14:	5f44454e 	svcpl	0x0044454e
    4a18:	5f5f0020 	svcpl	0x005f0020
    4a1c:	00505845 	subseq	r5, r0, r5, asr #16
    4a20:	695f5f5f 	ldmdbvs	pc, {r0, r1, r2, r3, r4, r6, r8, r9, sl, fp, ip, lr}^	; <UNPREDICTABLE>
    4a24:	3436746e 	ldrtcc	r7, [r6], #-1134	; 0xfffffb92
    4a28:	645f745f 	ldrbvs	r7, [pc], #-1119	; 4a30 <_Min_Stack_Size+0x4630>
    4a2c:	6e696665 	cdpvs	6, 6, cr6, cr9, cr5, {3}
    4a30:	31206465 			; <UNDEFINED> instruction: 0x31206465
    4a34:	4c5f5f00 	mrrcmi	15, 0, r5, pc, cr0	; <UNPREDICTABLE>
    4a38:	5f4c4244 	svcpl	0x004c4244
    4a3c:	5f534148 	svcpl	0x00534148
    4a40:	4f4e4544 	svcmi	0x004e4544
    4a44:	5f5f4d52 	svcpl	0x005f4d52
    4a48:	5f003120 	svcpl	0x00003120
    4a4c:	5641485f 			; <UNDEFINED> instruction: 0x5641485f
    4a50:	50535f45 	subspl	r5, r3, r5, asr #30
    4a54:	4c554345 	mrrcmi	3, 4, r4, r5, cr5
    4a58:	4f495441 	svcmi	0x00495441
    4a5c:	41535f4e 	cmpmi	r3, lr, asr #30
    4a60:	565f4546 	ldrbpl	r4, [pc], -r6, asr #10
    4a64:	45554c41 	ldrbmi	r4, [r5, #-3137]	; 0xfffff3bf
    4a68:	5f003120 	svcpl	0x00003120
    4a6c:	4341535f 	movtmi	r5, #4959	; 0x135f
    4a70:	5f4d5543 	svcpl	0x004d5543
    4a74:	54494246 	strbpl	r4, [r9], #-582	; 0xfffffdba
    4a78:	37205f5f 			; <UNDEFINED> instruction: 0x37205f5f
    4a7c:	475f5f00 	ldrbmi	r5, [pc, -r0, lsl #30]
    4a80:	485f4343 	ldmdami	pc, {r0, r1, r6, r8, r9, lr}^	; <UNPREDICTABLE>
    4a84:	5f455641 	svcpl	0x00455641
    4a88:	434e5953 	movtmi	r5, #59731	; 0xe953
    4a8c:	4d4f435f 	stclmi	3, cr4, [pc, #-380]	; 4918 <_Min_Stack_Size+0x4518>
    4a90:	45524150 	ldrbmi	r4, [r2, #-336]	; 0xfffffeb0
    4a94:	444e415f 	strbmi	r4, [lr], #-351	; 0xfffffea1
    4a98:	4157535f 	cmpmi	r7, pc, asr r3
    4a9c:	20345f50 	eorscs	r5, r4, r0, asr pc
    4aa0:	5f5f0031 	svcpl	0x005f0031
    4aa4:	49474542 	stmdbmi	r7, {r1, r6, r8, sl, lr}^
    4aa8:	45445f4e 	strbmi	r5, [r4, #-3918]	; 0xfffff0b2
    4aac:	20534c43 	subscs	r4, r3, r3, asr #24
    4ab0:	415f5f00 	cmpmi	pc, r0, lsl #30
    4ab4:	4d554343 	ldclmi	3, cr4, [r5, #-268]	; 0xfffffef4
    4ab8:	4e494d5f 	mcrmi	13, 2, r4, cr9, cr15, {2}
    4abc:	28205f5f 	stmdacs	r0!, {r0, r1, r2, r3, r4, r6, r8, r9, sl, fp, ip, lr}
    4ac0:	3158302d 	cmpcc	r8, sp, lsr #32
    4ac4:	4b353150 	blmi	d5100c <_Min_Stack_Size+0xd50c0c>
    4ac8:	3158302d 	cmpcc	r8, sp, lsr #32
    4acc:	4b353150 	blmi	d51014 <_Min_Stack_Size+0xd50c14>
    4ad0:	5f5f0029 	svcpl	0x005f0029
    4ad4:	43554e47 	cmpmi	r5, #1136	; 0x470
    4ad8:	5f41565f 	svcpl	0x0041565f
    4adc:	5453494c 	ldrbpl	r4, [r3], #-2380	; 0xfffff6b4
    4ae0:	4d4f435f 	stclmi	3, cr4, [pc, #-380]	; 496c <_Min_Stack_Size+0x456c>
    4ae4:	49544150 	ldmdbmi	r4, {r4, r6, r8, lr}^
    4ae8:	494c4942 	stmdbmi	ip, {r1, r6, r8, fp, lr}^
    4aec:	31205954 			; <UNDEFINED> instruction: 0x31205954
    4af0:	415f5f00 	cmpmi	pc, r0, lsl #30
    4af4:	465f4d52 			; <UNDEFINED> instruction: 0x465f4d52
    4af8:	55544145 	ldrbpl	r4, [r4, #-325]	; 0xfffffebb
    4afc:	435f4552 	cmpmi	pc, #343932928	; 0x14800000
    4b00:	54505952 	ldrbpl	r5, [r0], #-2386	; 0xfffff6ae
    4b04:	5f5f004f 	svcpl	0x005f004f
    4b08:	5f544e49 	svcpl	0x00544e49
    4b0c:	5341454c 	movtpl	r4, #5452	; 0x154c
    4b10:	5f323354 	svcpl	0x00323354
    4b14:	45505954 	ldrbmi	r5, [r0, #-2388]	; 0xfffff6ac
    4b18:	6c205f5f 	stcvs	15, cr5, [r0], #-380	; 0xfffffe84
    4b1c:	20676e6f 	rsbcs	r6, r7, pc, ror #28
    4b20:	00746e69 	rsbseq	r6, r4, r9, ror #28
    4b24:	49555f5f 	ldmdbmi	r5, {r0, r1, r2, r3, r4, r6, r8, r9, sl, fp, ip, lr}^
    4b28:	4c5f544e 	cfldrdmi	mvd5, [pc], {78}	; 0x4e
    4b2c:	54534145 	ldrbpl	r4, [r3], #-325	; 0xfffffebb
    4b30:	4d5f3436 	cfldrdmi	mvd3, [pc, #-216]	; 4a60 <_Min_Stack_Size+0x4660>
    4b34:	5f5f5841 	svcpl	0x005f5841
    4b38:	66783020 	ldrbtvs	r3, [r8], -r0, lsr #32
    4b3c:	66666666 	strbtvs	r6, [r6], -r6, ror #12
    4b40:	66666666 	strbtvs	r6, [r6], -r6, ror #12
    4b44:	66666666 	strbtvs	r6, [r6], -r6, ror #12
    4b48:	55666666 	strbpl	r6, [r6, #-1638]!	; 0xfffff99a
    4b4c:	5f004c4c 	svcpl	0x00004c4c
    4b50:	4152465f 	cmpmi	r2, pc, asr r6
    4b54:	495f5443 	ldmdbmi	pc, {r0, r1, r6, sl, ip, lr}^	; <UNPREDICTABLE>
    4b58:	5f544942 	svcpl	0x00544942
    4b5c:	0030205f 	eorseq	r2, r0, pc, asr r0
    4b60:	4c465f5f 	mcrrmi	15, 5, r5, r6, cr15
    4b64:	5f343654 	svcpl	0x00343654
    4b68:	495f5349 	ldmdbmi	pc, {r0, r3, r6, r8, r9, ip, lr}^	; <UNPREDICTABLE>
    4b6c:	365f4345 	ldrbcc	r4, [pc], -r5, asr #6
    4b70:	39353530 	ldmdbcc	r5!, {r4, r5, r8, sl, ip, sp}
    4b74:	31205f5f 			; <UNDEFINED> instruction: 0x31205f5f
    4b78:	495f5f00 	ldmdbmi	pc, {r8, r9, sl, fp, ip, lr}^	; <UNPREDICTABLE>
    4b7c:	575f544e 	ldrbpl	r5, [pc, -lr, asr #8]
    4b80:	48544449 	ldmdami	r4, {r0, r3, r6, sl, lr}^
    4b84:	33205f5f 			; <UNDEFINED> instruction: 0x33205f5f
    4b88:	5f5f0032 	svcpl	0x005f0032
    4b8c:	4c57454e 	cfldr64mi	mvdx4, [r7], {78}	; 0x4e
    4b90:	505f4249 	subspl	r4, pc, r9, asr #4
    4b94:	48435441 	stmdami	r3, {r0, r6, sl, ip, lr}^
    4b98:	4556454c 	ldrbmi	r4, [r6, #-1356]	; 0xfffffab4
    4b9c:	205f5f4c 	subscs	r5, pc, ip, asr #30
    4ba0:	5f5f0030 	svcpl	0x005f0030
    4ba4:	6b636f6c 	blvs	18e095c <_Min_Stack_Size+0x18e055c>
    4ba8:	7163615f 	cmnvc	r3, pc, asr r1
    4bac:	65726975 	ldrbvs	r6, [r2, #-2421]!	; 0xfffff68b
    4bb0:	636f6c28 	cmnvs	pc, #40, 24	; 0x2800
    4bb4:	5f20296b 	svcpl	0x0020296b
    4bb8:	7465725f 	strbtvc	r7, [r5], #-607	; 0xfffffda1
    4bbc:	65677261 	strbvs	r7, [r7, #-609]!	; 0xfffffd9f
    4bc0:	6f6c5f74 	svcvs	0x006c5f74
    4bc4:	615f6b63 	cmpvs	pc, r3, ror #22
    4bc8:	69757163 	ldmdbvs	r5!, {r0, r1, r5, r6, r8, ip, sp, lr}^
    4bcc:	6c286572 	cfstr32vs	mvfx6, [r8], #-456	; 0xfffffe38
    4bd0:	296b636f 	stmdbcs	fp!, {r0, r1, r2, r3, r5, r6, r8, r9, sp, lr}^
    4bd4:	425f5f00 	subsmi	r5, pc, #0, 30
    4bd8:	565f4453 			; <UNDEFINED> instruction: 0x565f4453
    4bdc:	42495349 	submi	r5, r9, #603979777	; 0x24000001
    4be0:	3120454c 			; <UNDEFINED> instruction: 0x3120454c
    4be4:	4f5f5f00 	svcmi	0x005f5f00
    4be8:	52454452 	subpl	r4, r5, #1375731712	; 0x52000000
    4bec:	54494c5f 	strbpl	r4, [r9], #-3167	; 0xfffff3a1
    4bf0:	5f454c54 	svcpl	0x00454c54
    4bf4:	49444e45 	stmdbmi	r4, {r0, r2, r6, r9, sl, fp, lr}^
    4bf8:	5f5f4e41 	svcpl	0x005f4e41
    4bfc:	33323120 	teqcc	r2, #32, 2
    4c00:	5f5f0034 	svcpl	0x005f0034
    4c04:	657a6973 	ldrbvs	r6, [sl, #-2419]!	; 0xfffff68d
    4c08:	5f00745f 	svcpl	0x0000745f
    4c0c:	5f43435f 	svcpl	0x0043435f
    4c10:	50505553 	subspl	r5, r0, r3, asr r5
    4c14:	5354524f 	cmppl	r4, #-268435452	; 0xf0000004
    4c18:	4c4e495f 	mcrrmi	9, 5, r4, lr, cr15	; <UNPREDICTABLE>
    4c1c:	20454e49 	subcs	r4, r5, r9, asr #28
    4c20:	5f5f0031 	svcpl	0x005f0031
    4c24:	53544f44 	cmppl	r4, #68, 30	; 0x110
    4c28:	2e202c20 	cdpcs	12, 2, cr2, cr0, cr0, {1}
    4c2c:	70002e2e 	andvc	r2, r0, lr, lsr #28
    4c30:	68637475 	stmdavs	r3!, {r0, r2, r4, r5, r6, sl, ip, sp, lr}^
    4c34:	755f7261 	ldrbvc	r7, [pc, #-609]	; 49db <_Min_Stack_Size+0x45db>
    4c38:	636f6c6e 	cmnvs	pc, #28160	; 0x6e00
    4c3c:	2864656b 	stmdacs	r4!, {r0, r1, r3, r5, r6, r8, sl, sp, lr}^
    4c40:	2029635f 	eorcs	r6, r9, pc, asr r3
    4c44:	7475705f 	ldrbtvc	r7, [r5], #-95	; 0xffffffa1
    4c48:	72616863 	rsbvc	r6, r1, #6488064	; 0x630000
    4c4c:	6c6e755f 	cfstr64vs	mvdx7, [lr], #-380	; 0xfffffe84
    4c50:	656b636f 	strbvs	r6, [fp, #-879]!	; 0xfffffc91
    4c54:	635f2864 	cmpvs	pc, #100, 16	; 0x640000
    4c58:	525f0029 	subspl	r0, pc, #41	; 0x29
    4c5c:	544e4545 	strbpl	r4, [lr], #-1349	; 0xfffffabb
    4c60:	5445475f 	strbpl	r4, [r5], #-1887	; 0xfffff8a1
    4c64:	45544144 	ldrbmi	r4, [r4, #-324]	; 0xfffffebc
    4c68:	5252455f 	subspl	r4, r2, #398458880	; 0x17c00000
    4c6c:	7028505f 	eorvc	r5, r8, pc, asr r0
    4c70:	20297274 	eorcs	r7, r9, r4, ror r2
    4c74:	28282628 	stmdacs	r8!, {r3, r5, r9, sl, sp}
    4c78:	29727470 	ldmdbcs	r2!, {r4, r5, r6, sl, ip, sp, lr}^
    4c7c:	6d5f3e2d 	ldclvs	14, cr3, [pc, #-180]	; 4bd0 <_Min_Stack_Size+0x47d0>
    4c80:	2d637369 	stclcs	3, cr7, [r3, #-420]!	; 0xfffffe5c
    4c84:	65675f3e 	strbvs	r5, [r7, #-3902]!	; 0xfffff0c2
    4c88:	74616474 	strbtvc	r6, [r1], #-1140	; 0xfffffb8c
    4c8c:	72655f65 	rsbvc	r5, r5, #404	; 0x194
    4c90:	00292972 	eoreq	r2, r9, r2, ror r9
    4c94:	6c615f5f 	stclvs	15, cr5, [r1], #-380	; 0xfffffe84
    4c98:	5f636f6c 	svcpl	0x00636f6c
    4c9c:	657a6973 	ldrbvs	r6, [sl, #-2419]!	; 0xfffff68d
    4ca0:	20297828 	eorcs	r7, r9, r8, lsr #16
    4ca4:	74615f5f 	strbtvc	r5, [r1], #-3935	; 0xfffff0a1
    4ca8:	62697274 	rsbvs	r7, r9, #116, 4	; 0x40000007
    4cac:	5f657475 	svcpl	0x00657475
    4cb0:	5f28285f 	svcpl	0x0028285f
    4cb4:	6c6c615f 	stfvse	f6, [ip], #-380	; 0xfffffe84
    4cb8:	735f636f 	cmpvc	pc, #-1140850687	; 0xbc000001
    4cbc:	5f657a69 	svcpl	0x00657a69
    4cc0:	2978285f 	ldmdbcs	r8!, {r0, r1, r2, r3, r4, r6, fp, sp}^
    4cc4:	5f002929 	svcpl	0x00002929
    4cc8:	414c555f 	cmpmi	ip, pc, asr r5
    4ccc:	4d554343 	ldclmi	3, cr4, [r5, #-268]	; 0xfffffef4
    4cd0:	4942495f 	stmdbmi	r2, {r0, r1, r2, r3, r4, r6, r8, fp, lr}^
    4cd4:	205f5f54 	subscs	r5, pc, r4, asr pc	; <UNPREDICTABLE>
    4cd8:	5f003233 	svcpl	0x00003233
    4cdc:	42444c5f 	submi	r4, r4, #24320	; 0x5f00
    4ce0:	53495f4c 	movtpl	r5, #40780	; 0x9f4c
    4ce4:	4345495f 	movtmi	r4, #22879	; 0x595f
    4ce8:	3530365f 	ldrcc	r3, [r0, #-1631]!	; 0xfffff9a1
    4cec:	5f5f3935 	svcpl	0x005f3935
    4cf0:	5f003120 	svcpl	0x00003120
    4cf4:	5254505f 	subspl	r5, r4, #95	; 0x5f
    4cf8:	46464944 	strbmi	r4, [r6], -r4, asr #18
    4cfc:	5059545f 	subspl	r5, r9, pc, asr r4
    4d00:	205f5f45 	subscs	r5, pc, r5, asr #30
    4d04:	00746e69 	rsbseq	r6, r4, r9, ror #28
    4d08:	5a49535f 	bpl	1259a8c <_Min_Stack_Size+0x125968c>
    4d0c:	5f545f45 	svcpl	0x00545f45
    4d10:	49464544 	stmdbmi	r6, {r2, r6, r8, sl, lr}^
    4d14:	2044454e 	subcs	r4, r4, lr, asr #10
    4d18:	445f5f00 	ldrbmi	r5, [pc], #-3840	; 4d20 <_Min_Stack_Size+0x4920>
    4d1c:	42465f51 	submi	r5, r6, #324	; 0x144
    4d20:	5f5f5449 	svcpl	0x005f5449
    4d24:	00333620 	eorseq	r3, r3, r0, lsr #12
    4d28:	4e475f5f 	mcrmi	15, 2, r5, cr7, cr15, {2}
    4d2c:	49565f55 	ldmdbmi	r6, {r0, r2, r4, r6, r8, r9, sl, fp, ip, lr}^
    4d30:	4c424953 	mcrrmi	9, 5, r4, r2, cr3	; <UNPREDICTABLE>
    4d34:	00302045 	eorseq	r2, r0, r5, asr #32
    4d38:	41535f5f 	cmpmi	r3, pc, asr pc
    4d3c:	4d554343 	ldclmi	3, cr4, [r5, #-268]	; 0xfffffef4
    4d40:	4942495f 	stmdbmi	r2, {r0, r1, r2, r3, r4, r6, r8, fp, lr}^
    4d44:	205f5f54 	subscs	r5, pc, r4, asr pc	; <UNPREDICTABLE>
    4d48:	5f5f0038 	svcpl	0x005f0038
    4d4c:	44525450 	ldrbmi	r5, [r2], #-1104	; 0xfffffbb0
    4d50:	5f464649 	svcpl	0x00464649
    4d54:	5f002054 	svcpl	0x00002054
    4d58:	5148555f 	cmppl	r8, pc, asr r5
    4d5c:	4942495f 	stmdbmi	r2, {r0, r1, r2, r3, r4, r6, r8, fp, lr}^
    4d60:	205f5f54 	subscs	r5, pc, r4, asr pc	; <UNPREDICTABLE>
    4d64:	5f5f0030 	svcpl	0x005f0030
    4d68:	5f544e49 	svcpl	0x00544e49
    4d6c:	54534146 	ldrbpl	r4, [r3], #-326	; 0xfffffeba
    4d70:	545f3631 	ldrbpl	r3, [pc], #-1585	; 4d78 <_Min_Stack_Size+0x4978>
    4d74:	5f455059 	svcpl	0x00455059
    4d78:	6e69205f 	mcrvs	0, 3, r2, cr9, cr15, {2}
    4d7c:	5f5f0074 	svcpl	0x005f0074
    4d80:	43434153 	movtmi	r4, #12627	; 0x3153
    4d84:	4d5f4d55 	ldclmi	13, cr4, [pc, #-340]	; 4c38 <_Min_Stack_Size+0x4838>
    4d88:	5f5f4e49 	svcpl	0x005f4e49
    4d8c:	302d2820 	eorcc	r2, sp, r0, lsr #16
    4d90:	37503158 			; <UNDEFINED> instruction: 0x37503158
    4d94:	302d4b48 	eorcc	r4, sp, r8, asr #22
    4d98:	37503158 			; <UNDEFINED> instruction: 0x37503158
    4d9c:	00294b48 	eoreq	r4, r9, r8, asr #22
    4da0:	4c555f5f 	mrrcmi	15, 5, r5, r5, cr15	; <UNPREDICTABLE>
    4da4:	43415246 	movtmi	r5, #4678	; 0x1246
    4da8:	414d5f54 	cmpmi	sp, r4, asr pc
    4dac:	205f5f58 	subscs	r5, pc, r8, asr pc	; <UNPREDICTABLE>
    4db0:	46465830 			; <UNDEFINED> instruction: 0x46465830
    4db4:	46464646 	strbmi	r4, [r6], -r6, asr #12
    4db8:	2d504646 	ldclcs	6, cr4, [r0, #-280]	; 0xfffffee8
    4dbc:	4c553233 	lfmmi	f3, 2, [r5], {51}	; 0x33
    4dc0:	5f5f0052 	svcpl	0x005f0052
    4dc4:	544e4955 	strbpl	r4, [lr], #-2389	; 0xfffff6ab
    4dc8:	41454c5f 	cmpmi	r5, pc, asr ip
    4dcc:	36315453 			; <UNDEFINED> instruction: 0x36315453
    4dd0:	5059545f 	subspl	r5, r9, pc, asr r4
    4dd4:	205f5f45 	subscs	r5, pc, r5, asr #30
    4dd8:	726f6873 	rsbvc	r6, pc, #7536640	; 0x730000
    4ddc:	6e752074 	mrcvs	0, 3, r2, cr5, cr4, {3}
    4de0:	6e676973 			; <UNDEFINED> instruction: 0x6e676973
    4de4:	69206465 	stmdbvs	r0!, {r0, r2, r5, r6, sl, sp, lr}
    4de8:	5f00746e 	svcpl	0x0000746e
    4dec:	43414c5f 	movtmi	r4, #7263	; 0x1c5f
    4df0:	5f4d5543 	svcpl	0x004d5543
    4df4:	5f58414d 	svcpl	0x0058414d
    4df8:	5830205f 	ldmdapl	r0!, {r0, r1, r2, r3, r4, r6, sp}
    4dfc:	46464637 			; <UNDEFINED> instruction: 0x46464637
    4e00:	46464646 	strbmi	r4, [r6], -r6, asr #12
    4e04:	46464646 	strbmi	r4, [r6], -r6, asr #12
    4e08:	46464646 	strbmi	r4, [r6], -r6, asr #12
    4e0c:	31332d50 	teqcc	r3, r0, asr sp
    4e10:	5f004b4c 	svcpl	0x00004b4c
    4e14:	4148435f 	cmpmi	r8, pc, asr r3
    4e18:	5f363152 	svcpl	0x00363152
    4e1c:	45505954 	ldrbmi	r5, [r0, #-2388]	; 0xfffff6ac
    4e20:	73205f5f 			; <UNDEFINED> instruction: 0x73205f5f
    4e24:	74726f68 	ldrbtvc	r6, [r2], #-3944	; 0xfffff098
    4e28:	736e7520 	cmnvc	lr, #32, 10	; 0x8000000
    4e2c:	656e6769 	strbvs	r6, [lr, #-1897]!	; 0xfffff897
    4e30:	6e692064 	cdpvs	0, 6, cr2, cr9, cr4, {3}
    4e34:	5f5f0074 	svcpl	0x005f0074
    4e38:	20445253 	subcs	r5, r4, r3, asr r2
    4e3c:	30307830 	eorscc	r7, r0, r0, lsr r8
    4e40:	5f003430 	svcpl	0x00003430
    4e44:	544c465f 	strbpl	r4, [ip], #-1631	; 0xfffff9a1
    4e48:	5f583233 	svcpl	0x00583233
    4e4c:	5f474944 	svcpl	0x00474944
    4e50:	3531205f 	ldrcc	r2, [r1, #-95]!	; 0xffffffa1
    4e54:	735f5f00 	cmpvc	pc, #0, 30
    4e58:	656e6769 	strbvs	r6, [lr, #-1897]!	; 0xfffff897
    4e5c:	69732064 	ldmdbvs	r3!, {r2, r5, r6, sp}^
    4e60:	64656e67 	strbtvs	r6, [r5], #-3687	; 0xfffff199
    4e64:	555f5f00 	ldrbpl	r5, [pc, #-3840]	; 3f6c <_Min_Stack_Size+0x3b6c>
    4e68:	465f5154 			; <UNDEFINED> instruction: 0x465f5154
    4e6c:	5f544942 	svcpl	0x00544942
    4e70:	3231205f 	eorscc	r2, r1, #95	; 0x5f
    4e74:	525f0038 	subspl	r0, pc, #56	; 0x38
    4e78:	544e4545 	strbpl	r4, [lr], #-1349	; 0xfffffabb
    4e7c:	5456435f 	ldrbpl	r4, [r6], #-863	; 0xfffffca1
    4e80:	284e454c 	stmdacs	lr, {r2, r3, r6, r8, sl, lr}^
    4e84:	7274705f 	rsbsvc	r7, r4, #95	; 0x5f
    4e88:	28282029 	stmdacs	r8!, {r0, r3, r5, sp}
    4e8c:	7274705f 	rsbsvc	r7, r4, #95	; 0x5f
    4e90:	5f3e2d29 	svcpl	0x003e2d29
    4e94:	6c747663 	ldclvs	6, cr7, [r4], #-396	; 0xfffffe74
    4e98:	00296e65 	eoreq	r6, r9, r5, ror #28
    4e9c:	49465f5f 	stmdbmi	r6, {r0, r1, r2, r3, r4, r6, r8, r9, sl, fp, ip, lr}^
    4ea0:	4554494e 	ldrbmi	r4, [r4, #-2382]	; 0xfffff6b2
    4ea4:	54414d5f 	strbpl	r4, [r1], #-3423	; 0xfffff2a1
    4ea8:	4e4f5f48 	cdpmi	15, 4, cr5, cr15, cr8, {2}
    4eac:	5f5f594c 	svcpl	0x005f594c
    4eb0:	5f003020 	svcpl	0x00003020
    4eb4:	4e454552 	mcrmi	5, 2, r4, cr5, cr2, {2}
    4eb8:	48435f54 	stmdami	r3, {r2, r4, r6, r8, r9, sl, fp, ip, lr}^
    4ebc:	5f4b4345 	svcpl	0x004b4345
    4ec0:	4e474953 			; <UNDEFINED> instruction: 0x4e474953
    4ec4:	425f4c41 	subsmi	r4, pc, #16640	; 0x4100
    4ec8:	76284655 			; <UNDEFINED> instruction: 0x76284655
    4ecc:	20297261 	eorcs	r7, r9, r1, ror #4
    4ed0:	4545525f 	strbmi	r5, [r5, #-607]	; 0xfffffda1
    4ed4:	435f544e 	cmpmi	pc, #1308622848	; 0x4e000000
    4ed8:	4b434548 	blmi	10d6400 <_Min_Stack_Size+0x10d6000>
    4edc:	72617628 	rsbvc	r7, r1, #40, 12	; 0x2800000
    4ee0:	735f202c 	cmpvc	pc, #44	; 0x2c
    4ee4:	616e6769 	cmnvs	lr, r9, ror #14
    4ee8:	75625f6c 	strbvc	r5, [r2, #-3948]!	; 0xfffff094
    4eec:	63202c66 			; <UNDEFINED> instruction: 0x63202c66
    4ef0:	20726168 	rsbscs	r6, r2, r8, ror #2
    4ef4:	5f202c2a 	svcpl	0x00202c2a
    4ef8:	4e454552 	mcrmi	5, 2, r4, cr5, cr2, {2}
    4efc:	49535f54 	ldmdbmi	r3, {r2, r4, r6, r8, r9, sl, fp, ip, lr}^
    4f00:	4c414e47 	mcrrmi	14, 4, r4, r1, cr7
    4f04:	5a49535f 	bpl	1259c88 <_Min_Stack_Size+0x1259888>
    4f08:	29202c45 	stmdbcs	r0!, {r0, r2, r6, sl, fp, sp}
    4f0c:	495f5f00 	ldmdbmi	pc, {r8, r9, sl, fp, ip, lr}^	; <UNPREDICTABLE>
    4f10:	465f544e 	ldrbmi	r5, [pc], -lr, asr #8
    4f14:	31545341 	cmpcc	r4, r1, asr #6
    4f18:	414d5f36 	cmpmi	sp, r6, lsr pc
    4f1c:	205f5f58 	subscs	r5, pc, r8, asr pc	; <UNPREDICTABLE>
    4f20:	66377830 			; <UNDEFINED> instruction: 0x66377830
    4f24:	66666666 	strbtvs	r6, [r6], -r6, ror #12
    4f28:	5f006666 	svcpl	0x00006666
    4f2c:	7661685f 			; <UNDEFINED> instruction: 0x7661685f
    4f30:	6f6c5f65 	svcvs	0x006c5f65
    4f34:	6f6c676e 	svcvs	0x006c676e
    4f38:	3436676e 	ldrtcc	r6, [r6], #-1902	; 0xfffff892
    4f3c:	53003120 	movwpl	r3, #288	; 0x120
    4f40:	5f4b4545 	svcpl	0x004b4545
    4f44:	20444e45 	subcs	r4, r4, r5, asr #28
    4f48:	5f5f0032 	svcpl	0x005f0032
    4f4c:	455a4953 	ldrbmi	r4, [sl, #-2387]	; 0xfffff6ad
    4f50:	535f464f 	cmppl	pc, #82837504	; 0x4f00000
    4f54:	54524f48 	ldrbpl	r4, [r2], #-3912	; 0xfffff0b8
    4f58:	32205f5f 	eorcc	r5, r0, #380	; 0x17c
    4f5c:	6c5f5f00 	mrrcvs	15, 0, r5, pc, cr0	; <UNPREDICTABLE>
    4f60:	5f6b636f 	svcpl	0x006b636f
    4f64:	5f797274 	svcpl	0x00797274
    4f68:	75716361 	ldrbvc	r6, [r1, #-865]!	; 0xfffffc9f
    4f6c:	28657269 	stmdacs	r5!, {r0, r3, r5, r6, r9, ip, sp, lr}^
    4f70:	6b636f6c 	blvs	18e0d28 <_Min_Stack_Size+0x18e0928>
    4f74:	5f5f2029 	svcpl	0x005f2029
    4f78:	61746572 	cmnvs	r4, r2, ror r5
    4f7c:	74656772 	strbtvc	r6, [r5], #-1906	; 0xfffff88e
    4f80:	636f6c5f 	cmnvs	pc, #24320	; 0x5f00
    4f84:	72745f6b 	rsbsvc	r5, r4, #428	; 0x1ac
    4f88:	63615f79 	cmnvs	r1, #484	; 0x1e4
    4f8c:	72697571 	rsbvc	r7, r9, #473956352	; 0x1c400000
    4f90:	6f6c2865 	svcvs	0x006c2865
    4f94:	00296b63 	eoreq	r6, r9, r3, ror #22
    4f98:	4843575f 	stmdami	r3, {r0, r1, r2, r3, r4, r6, r8, r9, sl, ip, lr}^
    4f9c:	545f5241 	ldrbpl	r5, [pc], #-577	; 4fa4 <_Min_Stack_Size+0x4ba4>
    4fa0:	4645445f 			; <UNDEFINED> instruction: 0x4645445f
    4fa4:	44454e49 	strbmi	r4, [r5], #-3657	; 0xfffff1b7
    4fa8:	5f5f0020 	svcpl	0x005f0020
    4fac:	43414c55 	movtmi	r4, #7253	; 0x1c55
    4fb0:	5f4d5543 	svcpl	0x004d5543
    4fb4:	5f58414d 	svcpl	0x0058414d
    4fb8:	5830205f 	ldmdapl	r0!, {r0, r1, r2, r3, r4, r6, sp}
    4fbc:	46464646 	strbmi	r4, [r6], -r6, asr #12
    4fc0:	46464646 	strbmi	r4, [r6], -r6, asr #12
    4fc4:	46464646 	strbmi	r4, [r6], -r6, asr #12
    4fc8:	46464646 	strbmi	r4, [r6], -r6, asr #12
    4fcc:	32332d50 	eorscc	r2, r3, #80, 26	; 0x1400
    4fd0:	004b4c55 	subeq	r4, fp, r5, asr ip
    4fd4:	72745f5f 	rsbsvc	r5, r4, #380	; 0x17c
    4fd8:	636f6c79 	cmnvs	pc, #30976	; 0x7900
    4fdc:	735f736b 	cmpvc	pc, #-1409286143	; 0xac000001
    4fe0:	65726168 	ldrbvs	r6, [r2, #-360]!	; 0xfffffe98
    4fe4:	2e2e2864 	cdpcs	8, 2, cr2, cr14, cr4, {3}
    4fe8:	5f20292e 	svcpl	0x0020292e
    4fec:	636f6c5f 	cmnvs	pc, #24320	; 0x5f00
    4ff0:	6e615f6b 	cdpvs	15, 6, cr5, cr1, cr11, {3}
    4ff4:	61746f6e 	cmnvs	r4, lr, ror #30
    4ff8:	73286574 			; <UNDEFINED> instruction: 0x73286574
    4ffc:	65726168 	ldrbvs	r6, [r2, #-360]!	; 0xfffffe98
    5000:	72745f64 	rsbsvc	r5, r4, #100, 30	; 0x190
    5004:	636f6c79 	cmnvs	pc, #30976	; 0x7900
    5008:	75665f6b 	strbvc	r5, [r6, #-3947]!	; 0xfffff095
    500c:	6974636e 	ldmdbvs	r4!, {r1, r2, r3, r5, r6, r8, r9, sp, lr}^
    5010:	5f286e6f 	svcpl	0x00286e6f
    5014:	5f41565f 	svcpl	0x0041565f
    5018:	53475241 	movtpl	r5, #29249	; 0x7241
    501c:	29295f5f 	stmdbcs	r9!, {r0, r1, r2, r3, r4, r6, r8, r9, sl, fp, ip, lr}
    5020:	45525f00 	ldrbmi	r5, [r2, #-3840]	; 0xfffff100
    5024:	5f544e45 	svcpl	0x00544e45
    5028:	444e4152 	strbmi	r4, [lr], #-338	; 0xfffffeae
    502c:	58454e5f 	stmdapl	r5, {r0, r1, r2, r3, r4, r6, r9, sl, fp, lr}^
    5030:	74702854 	ldrbtvc	r2, [r0], #-2132	; 0xfffff7ac
    5034:	28202972 	stmdacs	r0!, {r1, r4, r5, r6, r8, fp, sp}
    5038:	72747028 	rsbsvc	r7, r4, #40	; 0x28
    503c:	5f3e2d29 	svcpl	0x003e2d29
    5040:	2d383472 	cfldrscs	mvf3, [r8, #-456]!	; 0xfffffe38
    5044:	61725f3e 	cmnvs	r2, lr, lsr pc
    5048:	6e5f646e 	cdpvs	4, 5, cr6, cr15, cr14, {3}
    504c:	29747865 	ldmdbcs	r4!, {r0, r2, r5, r6, fp, ip, sp, lr}^
    5050:	555f5f00 	ldrbpl	r5, [pc, #-3840]	; 4158 <_Min_Stack_Size+0x3d58>
    5054:	4152464c 	cmpmi	r2, ip, asr #12
    5058:	4d5f5443 	cfldrdmi	mvd5, [pc, #-268]	; 4f54 <_Min_Stack_Size+0x4b54>
    505c:	5f5f4e49 	svcpl	0x005f4e49
    5060:	302e3020 	eorcc	r3, lr, r0, lsr #32
    5064:	00524c55 	subseq	r4, r2, r5, asr ip
    5068:	51445f5f 	cmppl	r4, pc, asr pc
    506c:	4942495f 	stmdbmi	r2, {r0, r1, r2, r3, r4, r6, r8, fp, lr}^
    5070:	205f5f54 	subscs	r5, pc, r4, asr pc	; <UNPREDICTABLE>
    5074:	5f5f0030 	svcpl	0x005f0030
    5078:	5f4d5241 	svcpl	0x004d5241
    507c:	36314642 	ldrtcc	r4, [r1], -r2, asr #12
    5080:	524f465f 	subpl	r4, pc, #99614720	; 0x5f00000
    5084:	5f54414d 	svcpl	0x0054414d
    5088:	45544c41 	ldrbmi	r4, [r4, #-3137]	; 0xfffff3bf
    508c:	54414e52 	strbpl	r4, [r1], #-3666	; 0xfffff1ae
    5090:	00455649 	subeq	r5, r5, r9, asr #12
    5094:	4e495f5f 	mcrmi	15, 2, r5, cr9, cr15, {2}
    5098:	5f323354 	svcpl	0x00323354
    509c:	45505954 	ldrbmi	r5, [r0, #-2388]	; 0xfffff6ac
    50a0:	6c205f5f 	stcvs	15, cr5, [r0], #-380	; 0xfffffe84
    50a4:	20676e6f 	rsbcs	r6, r7, pc, ror #28
    50a8:	00746e69 	rsbseq	r6, r4, r9, ror #28
    50ac:	6c615f5f 	stclvs	15, cr5, [r1], #-380	; 0xfffffe84
    50b0:	73796177 	cmnvc	r9, #-1073741795	; 0xc000001d
    50b4:	6c6e695f 			; <UNDEFINED> instruction: 0x6c6e695f
    50b8:	20656e69 	rsbcs	r6, r5, r9, ror #28
    50bc:	6e695f5f 	mcrvs	15, 3, r5, cr9, cr15, {2}
    50c0:	656e696c 	strbvs	r6, [lr, #-2412]!	; 0xfffff694
    50c4:	5f205f5f 	svcpl	0x00205f5f
    50c8:	7474615f 	ldrbtvc	r6, [r4], #-351	; 0xfffffea1
    50cc:	75626972 	strbvc	r6, [r2, #-2418]!	; 0xfffff68e
    50d0:	5f5f6574 	svcpl	0x005f6574
    50d4:	5f5f2828 	svcpl	0x005f2828
    50d8:	61776c61 	cmnvs	r7, r1, ror #24
    50dc:	695f7379 	ldmdbvs	pc, {r0, r3, r4, r5, r6, r8, r9, ip, sp, lr}^	; <UNPREDICTABLE>
    50e0:	6e696c6e 	cdpvs	12, 6, cr6, cr9, cr14, {3}
    50e4:	295f5f65 	ldmdbcs	pc, {r0, r2, r5, r6, r8, r9, sl, fp, ip, lr}^	; <UNPREDICTABLE>
    50e8:	4d540029 	ldclmi	0, cr0, [r4, #-164]	; 0xffffff5c
    50ec:	414d5f50 	cmpmi	sp, r0, asr pc
    50f0:	36322058 			; <UNDEFINED> instruction: 0x36322058
    50f4:	635f5f00 	cmpvs	pc, #0, 30
    50f8:	61746e6f 	cmnvs	r4, pc, ror #28
    50fc:	72656e69 	rsbvc	r6, r5, #1680	; 0x690
    5100:	7828666f 	stmdavc	r8!, {r0, r1, r2, r3, r5, r6, r9, sl, sp, lr}
    5104:	6d2c732c 	stcvs	3, cr7, [ip, #-176]!	; 0xffffff50
    5108:	7b282029 	blvc	a0d1b4 <_Min_Stack_Size+0xa0cdb4>
    510c:	6e6f6320 	cdpvs	3, 6, cr6, cr15, cr0, {1}
    5110:	76207473 			; <UNDEFINED> instruction: 0x76207473
    5114:	74616c6f 	strbtvc	r6, [r1], #-3183	; 0xfffff391
    5118:	20656c69 	rsbcs	r6, r5, r9, ror #24
    511c:	79745f5f 	ldmdbvc	r4!, {r0, r1, r2, r3, r4, r6, r8, r9, sl, fp, ip, lr}^
    5120:	666f6570 			; <UNDEFINED> instruction: 0x666f6570
    5124:	73282828 			; <UNDEFINED> instruction: 0x73282828
    5128:	30292a20 	eorcc	r2, r9, r0, lsr #20
    512c:	6d3e2d29 	ldcvs	13, cr2, [lr, #-164]!	; 0xffffff5c
    5130:	5f2a2029 	svcpl	0x002a2029
    5134:	3d20785f 	stccc	8, cr7, [r0, #-380]!	; 0xfffffe84
    5138:	29782820 	ldmdbcs	r8!, {r5, fp, sp}^
    513c:	5f5f203b 	svcpl	0x005f203b
    5140:	55514544 	ldrbpl	r4, [r1, #-1348]	; 0xfffffabc
    5144:	46494c41 	strbmi	r4, [r9], -r1, asr #24
    5148:	20732859 	rsbscs	r2, r3, r9, asr r8
    514c:	28202c2a 	stmdacs	r0!, {r1, r3, r5, sl, fp, sp}
    5150:	736e6f63 	cmnvc	lr, #396	; 0x18c
    5154:	6f762074 	svcvs	0x00762074
    5158:	6974616c 	ldmdbvs	r4!, {r2, r3, r5, r6, r8, sp, lr}^
    515c:	6320656c 			; <UNDEFINED> instruction: 0x6320656c
    5160:	20726168 	rsbscs	r6, r2, r8, ror #2
    5164:	5f5f292a 	svcpl	0x005f292a
    5168:	202d2078 	eorcs	r2, sp, r8, ror r0
    516c:	666f5f5f 	uqsaxvs	r5, pc, pc	; <UNPREDICTABLE>
    5170:	74657366 	strbtvc	r7, [r5], #-870	; 0xfffffc9a
    5174:	7328666f 			; <UNDEFINED> instruction: 0x7328666f
    5178:	296d202c 	stmdbcs	sp!, {r2, r3, r5, sp}^
    517c:	297d3b29 	ldmdbcs	sp!, {r0, r3, r5, r8, r9, fp, ip, sp}^
    5180:	53425f00 	movtpl	r5, #12032	; 0x2f00
    5184:	49535f44 	ldmdbmi	r3, {r2, r6, r8, r9, sl, fp, ip, lr}^
    5188:	545f455a 	ldrbpl	r4, [pc], #-1370	; 5190 <_Min_Stack_Size+0x4d90>
    518c:	7300205f 	movwvc	r2, #95	; 0x5f
    5190:	6e696474 	mcrvs	4, 3, r6, cr9, cr4, {3}
    5194:	45525f20 	ldrbmi	r5, [r2, #-3872]	; 0xfffff0e0
    5198:	5f544e45 	svcpl	0x00544e45
    519c:	49445453 	stmdbmi	r4, {r0, r1, r4, r6, sl, ip, lr}^
    51a0:	525f284e 	subspl	r2, pc, #5111808	; 0x4e0000
    51a4:	544e4545 	strbpl	r4, [lr], #-1349	; 0xfffffabb
    51a8:	525f0029 	subspl	r0, pc, #41	; 0x29
    51ac:	544e4545 	strbpl	r4, [lr], #-1349	; 0xfffffabb
    51b0:	4548435f 	strbmi	r4, [r8, #-863]	; 0xfffffca1
    51b4:	415f4b43 	cmpmi	pc, r3, asr #22
    51b8:	49544353 	ldmdbmi	r4, {r0, r1, r4, r6, r8, r9, lr}^
    51bc:	425f454d 	subsmi	r4, pc, #322961408	; 0x13400000
    51c0:	76284655 			; <UNDEFINED> instruction: 0x76284655
    51c4:	20297261 	eorcs	r7, r9, r1, ror #4
    51c8:	4545525f 	strbmi	r5, [r5, #-607]	; 0xfffffda1
    51cc:	435f544e 	cmpmi	pc, #1308622848	; 0x4e000000
    51d0:	4b434548 	blmi	10d66f8 <_Min_Stack_Size+0x10d62f8>
    51d4:	72617628 	rsbvc	r7, r1, #40, 12	; 0x2800000
    51d8:	615f202c 	cmpvs	pc, ip, lsr #32
    51dc:	69746373 	ldmdbvs	r4!, {r0, r1, r4, r5, r6, r8, r9, sp, lr}^
    51e0:	625f656d 	subsvs	r6, pc, #457179136	; 0x1b400000
    51e4:	202c6675 	eorcs	r6, ip, r5, ror r6
    51e8:	72616863 	rsbvc	r6, r1, #6488064	; 0x630000
    51ec:	202c2a20 	eorcs	r2, ip, r0, lsr #20
    51f0:	4545525f 	strbmi	r5, [r5, #-607]	; 0xfffffda1
    51f4:	415f544e 	cmpmi	pc, lr, asr #8
    51f8:	49544353 	ldmdbmi	r4, {r0, r1, r4, r6, r8, r9, lr}^
    51fc:	535f454d 	cmppl	pc, #322961408	; 0x13400000
    5200:	2c455a49 	mcrrcs	10, 4, r5, r5, cr9
    5204:	6d656d20 	stclvs	13, cr6, [r5, #-128]!	; 0xffffff80
    5208:	28746573 	ldmdacs	r4!, {r0, r1, r4, r5, r6, r8, sl, sp, lr}^
    520c:	72617628 	rsbvc	r7, r1, #40, 12	; 0x2800000
    5210:	5f3e2d29 	svcpl	0x003e2d29
    5214:	74637361 	strbtvc	r7, [r3], #-865	; 0xfffffc9f
    5218:	5f656d69 	svcpl	0x00656d69
    521c:	2c667562 	cfstr64cs	mvdx7, [r6], #-392	; 0xfffffe78
    5220:	202c3020 	eorcs	r3, ip, r0, lsr #32
    5224:	4545525f 	strbmi	r5, [r5, #-607]	; 0xfffffda1
    5228:	415f544e 	cmpmi	pc, lr, asr #8
    522c:	49544353 	ldmdbmi	r4, {r0, r1, r4, r6, r8, r9, lr}^
    5230:	535f454d 	cmppl	pc, #322961408	; 0x13400000
    5234:	29455a49 	stmdbcs	r5, {r0, r3, r6, r9, fp, ip, lr}^
    5238:	545f0029 	ldrbpl	r0, [pc], #-41	; 5240 <_Min_Stack_Size+0x4e40>
    523c:	4843575f 	stmdami	r3, {r0, r1, r2, r3, r4, r6, r8, r9, sl, ip, lr}^
    5240:	00205241 	eoreq	r5, r0, r1, asr #4
    5244:	706f7266 	rsbvc	r7, pc, r6, ror #4
    5248:	5f286e65 	svcpl	0x00286e65
    524c:	6f6f635f 	svcvs	0x006f635f
    5250:	2c65696b 			; <UNDEFINED> instruction: 0x2c65696b
    5254:	6e665f5f 	mcrvs	15, 3, r5, cr6, cr15, {2}
    5258:	75662029 	strbvc	r2, [r6, #-41]!	; 0xffffffd7
    525c:	65706f6e 	ldrbvs	r6, [r0, #-3950]!	; 0xfffff092
    5260:	5f5f286e 	svcpl	0x005f286e
    5264:	6b6f6f63 	blvs	1be0ff8 <_Min_Stack_Size+0x1be0bf8>
    5268:	202c6569 	eorcs	r6, ip, r9, ror #10
    526c:	6e665f5f 	mcrvs	15, 3, r5, cr6, cr15, {2}
    5270:	554e202c 	strbpl	r2, [lr, #-44]	; 0xffffffd4
    5274:	202c4c4c 	eorcs	r4, ip, ip, asr #24
    5278:	4c4c554e 	cfstr64mi	mvdx5, [ip], {78}	; 0x4e
    527c:	554e202c 	strbpl	r2, [lr, #-44]	; 0xffffffd4
    5280:	00294c4c 	eoreq	r4, r9, ip, asr #24
    5284:	4545525f 	strbmi	r5, [r5, #-607]	; 0xfffffda1
    5288:	4d5f544e 	cfldrdmi	mvd5, [pc, #-312]	; 5158 <_Min_Stack_Size+0x4d58>
    528c:	52465f50 	subpl	r5, r6, #80, 30	; 0x140
    5290:	494c4545 	stmdbmi	ip, {r0, r2, r6, r8, sl, lr}^
    5294:	70285453 	eorvc	r5, r8, r3, asr r4
    5298:	20297274 	eorcs	r7, r9, r4, ror r2
    529c:	74702828 	ldrbtvc	r2, [r0], #-2088	; 0xfffff7d8
    52a0:	3e2d2972 			; <UNDEFINED> instruction: 0x3e2d2972
    52a4:	2d706d5f 	ldclcs	13, cr6, [r0, #-380]!	; 0xfffffe84
    52a8:	72665f3e 	rsbvc	r5, r6, #62, 30	; 0xf8
    52ac:	696c6565 	stmdbvs	ip!, {r0, r2, r5, r6, r8, sl, sp, lr}^
    52b0:	00297473 	eoreq	r7, r9, r3, ror r4
    52b4:	4f4c435f 	svcmi	0x004c435f
    52b8:	44494b43 	strbmi	r4, [r9], #-2883	; 0xfffff4bd
    52bc:	205f545f 	subscs	r5, pc, pc, asr r4	; <UNPREDICTABLE>
    52c0:	69736e75 	ldmdbvs	r3!, {r0, r2, r4, r5, r6, r9, sl, fp, sp, lr}^
    52c4:	64656e67 	strbtvs	r6, [r5], #-3687	; 0xfffff199
    52c8:	6e6f6c20 	cdpvs	12, 6, cr6, cr15, cr0, {1}
    52cc:	5f5f0067 	svcpl	0x005f0067
    52d0:	5f515455 	svcpl	0x00515455
    52d4:	54494249 	strbpl	r4, [r9], #-585	; 0xfffffdb7
    52d8:	30205f5f 	eorcc	r5, r0, pc, asr pc
    52dc:	535f5f00 	cmppl	pc, #0, 30
    52e0:	42465f41 	submi	r5, r6, #260	; 0x104
    52e4:	5f5f5449 	svcpl	0x005f5449
    52e8:	00353120 	eorseq	r3, r5, r0, lsr #2
    52ec:	4e495f5f 	mcrmi	15, 2, r5, cr9, cr15, {2}
    52f0:	43575f54 	cmpmi	r7, #84, 30	; 0x150
    52f4:	5f524148 	svcpl	0x00524148
    52f8:	20485f54 	subcs	r5, r8, r4, asr pc
    52fc:	465f5f00 	ldrbmi	r5, [pc], -r0, lsl #30
    5300:	3233544c 	eorscc	r5, r3, #76, 8	; 0x4c000000
    5304:	414d5f58 	cmpmi	sp, r8, asr pc
    5308:	205f5f58 	subscs	r5, pc, r8, asr pc	; <UNPREDICTABLE>
    530c:	39372e31 	ldmdbcc	r7!, {r0, r4, r5, r9, sl, fp, sp}
    5310:	33393637 	teqcc	r9, #57671680	; 0x3700000
    5314:	38343331 	ldmdacc	r4!, {r0, r4, r5, r8, r9, ip, sp}
    5318:	31333236 	teqcc	r3, r6, lsr r2
    531c:	2b653735 	blcs	1952ff8 <_Min_Stack_Size+0x1952bf8>
    5320:	46383033 			; <UNDEFINED> instruction: 0x46383033
    5324:	00783233 	rsbseq	r3, r8, r3, lsr r2
    5328:	4454535f 	ldrbmi	r5, [r4], #-863	; 0xfffffca1
    532c:	485f4f49 	ldmdami	pc, {r0, r3, r6, r8, r9, sl, fp, lr}^	; <UNPREDICTABLE>
    5330:	5f00205f 	svcpl	0x0000205f
    5334:	4d52415f 	ldfmie	f4, [r2, #-380]	; 0xfffffe84
    5338:	4241455f 	submi	r4, r1, #398458880	; 0x17c00000
    533c:	205f5f49 	subscs	r5, pc, r9, asr #30
    5340:	485f0031 	ldmdami	pc, {r0, r4, r5}^	; <UNPREDICTABLE>
    5344:	5f455641 	svcpl	0x00455641
    5348:	54494e49 	strbpl	r4, [r9], #-3657	; 0xfffff1b7
    534c:	494e4946 	stmdbmi	lr, {r1, r2, r6, r8, fp, lr}^
    5350:	5252415f 	subspl	r4, r2, #-1073741801	; 0xc0000017
    5354:	31205941 			; <UNDEFINED> instruction: 0x31205941
    5358:	455f5f00 	ldrbmi	r5, [pc, #-3840]	; 4460 <_Min_Stack_Size+0x4060>
    535c:	5f5f464c 	svcpl	0x005f464c
    5360:	5f003120 	svcpl	0x00003120
    5364:	5548545f 	strbpl	r5, [r8, #-1119]	; 0xfffffba1
    5368:	4c45424d 	sfmmi	f4, 2, [r5], {77}	; 0x4d
    536c:	31205f5f 			; <UNDEFINED> instruction: 0x31205f5f
    5370:	415f5f00 	cmpmi	pc, r0, lsl #30
    5374:	465f4d52 			; <UNDEFINED> instruction: 0x465f4d52
    5378:	55544145 	ldrbpl	r4, [r4, #-325]	; 0xfffffebb
    537c:	445f4552 	ldrbmi	r4, [pc], #-1362	; 5384 <_Min_Stack_Size+0x4f84>
    5380:	31205053 	qsubcc	r5, r3, r0
    5384:	515f5f00 	cmppl	pc, r0, lsl #30
    5388:	42495f51 	submi	r5, r9, #324	; 0x144
    538c:	5f5f5449 	svcpl	0x005f5449
    5390:	5f003020 	svcpl	0x00003020
    5394:	524f535f 	subpl	r5, pc, #2080374785	; 0x7c000001
    5398:	78302044 	ldmdavc	r0!, {r2, r6, sp}
    539c:	30303032 	eorscc	r3, r0, r2, lsr r0
    53a0:	61747300 	cmnvs	r4, r0, lsl #6
    53a4:	5f636974 	svcpl	0x00636974
    53a8:	65737361 	ldrbvs	r7, [r3, #-865]!	; 0xfffffc9f
    53ac:	5f207472 	svcpl	0x00207472
    53b0:	74617453 	strbtvc	r7, [r1], #-1107	; 0xfffffbad
    53b4:	615f6369 	cmpvs	pc, r9, ror #6
    53b8:	72657373 	rsbvc	r7, r5, #-872415231	; 0xcc000001
    53bc:	5f5f0074 	svcpl	0x005f0074
    53c0:	4b434f4c 	blmi	10d90f8 <_Min_Stack_Size+0x10d8cf8>
    53c4:	494e495f 	stmdbmi	lr, {r0, r1, r2, r3, r4, r6, r8, fp, lr}^
    53c8:	45525f54 	ldrbmi	r5, [r2, #-3924]	; 0xfffff0ac
    53cc:	53525543 	cmppl	r2, #281018368	; 0x10c00000
    53d0:	28455649 	stmdacs	r5, {r0, r3, r6, r9, sl, ip, lr}^
    53d4:	73616c63 	cmnvc	r1, #25344	; 0x6300
    53d8:	6f6c2c73 	svcvs	0x006c2c73
    53dc:	20296b63 	eorcs	r6, r9, r3, ror #22
    53e0:	4f4c5f5f 	svcmi	0x004c5f5f
    53e4:	495f4b43 	ldmdbmi	pc, {r0, r1, r6, r8, r9, fp, lr}^	; <UNPREDICTABLE>
    53e8:	2854494e 	ldmdacs	r4, {r1, r2, r3, r6, r8, fp, lr}^
    53ec:	73616c63 	cmnvc	r1, #25344	; 0x6300
    53f0:	6f6c2c73 	svcvs	0x006c2c73
    53f4:	00296b63 	eoreq	r6, r9, r3, ror #22
    53f8:	4c4c5f5f 	mcrrmi	15, 5, r5, ip, cr15
    53fc:	55434341 	strbpl	r4, [r3, #-833]	; 0xfffffcbf
    5400:	42465f4d 	submi	r5, r6, #308	; 0x134
    5404:	5f5f5449 	svcpl	0x005f5449
    5408:	00313320 	eorseq	r3, r1, r0, lsr #6
    540c:	49555f5f 	ldmdbmi	r5, {r0, r1, r2, r3, r4, r6, r8, r9, sl, fp, ip, lr}^
    5410:	414d544e 	cmpmi	sp, lr, asr #8
    5414:	59545f58 	ldmdbpl	r4, {r3, r4, r6, r8, r9, sl, fp, ip, lr}^
    5418:	5f5f4550 	svcpl	0x005f4550
    541c:	6e6f6c20 	cdpvs	12, 6, cr6, cr15, cr0, {1}
    5420:	6f6c2067 	svcvs	0x006c2067
    5424:	7520676e 	strvc	r6, [r0, #-1902]!	; 0xfffff892
    5428:	6769736e 	strbvs	r7, [r9, -lr, ror #6]!
    542c:	2064656e 	rsbcs	r6, r4, lr, ror #10
    5430:	00746e69 	rsbseq	r6, r4, r9, ror #28
    5434:	4c465f5f 	mcrrmi	15, 5, r5, r6, cr15
    5438:	58323354 	ldmdapl	r2!, {r2, r4, r6, r8, r9, ip, sp}
    543c:	4e494d5f 	mcrmi	13, 2, r4, cr9, cr15, {2}
    5440:	5f30315f 	svcpl	0x0030315f
    5444:	5f505845 	svcpl	0x00505845
    5448:	2d28205f 	stccs	0, cr2, [r8, #-380]!	; 0xfffffe84
    544c:	29373033 	ldmdbcs	r7!, {r0, r1, r4, r5, ip, sp}
    5450:	695f5f00 	ldmdbvs	pc, {r8, r9, sl, fp, ip, lr}^	; <UNPREDICTABLE>
    5454:	6c615f73 	stclvs	15, cr5, [r1], #-460	; 0xfffffe34
    5458:	656e6769 	strbvs	r6, [lr, #-1897]!	; 0xfffff897
    545c:	2c782864 	ldclcs	8, cr2, [r8], #-400	; 0xfffffe70
    5460:	5f202979 	svcpl	0x00202979
    5464:	6975625f 	ldmdbvs	r5!, {r0, r1, r2, r3, r4, r6, r9, sp, lr}^
    5468:	6e69746c 	cdpvs	4, 6, cr7, cr9, cr12, {3}
    546c:	5f73695f 	svcpl	0x0073695f
    5470:	67696c61 	strbvs	r6, [r9, -r1, ror #24]!
    5474:	2864656e 	stmdacs	r4!, {r1, r2, r3, r5, r6, r8, sl, sp, lr}^
    5478:	79202c78 	stmdbvc	r0!, {r3, r4, r5, r6, sl, fp, sp}
    547c:	5f5f0029 	svcpl	0x005f0029
    5480:	43554e47 	cmpmi	r5, #1136	; 0x470
    5484:	4e494d5f 	mcrmi	13, 2, r4, cr9, cr15, {2}
    5488:	5f5f524f 	svcpl	0x005f524f
    548c:	5f003320 	svcpl	0x00003320
    5490:	4957535f 	ldmdbmi	r7, {r0, r1, r2, r3, r4, r6, r8, r9, ip, lr}^
    5494:	78302044 	ldmdavc	r0!, {r2, r6, sp}
    5498:	30303032 	eorscc	r3, r0, r2, lsr r0
    549c:	555f5f00 	ldrbpl	r5, [pc, #-3840]	; 45a4 <_Min_Stack_Size+0x41a4>
    54a0:	5f544e49 	svcpl	0x00544e49
    54a4:	5341454c 	movtpl	r4, #5452	; 0x154c
    54a8:	5f323354 	svcpl	0x00323354
    54ac:	45505954 	ldrbmi	r5, [r0, #-2388]	; 0xfffff6ac
    54b0:	6c205f5f 	stcvs	15, cr5, [r0], #-380	; 0xfffffe84
    54b4:	20676e6f 	rsbcs	r6, r7, pc, ror #28
    54b8:	69736e75 	ldmdbvs	r3!, {r0, r2, r4, r5, r6, r9, sl, fp, sp, lr}^
    54bc:	64656e67 	strbtvs	r6, [r5], #-3687	; 0xfffff199
    54c0:	746e6920 	strbtvc	r6, [lr], #-2336	; 0xfffff6e0
    54c4:	415f5f00 	cmpmi	pc, r0, lsl #30
    54c8:	465f4d52 			; <UNDEFINED> instruction: 0x465f4d52
    54cc:	55544145 	ldrbpl	r4, [r4, #-325]	; 0xfffffebb
    54d0:	4e5f4552 	mrcmi	5, 2, r4, cr15, cr2, {2}
    54d4:	52454d55 	subpl	r4, r5, #5440	; 0x1540
    54d8:	4d5f4349 	ldclmi	3, cr4, [pc, #-292]	; 53bc <_Min_Stack_Size+0x4fbc>
    54dc:	494d5841 	stmdbmi	sp, {r0, r6, fp, ip, lr}^
    54e0:	525f004e 	subspl	r0, pc, #78	; 0x4e
    54e4:	34444e41 	strbcc	r4, [r4], #-3649	; 0xfffff1bf
    54e8:	554d5f38 	strbpl	r5, [sp, #-3896]	; 0xfffff0c8
    54ec:	315f544c 	cmpcc	pc, ip, asr #8
    54f0:	78302820 	ldmdavc	r0!, {r5, fp, sp}
    54f4:	63656564 	cmnvs	r5, #100, 10	; 0x19000000
    54f8:	5f5f0029 	svcpl	0x005f0029
    54fc:	4d544e49 	ldclmi	14, cr4, [r4, #-292]	; 0xfffffedc
    5500:	545f5841 	ldrbpl	r5, [pc], #-2113	; 5508 <_Min_Stack_Size+0x5108>
    5504:	5f455059 	svcpl	0x00455059
    5508:	6f6c205f 	svcvs	0x006c205f
    550c:	6c20676e 	stcvs	7, cr6, [r0], #-440	; 0xfffffe48
    5510:	20676e6f 	rsbcs	r6, r7, pc, ror #28
    5514:	00746e69 	rsbseq	r6, r4, r9, ror #28
    5518:	43475f5f 	movtmi	r5, #32607	; 0x7f5f
    551c:	54415f43 	strbpl	r5, [r1], #-3907	; 0xfffff0bd
    5520:	43494d4f 	movtmi	r4, #40271	; 0x9d4f
    5524:	544e495f 	strbpl	r4, [lr], #-2399	; 0xfffff6a1
    5528:	434f4c5f 	movtmi	r4, #64607	; 0xfc5f
    552c:	52465f4b 	subpl	r5, r6, #300	; 0x12c
    5530:	32204545 	eorcc	r4, r0, #289406976	; 0x11400000
    5534:	41525f00 	cmpmi	r2, r0, lsl #30
    5538:	3834444e 	ldmdacc	r4!, {r1, r2, r3, r6, sl, lr}
    553c:	4545535f 	strbmi	r5, [r5, #-863]	; 0xfffffca1
    5540:	20305f44 	eorscs	r5, r0, r4, asr #30
    5544:	33783028 	cmncc	r8, #40	; 0x28
    5548:	29653033 	stmdbcs	r5!, {r0, r1, r4, r5, ip, sp}^
    554c:	53535f00 	cmppl	r3, #0, 30
    5550:	5f455a49 	svcpl	0x00455a49
    5554:	45445f54 	strbmi	r5, [r4, #-3924]	; 0xfffff0ac
    5558:	52414c43 	subpl	r4, r1, #17152	; 0x4300
    555c:	00204445 	eoreq	r4, r0, r5, asr #8
    5560:	706f7766 	rsbvc	r7, pc, r6, ror #14
    5564:	5f286e65 	svcpl	0x00286e65
    5568:	6f6f635f 	svcvs	0x006f635f
    556c:	2c65696b 			; <UNDEFINED> instruction: 0x2c65696b
    5570:	6e665f5f 	mcrvs	15, 3, r5, cr6, cr15, {2}
    5574:	75662029 	strbvc	r2, [r6, #-41]!	; 0xffffffd7
    5578:	65706f6e 	ldrbvs	r6, [r0, #-3950]!	; 0xfffff092
    557c:	5f5f286e 	svcpl	0x005f286e
    5580:	6b6f6f63 	blvs	1be1314 <_Min_Stack_Size+0x1be0f14>
    5584:	202c6569 	eorcs	r6, ip, r9, ror #10
    5588:	4c4c554e 	cfstr64mi	mvdx5, [ip], {78}	; 0x4e
    558c:	5f5f202c 	svcpl	0x005f202c
    5590:	202c6e66 	eorcs	r6, ip, r6, ror #28
    5594:	4c4c554e 	cfstr64mi	mvdx5, [ip], {78}	; 0x4e
    5598:	554e202c 	strbpl	r2, [lr, #-44]	; 0xffffffd4
    559c:	00294c4c 	eoreq	r4, r9, ip, asr #24
    55a0:	4343475f 	movtmi	r4, #14175	; 0x375f
    55a4:	58414d5f 	stmdapl	r1, {r0, r1, r2, r3, r4, r6, r8, sl, fp, lr}^
    55a8:	494c415f 	stmdbmi	ip, {r0, r1, r2, r3, r4, r6, r8, lr}^
    55ac:	545f4e47 	ldrbpl	r4, [pc], #-3655	; 55b4 <_Min_Stack_Size+0x51b4>
    55b0:	5f5f0020 	svcpl	0x005f0020
    55b4:	676e6f4c 	strbvs	r6, [lr, -ip, asr #30]!
    55b8:	6e6f6c20 	cdpvs	12, 6, cr6, cr15, cr0, {1}
    55bc:	5f5f0067 	svcpl	0x005f0067
    55c0:	746e695f 	strbtvc	r6, [lr], #-2399	; 0xfffff6a1
    55c4:	61656c5f 	cmnvs	r5, pc, asr ip
    55c8:	32337473 	eorscc	r7, r3, #1929379840	; 0x73000000
    55cc:	645f745f 	ldrbvs	r7, [pc], #-1119	; 55d4 <_Min_Stack_Size+0x51d4>
    55d0:	6e696665 	cdpvs	6, 6, cr6, cr9, cr5, {3}
    55d4:	31206465 			; <UNDEFINED> instruction: 0x31206465
    55d8:	415f5f00 	cmpmi	pc, r0, lsl #30
    55dc:	465f4d52 			; <UNDEFINED> instruction: 0x465f4d52
    55e0:	55544145 	ldrbpl	r4, [r4, #-325]	; 0xfffffebb
    55e4:	465f4552 			; <UNDEFINED> instruction: 0x465f4552
    55e8:	5f363150 	svcpl	0x00363150
    55ec:	4c414353 	mcrrmi	3, 5, r4, r1, cr3
    55f0:	415f5241 	cmpmi	pc, r1, asr #4
    55f4:	48544952 	ldmdami	r4, {r1, r4, r6, r8, fp, lr}^
    55f8:	4954454d 	ldmdbmi	r4, {r0, r2, r3, r6, r8, sl, lr}^
    55fc:	5f5f0043 	svcpl	0x005f0043
    5600:	5f544c46 	svcpl	0x00544c46
    5604:	4d524f4e 	ldclmi	15, cr4, [r2, #-312]	; 0xfffffec8
    5608:	58414d5f 	stmdapl	r1, {r0, r1, r2, r3, r4, r6, r8, sl, fp, lr}^
    560c:	33205f5f 			; <UNDEFINED> instruction: 0x33205f5f
    5610:	3230342e 	eorscc	r3, r0, #771751936	; 0x2e000000
    5614:	34333238 	ldrtcc	r3, [r3], #-568	; 0xfffffdc8
    5618:	38333636 	ldmdacc	r3!, {r1, r2, r4, r5, r9, sl, ip, sp}
    561c:	38383235 	ldmdacc	r8!, {r0, r2, r4, r5, r9, ip, sp}
    5620:	332b6536 			; <UNDEFINED> instruction: 0x332b6536
    5624:	5f004638 	svcpl	0x00004638
    5628:	4153555f 	cmpmi	r3, pc, asr r5
    562c:	4d554343 	ldclmi	3, cr4, [r5, #-268]	; 0xfffffef4
    5630:	5350455f 	cmppl	r0, #398458880	; 0x17c00000
    5634:	4e4f4c49 	cdpmi	12, 4, cr4, cr15, cr9, {2}
    5638:	30205f5f 	eorcc	r5, r0, pc, asr pc
    563c:	2d503178 	ldfcse	f3, [r0, #-480]	; 0xfffffe20
    5640:	4b485538 	blmi	121ab28 <_Min_Stack_Size+0x121a728>
    5644:	445f5f00 	ldrbmi	r5, [pc], #-3840	; 564c <_Min_Stack_Size+0x524c>
    5648:	485f4c42 	ldmdami	pc, {r1, r6, sl, fp, lr}^	; <UNPREDICTABLE>
    564c:	515f5341 	cmppl	pc, r1, asr #6
    5650:	54454955 	strbpl	r4, [r5], #-2389	; 0xfffff6ab
    5654:	4e414e5f 	mcrmi	14, 2, r4, cr1, cr15, {2}
    5658:	31205f5f 			; <UNDEFINED> instruction: 0x31205f5f
    565c:	705f5f00 	subsvc	r5, pc, r0, lsl #30
    5660:	61767274 	cmnvs	r6, r4, ror r2
    5664:	2065756c 	rsbcs	r7, r5, ip, ror #10
    5668:	4f4e5f00 	svcmi	0x004e5f00
    566c:	494c4e49 	stmdbmi	ip, {r0, r3, r6, r9, sl, fp, lr}^
    5670:	535f454e 	cmppl	pc, #327155712	; 0x13800000
    5674:	49544154 	ldmdbmi	r4, {r2, r4, r6, r8, lr}^
    5678:	4e5f2043 	cdpmi	0, 5, cr2, cr15, cr3, {2}
    567c:	4c4e494f 	mcrrmi	9, 4, r4, lr, cr15	; <UNPREDICTABLE>
    5680:	20454e49 	subcs	r4, r5, r9, asr #28
    5684:	74617473 	strbtvc	r7, [r1], #-1139	; 0xfffffb8d
    5688:	5f006369 	svcpl	0x00006369
    568c:	464c4c5f 			; <UNDEFINED> instruction: 0x464c4c5f
    5690:	54434152 	strbpl	r4, [r3], #-338	; 0xfffffeae
    5694:	58414d5f 	stmdapl	r1, {r0, r1, r2, r3, r4, r6, r8, sl, fp, lr}^
    5698:	30205f5f 	eorcc	r5, r0, pc, asr pc
    569c:	46463758 			; <UNDEFINED> instruction: 0x46463758
    56a0:	46464646 	strbmi	r4, [r6], -r6, asr #12
    56a4:	46464646 	strbmi	r4, [r6], -r6, asr #12
    56a8:	46464646 	strbmi	r4, [r6], -r6, asr #12
    56ac:	362d5046 	strtcc	r5, [sp], -r6, asr #32
    56b0:	524c4c33 	subpl	r4, ip, #13056	; 0x3300
    56b4:	535f5f00 	cmppl	pc, #0, 30
    56b8:	55434341 	strbpl	r4, [r3, #-833]	; 0xfffffcbf
    56bc:	414d5f4d 	cmpmi	sp, sp, asr #30
    56c0:	205f5f58 	subscs	r5, pc, r8, asr pc	; <UNPREDICTABLE>
    56c4:	46375830 			; <UNDEFINED> instruction: 0x46375830
    56c8:	2d504646 	ldclcs	6, cr4, [r0, #-280]	; 0xfffffee8
    56cc:	004b4837 	subeq	r4, fp, r7, lsr r8
    56d0:	4e495f5f 	mcrmi	15, 2, r5, cr9, cr15, {2}
    56d4:	52545054 	subspl	r5, r4, #84	; 0x54
    56d8:	5059545f 	subspl	r5, r9, pc, asr r4
    56dc:	205f5f45 	subscs	r5, pc, r5, asr #30
    56e0:	00746e69 	rsbseq	r6, r4, r9, ror #28
    56e4:	49555f5f 	ldmdbmi	r5, {r0, r1, r2, r3, r4, r6, r8, r9, sl, fp, ip, lr}^
    56e8:	5450544e 	ldrbpl	r5, [r0], #-1102	; 0xfffffbb2
    56ec:	59545f52 	ldmdbpl	r4, {r1, r4, r6, r8, r9, sl, fp, ip, lr}^
    56f0:	5f5f4550 	svcpl	0x005f4550
    56f4:	736e7520 	cmnvc	lr, #32, 10	; 0x8000000
    56f8:	656e6769 	strbvs	r6, [lr, #-1897]!	; 0xfffff897
    56fc:	6e692064 	cdpvs	0, 6, cr2, cr9, cr4, {3}
    5700:	5f5f0074 	svcpl	0x005f0074
    5704:	49474552 	stmdbmi	r7, {r1, r4, r6, r8, sl, lr}^
    5708:	52455453 	subpl	r5, r5, #1392508928	; 0x53000000
    570c:	4552505f 	ldrbmi	r5, [r2, #-95]	; 0xffffffa1
    5710:	5f584946 	svcpl	0x00584946
    5714:	5f00205f 	svcpl	0x0000205f
    5718:	544c465f 	strbpl	r4, [ip], #-1631	; 0xfffff9a1
    571c:	4d5f3233 	lfmmi	f3, 2, [pc, #-204]	; 5658 <_Min_Stack_Size+0x5258>
    5720:	5f5f5841 	svcpl	0x005f5841
    5724:	342e3320 	strtcc	r3, [lr], #-800	; 0xfffffce0
    5728:	32383230 	eorscc	r3, r8, #48, 4
    572c:	36363433 			; <UNDEFINED> instruction: 0x36363433
    5730:	32353833 	eorscc	r3, r5, #3342336	; 0x330000
    5734:	65363838 	ldrvs	r3, [r6, #-2104]!	; 0xfffff7c8
    5738:	4638332b 	ldrtmi	r3, [r8], -fp, lsr #6
    573c:	5f003233 	svcpl	0x00003233
    5740:	4c42445f 	cfstrdmi	mvd4, [r2], {95}	; 0x5f
    5744:	4749445f 	smlsldmi	r4, r9, pc, r4	; <UNPREDICTABLE>
    5748:	31205f5f 			; <UNDEFINED> instruction: 0x31205f5f
    574c:	5f5f0035 	svcpl	0x005f0035
    5750:	52464c55 	subpl	r4, r6, #21760	; 0x5500
    5754:	5f544341 	svcpl	0x00544341
    5758:	49535045 	ldmdbmi	r3, {r0, r2, r6, ip, lr}^
    575c:	5f4e4f4c 	svcpl	0x004e4f4c
    5760:	7830205f 	ldmdavc	r0!, {r0, r1, r2, r3, r4, r6, sp}
    5764:	332d5031 			; <UNDEFINED> instruction: 0x332d5031
    5768:	524c5532 	subpl	r5, ip, #209715200	; 0xc800000
    576c:	525f5f00 	subspl	r5, pc, #0, 30
    5770:	44495343 	strbmi	r5, [r9], #-835	; 0xfffffcbd
    5774:	20297328 	eorcs	r7, r9, r8, lsr #6
    5778:	75727473 	ldrbvc	r7, [r2, #-1139]!	; 0xfffffb8d
    577c:	5f207463 	svcpl	0x00207463
    5780:	6361685f 	cmnvs	r1, #6225920	; 0x5f0000
    5784:	5f5f006b 	svcpl	0x005f006b
    5788:	5f4d5241 	svcpl	0x004d5241
    578c:	54414546 	strbpl	r4, [r1], #-1350	; 0xfffffaba
    5790:	5f455255 	svcpl	0x00455255
    5794:	5f434150 	svcpl	0x00434150
    5798:	41464544 	cmpmi	r6, r4, asr #10
    579c:	00544c55 	subseq	r4, r4, r5, asr ip
    57a0:	4545525f 	strbmi	r5, [r5, #-607]	; 0xfffffda1
    57a4:	4c5f544e 	cfldrdmi	mvd5, [pc], {78}	; 0x4e
    57a8:	5f413436 	svcpl	0x00413436
    57ac:	28465542 	stmdacs	r6, {r1, r6, r8, sl, ip, lr}^
    57b0:	29727470 	ldmdbcs	r2!, {r4, r5, r6, sl, ip, sp, lr}^
    57b4:	70282820 	eorvc	r2, r8, r0, lsr #16
    57b8:	2d297274 	sfmcs	f7, 4, [r9, #-464]!	; 0xfffffe30
    57bc:	696d5f3e 	stmdbvs	sp!, {r1, r2, r3, r4, r5, r8, r9, sl, fp, ip, lr}^
    57c0:	3e2d6373 	mcrcc	3, 1, r6, cr13, cr3, {3}
    57c4:	34366c5f 	ldrtcc	r6, [r6], #-3167	; 0xfffff3a1
    57c8:	75625f61 	strbvc	r5, [r2, #-3937]!	; 0xfffff09f
    57cc:	5f002966 	svcpl	0x00002966
    57d0:	5a49535f 	bpl	125a554 <_Min_Stack_Size+0x125a154>
    57d4:	5f464f45 	svcpl	0x00464f45
    57d8:	455a4953 	ldrbmi	r4, [sl, #-2387]	; 0xfffff6ad
    57dc:	5f5f545f 	svcpl	0x005f545f
    57e0:	5f003420 	svcpl	0x00003420
    57e4:	4e454552 	mcrmi	5, 2, r4, cr5, cr2, {2}
    57e8:	424d5f54 	submi	r5, sp, #84, 30	; 0x150
    57ec:	5f4e454c 	svcpl	0x004e454c
    57f0:	54415453 	strbpl	r5, [r1], #-1107	; 0xfffffbad
    57f4:	74702845 	ldrbtvc	r2, [r0], #-2117	; 0xfffff7bb
    57f8:	28202972 	stmdacs	r0!, {r1, r4, r5, r6, r8, fp, sp}
    57fc:	72747028 	rsbsvc	r7, r4, #40	; 0x28
    5800:	5f3e2d29 	svcpl	0x003e2d29
    5804:	6373696d 	cmnvs	r3, #1785856	; 0x1b4000
    5808:	6d5f3e2d 	ldclvs	14, cr3, [pc, #-180]	; 575c <_Min_Stack_Size+0x535c>
    580c:	6e656c62 	cdpvs	12, 6, cr6, cr5, cr2, {3}
    5810:	6174735f 	cmnvs	r4, pc, asr r3
    5814:	00296574 	eoreq	r6, r9, r4, ror r5
    5818:	49555f5f 	ldmdbmi	r5, {r0, r1, r2, r3, r4, r6, r8, r9, sl, fp, ip, lr}^
    581c:	3436544e 	ldrtcc	r5, [r6], #-1102	; 0xfffffbb2
    5820:	5059545f 	subspl	r5, r9, pc, asr r4
    5824:	205f5f45 	subscs	r5, pc, r5, asr #30
    5828:	676e6f6c 	strbvs	r6, [lr, -ip, ror #30]!
    582c:	6e6f6c20 	cdpvs	12, 6, cr6, cr15, cr0, {1}
    5830:	6e752067 	cdpvs	0, 7, cr2, cr5, cr7, {3}
    5834:	6e676973 			; <UNDEFINED> instruction: 0x6e676973
    5838:	69206465 	stmdbvs	r0!, {r0, r2, r5, r6, sl, sp, lr}
    583c:	5f00746e 	svcpl	0x0000746e
    5840:	544e495f 	strbpl	r4, [lr], #-2399	; 0xfffff6a1
    5844:	435f3436 	cmpmi	pc, #905969664	; 0x36000000
    5848:	20296328 	eorcs	r6, r9, r8, lsr #6
    584c:	23232063 			; <UNDEFINED> instruction: 0x23232063
    5850:	004c4c20 	subeq	r4, ip, r0, lsr #24
    5854:	4e475f5f 	mcrmi	15, 2, r5, cr7, cr15, {2}
    5858:	494c4355 	stmdbmi	ip, {r0, r2, r4, r6, r8, r9, lr}^
    585c:	435f454b 	cmpmi	pc, #314572800	; 0x12c00000
    5860:	5f524f54 	svcpl	0x00524f54
    5864:	54434553 	strbpl	r4, [r3], #-1363	; 0xfffffaad
    5868:	5f4e4f49 	svcpl	0x004e4f49
    586c:	444e4148 	strbmi	r4, [lr], #-328	; 0xfffffeb8
    5870:	474e494c 	strbmi	r4, [lr, -ip, asr #18]
    5874:	5f003120 	svcpl	0x00003120
    5878:	636f6c5f 	cmnvs	pc, #24320	; 0x5f00
    587c:	6c62616b 	stfvse	f6, [r2], #-428	; 0xfffffe54
    5880:	5f5f2065 	svcpl	0x005f2065
    5884:	6b636f6c 	blvs	18e163c <_Min_Stack_Size+0x18e123c>
    5888:	6e6e615f 	mcrvs	1, 3, r6, cr14, cr15, {2}
    588c:	7461746f 	strbtvc	r7, [r1], #-1135	; 0xfffffb91
    5890:	6f6c2865 	svcvs	0x006c2865
    5894:	62616b63 	rsbvs	r6, r1, #101376	; 0x18c00
    5898:	0029656c 	eoreq	r6, r9, ip, ror #10
    589c:	4545525f 	strbmi	r5, [r5, #-607]	; 0xfffffda1
    58a0:	495f544e 	ldmdbmi	pc, {r1, r2, r3, r6, sl, ip, lr}^	; <UNPREDICTABLE>
    58a4:	5f54494e 	svcpl	0x0054494e
    58a8:	45534552 	ldrbmi	r4, [r3, #-1362]	; 0xfffffaae
    58ac:	44455652 	strbmi	r5, [r5], #-1618	; 0xfffff9ae
    58b0:	375f365f 			; <UNDEFINED> instruction: 0x375f365f
    58b4:	5f5f0020 	svcpl	0x005f0020
    58b8:	5f444e45 	svcpl	0x00444e45
    58bc:	4c434544 	cfstr64mi	mvdx4, [r3], {68}	; 0x44
    58c0:	5f002053 	svcpl	0x00002053
    58c4:	4e4f4c5f 	mcrmi	12, 2, r4, cr15, cr15, {2}
    58c8:	414d5f47 	cmpmi	sp, r7, asr #30
    58cc:	205f5f58 	subscs	r5, pc, r8, asr pc	; <UNPREDICTABLE>
    58d0:	66377830 			; <UNDEFINED> instruction: 0x66377830
    58d4:	66666666 	strbtvs	r6, [r6], -r6, ror #12
    58d8:	004c6666 	subeq	r6, ip, r6, ror #12
    58dc:	52415f5f 	subpl	r5, r1, #380	; 0x17c
    58e0:	45465f4d 	strbmi	r5, [r6, #-3917]	; 0xfffff0b3
    58e4:	52555441 	subspl	r5, r5, #1090519040	; 0x41000000
    58e8:	44435f45 	strbmi	r5, [r3], #-3909	; 0xfffff0bb
    58ec:	5f5f0045 	svcpl	0x005f0045
    58f0:	55434341 	strbpl	r4, [r3, #-833]	; 0xfffffcbf
    58f4:	42495f4d 	submi	r5, r9, #308	; 0x134
    58f8:	5f5f5449 	svcpl	0x005f5449
    58fc:	00363120 	eorseq	r3, r6, r0, lsr #2
    5900:	69736e75 	ldmdbvs	r3!, {r0, r2, r4, r5, r6, r9, sl, fp, sp, lr}^
    5904:	64656e67 	strbtvs	r6, [r5], #-3687	; 0xfffff199
    5908:	504f4600 	subpl	r4, pc, r0, lsl #12
    590c:	4d5f4e45 	ldclmi	14, cr4, [pc, #-276]	; 5800 <_Min_Stack_Size+0x5400>
    5910:	32205841 	eorcc	r5, r0, #4259840	; 0x410000
    5914:	5f5f0030 	svcpl	0x005f0030
    5918:	675f7470 			; <UNDEFINED> instruction: 0x675f7470
    591c:	64726175 	ldrbtvs	r6, [r2], #-373	; 0xfffffe8b
    5920:	625f6465 	subsvs	r6, pc, #1694498816	; 0x65000000
    5924:	29782879 	ldmdbcs	r8!, {r0, r3, r4, r5, r6, fp, sp}^
    5928:	6c5f5f20 	mrrcvs	15, 2, r5, pc, cr0	; <UNPREDICTABLE>
    592c:	5f6b636f 	svcpl	0x006b636f
    5930:	6f6e6e61 	svcvs	0x006e6e61
    5934:	65746174 	ldrbvs	r6, [r4, #-372]!	; 0xfffffe8c
    5938:	5f747028 	svcpl	0x00747028
    593c:	72617567 	rsbvc	r7, r1, #432013312	; 0x19c00000
    5940:	5f646564 	svcpl	0x00646564
    5944:	78287962 	stmdavc	r8!, {r1, r5, r6, r8, fp, ip, sp, lr}
    5948:	5f002929 	svcpl	0x00002929
    594c:	4e454552 	mcrmi	5, 2, r4, cr5, cr2, {2}
    5950:	49535f54 	ldmdbmi	r3, {r2, r4, r6, r8, r9, sl, fp, ip, lr}^
    5954:	4c414e47 	mcrrmi	14, 4, r4, r1, cr7
    5958:	4655425f 			; <UNDEFINED> instruction: 0x4655425f
    595c:	72747028 	rsbsvc	r7, r4, #40	; 0x28
    5960:	28282029 	stmdacs	r8!, {r0, r3, r5, sp}
    5964:	29727470 	ldmdbcs	r2!, {r4, r5, r6, sl, ip, sp, lr}^
    5968:	735f3e2d 	cmpvc	pc, #720	; 0x2d0
    596c:	616e6769 	cmnvs	lr, r9, ror #14
    5970:	75625f6c 	strbvc	r5, [r2, #-3948]!	; 0xfffff094
    5974:	5f002966 	svcpl	0x00002966
    5978:	4e49555f 	mcrmi	5, 2, r5, cr9, cr15, {2}
    597c:	5f363154 	svcpl	0x00363154
    5980:	29632843 	stmdbcs	r3!, {r0, r1, r6, fp, sp}^
    5984:	5f006320 	svcpl	0x00006320
    5988:	6d79735f 	ldclvs	3, cr7, [r9, #-380]!	; 0xfffffe84
    598c:	6d6f635f 	stclvs	3, cr6, [pc, #-380]!	; 5818 <_Min_Stack_Size+0x5418>
    5990:	28746170 	ldmdacs	r4!, {r4, r5, r6, r8, sp, lr}^
    5994:	2c6d7973 			; <UNDEFINED> instruction: 0x2c6d7973
    5998:	6c706d69 	ldclvs	13, cr6, [r0], #-420	; 0xfffffe5c
    599c:	7265762c 	rsbvc	r7, r5, #44, 12	; 0x2c00000
    59a0:	20296469 	eorcs	r6, r9, r9, ror #8
    59a4:	73615f5f 	cmnvc	r1, #380	; 0x17c
    59a8:	285f5f6d 	ldmdacs	pc, {r0, r2, r3, r5, r6, r8, r9, sl, fp, ip, lr}^	; <UNPREDICTABLE>
    59ac:	79732e22 	ldmdbvc	r3!, {r1, r5, r9, sl, fp, sp}^
    59b0:	7265766d 	rsbvc	r7, r5, #114294784	; 0x6d00000
    59b4:	23202220 			; <UNDEFINED> instruction: 0x23202220
    59b8:	6c706d69 	ldclvs	13, cr6, [r0], #-420	; 0xfffffe5c
    59bc:	202c2220 	eorcs	r2, ip, r0, lsr #4
    59c0:	73232022 			; <UNDEFINED> instruction: 0x73232022
    59c4:	22206d79 	eorcs	r6, r0, #7744	; 0x1e40
    59c8:	23202240 			; <UNDEFINED> instruction: 0x23202240
    59cc:	69726576 	ldmdbvs	r2!, {r1, r2, r4, r5, r6, r8, sl, sp, lr}^
    59d0:	5f002964 	svcpl	0x00002964
    59d4:	5f43435f 	svcpl	0x0043435f
    59d8:	50505553 	subspl	r5, r0, r3, asr r5
    59dc:	5354524f 	cmppl	r4, #-268435452	; 0xf0000004
    59e0:	495f5f5f 	ldmdbmi	pc, {r0, r1, r2, r3, r4, r6, r8, r9, sl, fp, ip, lr}^	; <UNPREDICTABLE>
    59e4:	4e494c4e 	cdpmi	12, 4, cr4, cr9, cr14, {2}
    59e8:	205f5f45 	subscs	r5, pc, r5, asr #30
    59ec:	5f5f0031 	svcpl	0x005f0031
    59f0:	5f414455 	svcpl	0x00414455
    59f4:	54494249 	strbpl	r4, [r9], #-585	; 0xfffffdb7
    59f8:	33205f5f 			; <UNDEFINED> instruction: 0x33205f5f
    59fc:	5f5f0032 	svcpl	0x005f0032
    5a00:	6e697270 	mcrvs	2, 3, r7, cr9, cr0, {3}
    5a04:	696c6674 	stmdbvs	ip!, {r2, r4, r5, r6, r9, sl, sp, lr}^
    5a08:	6628656b 	strtvs	r6, [r8], -fp, ror #10
    5a0c:	7261746d 	rsbvc	r7, r1, #1828716544	; 0x6d000000
    5a10:	69662c67 	stmdbvs	r6!, {r0, r1, r2, r5, r6, sl, fp, sp}^
    5a14:	76747372 			; <UNDEFINED> instruction: 0x76747372
    5a18:	72617261 	rsbvc	r7, r1, #268435462	; 0x10000006
    5a1c:	5f202967 	svcpl	0x00202967
    5a20:	7474615f 	ldrbtvc	r6, [r4], #-351	; 0xfffffea1
    5a24:	75626972 	strbvc	r6, [r2, #-2418]!	; 0xfffff68e
    5a28:	5f5f6574 	svcpl	0x005f6574
    5a2c:	5f5f2828 	svcpl	0x005f2828
    5a30:	6d726f66 	ldclvs	15, cr6, [r2, #-408]!	; 0xfffffe68
    5a34:	5f5f7461 	svcpl	0x005f7461
    5a38:	5f5f2820 	svcpl	0x005f2820
    5a3c:	6e697270 	mcrvs	2, 3, r7, cr9, cr0, {3}
    5a40:	5f5f6674 	svcpl	0x005f6674
    5a44:	6d66202c 	stclvs	0, cr2, [r6, #-176]!	; 0xffffff50
    5a48:	67726174 			; <UNDEFINED> instruction: 0x67726174
    5a4c:	6966202c 	stmdbvs	r6!, {r2, r3, r5, sp}^
    5a50:	76747372 			; <UNDEFINED> instruction: 0x76747372
    5a54:	72617261 	rsbvc	r7, r1, #268435462	; 0x10000006
    5a58:	29292967 	stmdbcs	r9!, {r0, r1, r2, r5, r6, r8, fp, sp}
    5a5c:	4e5f5f00 	cdpmi	15, 5, cr5, cr15, cr0, {0}
    5a60:	4e495f4f 	cdpmi	15, 4, cr5, cr9, cr15, {2}
    5a64:	454e494c 	strbmi	r4, [lr, #-2380]	; 0xfffff6b4
    5a68:	31205f5f 			; <UNDEFINED> instruction: 0x31205f5f
    5a6c:	665f5f00 	ldrbvs	r5, [pc], -r0, lsl #30
    5a70:	63747361 	cmnvs	r4, #-2080374783	; 0x84000001
    5a74:	206c6c61 	rsbcs	r6, ip, r1, ror #24
    5a78:	74615f5f 	strbtvc	r5, [r1], #-3935	; 0xfffff0a1
    5a7c:	62697274 	rsbvs	r7, r9, #116, 4	; 0x40000007
    5a80:	5f657475 	svcpl	0x00657475
    5a84:	5f28285f 	svcpl	0x0028285f
    5a88:	7361665f 	cmnvc	r1, #99614720	; 0x5f00000
    5a8c:	6c616374 	stclvs	3, cr6, [r1], #-464	; 0xfffffe30
    5a90:	295f5f6c 	ldmdbcs	pc, {r2, r3, r5, r6, r8, r9, sl, fp, ip, lr}^	; <UNPREDICTABLE>
    5a94:	5f5f0029 	svcpl	0x005f0029
    5a98:	6b636f6c 	blvs	18e1850 <_Min_Stack_Size+0x18e1450>
    5a9c:	6e6e615f 	mcrvs	1, 3, r6, cr14, cr15, {2}
    5aa0:	7461746f 	strbtvc	r7, [r1], #-1135	; 0xfffffb91
    5aa4:	29782865 	ldmdbcs	r8!, {r0, r2, r5, r6, fp, sp}^
    5aa8:	4c5f0020 	mrrcmi	0, 2, r0, pc, cr0	; <UNPREDICTABLE>
    5aac:	5f455449 	svcpl	0x00455449
    5ab0:	54495845 	strbpl	r5, [r9], #-2117	; 0xfffff7bb
    5ab4:	5f003120 	svcpl	0x00003120
    5ab8:	4f54415f 	svcmi	0x0054415f
    5abc:	5f43494d 	svcpl	0x0043494d
    5ac0:	414c4552 	cmpmi	ip, r2, asr r5
    5ac4:	20444558 	subcs	r4, r4, r8, asr r5
    5ac8:	415f0030 	cmpmi	pc, r0, lsr r0	; <UNPREDICTABLE>
    5acc:	49525454 	ldmdbmi	r2, {r2, r4, r6, sl, ip, lr}^
    5ad0:	45545542 	ldrbmi	r5, [r4, #-1346]	; 0xfffffabe
    5ad4:	74746128 	ldrbtvc	r6, [r4], #-296	; 0xfffffed8
    5ad8:	20297372 	eorcs	r7, r9, r2, ror r3
    5adc:	74615f5f 	strbtvc	r5, [r1], #-3935	; 0xfffff0a1
    5ae0:	62697274 	rsbvs	r7, r9, #116, 4	; 0x40000007
    5ae4:	5f657475 	svcpl	0x00657475
    5ae8:	6128205f 	qsubvs	r2, pc, r8	; <UNPREDICTABLE>
    5aec:	73727474 	cmnvc	r2, #116, 8	; 0x74000000
    5af0:	5f5f0029 	svcpl	0x005f0029
    5af4:	5f4d5241 	svcpl	0x004d5241
    5af8:	54414546 	strbpl	r4, [r1], #-1350	; 0xfffffaba
    5afc:	5f455255 	svcpl	0x00455255
    5b00:	52504f43 	subspl	r4, r0, #268	; 0x10c
    5b04:	5f00434f 	svcpl	0x0000434f
    5b08:	5454415f 	ldrbpl	r4, [r4], #-351	; 0xfffffea1
    5b0c:	55424952 	strbpl	r4, [r2, #-2386]	; 0xfffff6ae
    5b10:	495f4554 	ldmdbmi	pc, {r2, r4, r6, r8, sl, lr}^	; <UNPREDICTABLE>
    5b14:	5255504d 	subspl	r5, r5, #77	; 0x4d
    5b18:	54505f45 	ldrbpl	r5, [r0], #-3909	; 0xfffff0bb
    5b1c:	205f5f52 	subscs	r5, pc, r2, asr pc	; <UNPREDICTABLE>
    5b20:	445f5f00 	ldrbmi	r5, [pc], #-3840	; 5b28 <_Min_Stack_Size+0x5728>
    5b24:	485f4c42 	ldmdami	pc, {r1, r6, sl, fp, lr}^	; <UNPREDICTABLE>
    5b28:	495f5341 	ldmdbmi	pc, {r0, r6, r8, r9, ip, lr}^	; <UNPREDICTABLE>
    5b2c:	4e49464e 	cdpmi	6, 4, cr4, cr9, cr14, {2}
    5b30:	5f595449 	svcpl	0x00595449
    5b34:	0031205f 	eorseq	r2, r1, pc, asr r0
    5b38:	49535f5f 	ldmdbmi	r3, {r0, r1, r2, r3, r4, r6, r8, r9, sl, fp, ip, lr}^
    5b3c:	54415f47 	strbpl	r5, [r1], #-3911	; 0xfffff0b9
    5b40:	43494d4f 	movtmi	r4, #40271	; 0x9d4f
    5b44:	58414d5f 	stmdapl	r1, {r0, r1, r2, r3, r4, r6, r8, sl, fp, lr}^
    5b48:	30205f5f 	eorcc	r5, r0, pc, asr pc
    5b4c:	66663778 			; <UNDEFINED> instruction: 0x66663778
    5b50:	66666666 	strbtvs	r6, [r6], -r6, ror #12
    5b54:	5f5f0066 	svcpl	0x005f0066
    5b58:	36544c46 	ldrbcc	r4, [r4], -r6, asr #24
    5b5c:	414d5f34 	cmpmi	sp, r4, lsr pc
    5b60:	445f544e 	ldrbmi	r5, [pc], #-1102	; 5b68 <_Min_Stack_Size+0x5768>
    5b64:	5f5f4749 	svcpl	0x005f4749
    5b68:	00333520 	eorseq	r3, r3, r0, lsr #10
    5b6c:	4545525f 	strbmi	r5, [r5, #-607]	; 0xfffffda1
    5b70:	435f544e 	cmpmi	pc, #1308622848	; 0x4e000000
    5b74:	4b434548 	blmi	10d709c <_Min_Stack_Size+0x10d6c9c>
    5b78:	4e41525f 	mcrmi	2, 2, r5, cr1, cr15, {2}
    5b7c:	28383444 	ldmdacs	r8!, {r2, r6, sl, ip, sp}
    5b80:	29726176 	ldmdbcs	r2!, {r1, r2, r4, r5, r6, r8, sp, lr}^
    5b84:	45525f20 	ldrbmi	r5, [r2, #-3872]	; 0xfffff0e0
    5b88:	5f544e45 	svcpl	0x00544e45
    5b8c:	43454843 	movtmi	r4, #22595	; 0x5843
    5b90:	6176284b 	cmnvs	r6, fp, asr #16
    5b94:	5f202c72 	svcpl	0x00202c72
    5b98:	2c383472 	cfldrscs	mvf3, [r8], #-456	; 0xfffffe38
    5b9c:	72747320 	rsbsvc	r7, r4, #32, 6	; 0x80000000
    5ba0:	20746375 	rsbscs	r6, r4, r5, ror r3
    5ba4:	6e61725f 	mcrvs	2, 3, r7, cr1, cr15, {2}
    5ba8:	20383464 	eorscs	r3, r8, r4, ror #8
    5bac:	73202c2a 			; <UNDEFINED> instruction: 0x73202c2a
    5bb0:	6f657a69 	svcvs	0x00657a69
    5bb4:	282a2066 	stmdacs	sl!, {r1, r2, r5, r6, sp}
    5bb8:	72617628 	rsbvc	r7, r1, #40, 12	; 0x2800000
    5bbc:	5f3e2d29 	svcpl	0x003e2d29
    5bc0:	29383472 	ldmdbcs	r8!, {r1, r4, r5, r6, sl, ip, sp}
    5bc4:	525f202c 	subspl	r2, pc, #44	; 0x2c
    5bc8:	544e4545 	strbpl	r4, [lr], #-1349	; 0xfffffabb
    5bcc:	494e495f 	stmdbmi	lr, {r0, r1, r2, r3, r4, r6, r8, fp, lr}^
    5bd0:	41525f54 	cmpmi	r2, r4, asr pc
    5bd4:	3834444e 	ldmdacc	r4!, {r1, r2, r3, r6, sl, lr}
    5bd8:	61762828 	cmnvs	r6, r8, lsr #16
    5bdc:	29292972 	stmdbcs	r9!, {r1, r4, r5, r6, r8, fp, sp}
    5be0:	45525f00 	ldrbmi	r5, [r2, #-3840]	; 0xfffff100
    5be4:	47524154 			; <UNDEFINED> instruction: 0x47524154
    5be8:	42415445 	submi	r5, r1, #1157627904	; 0x45000000
    5bec:	4c5f454c 	cfldr64mi	mvdx4, [pc], {76}	; 0x4c
    5bf0:	494b434f 	stmdbmi	fp, {r0, r1, r2, r3, r6, r8, r9, lr}^
    5bf4:	3120474e 			; <UNDEFINED> instruction: 0x3120474e
    5bf8:	725f5f00 	subsvc	r5, pc, #0, 30
    5bfc:	65676e61 	strbvs	r6, [r7, #-3681]!	; 0xfffff19f
    5c00:	7428666f 	strtvc	r6, [r8], #-1647	; 0xfffff991
    5c04:	2c657079 	stclcs	0, cr7, [r5], #-484	; 0xfffffe1c
    5c08:	72617473 	rsbvc	r7, r1, #1929379840	; 0x73000000
    5c0c:	6e652c74 	mcrvs	12, 3, r2, cr5, cr4, {3}
    5c10:	28202964 	stmdacs	r0!, {r2, r5, r6, r8, fp, sp}
    5c14:	666f5f5f 	uqsaxvs	r5, pc, pc	; <UNPREDICTABLE>
    5c18:	74657366 	strbtvc	r7, [r5], #-870	; 0xfffffc9a
    5c1c:	7428666f 	strtvc	r6, [r8], #-1647	; 0xfffff991
    5c20:	2c657079 	stclcs	0, cr7, [r5], #-484	; 0xfffffe1c
    5c24:	646e6520 	strbtvs	r6, [lr], #-1312	; 0xfffffae0
    5c28:	202d2029 	eorcs	r2, sp, r9, lsr #32
    5c2c:	666f5f5f 	uqsaxvs	r5, pc, pc	; <UNPREDICTABLE>
    5c30:	74657366 	strbtvc	r7, [r5], #-870	; 0xfffffc9a
    5c34:	7428666f 	strtvc	r6, [r8], #-1647	; 0xfffff991
    5c38:	2c657079 	stclcs	0, cr7, [r5], #-484	; 0xfffffe1c
    5c3c:	61747320 	cmnvs	r4, r0, lsr #6
    5c40:	29297472 	stmdbcs	r9!, {r1, r4, r5, r6, sl, ip, sp, lr}
    5c44:	555f5f00 	ldrbpl	r5, [pc, #-3840]	; 4d4c <_Min_Stack_Size+0x494c>
    5c48:	5f534553 	svcpl	0x00534553
    5c4c:	54494e49 	strbpl	r4, [r9], #-3657	; 0xfffff1b7
    5c50:	494e4946 	stmdbmi	lr, {r1, r2, r6, r8, fp, lr}^
    5c54:	31205f5f 			; <UNDEFINED> instruction: 0x31205f5f
    5c58:	6e5f5f00 	cdpvs	15, 5, cr5, cr15, cr0, {0}
    5c5c:	5f646565 	svcpl	0x00646565
    5c60:	64727470 	ldrbtvs	r7, [r2], #-1136	; 0xfffffb90
    5c64:	5f666669 	svcpl	0x00666669
    5c68:	5f5f0074 	svcpl	0x005f0074
    5c6c:	5f4c4244 	svcpl	0x004c4244
    5c70:	49434544 	stmdbmi	r3, {r2, r6, r8, sl, lr}^
    5c74:	5f4c414d 	svcpl	0x004c414d
    5c78:	5f474944 	svcpl	0x00474944
    5c7c:	3731205f 			; <UNDEFINED> instruction: 0x3731205f
    5c80:	685f5f00 	ldmdavs	pc, {r8, r9, sl, fp, ip, lr}^	; <UNPREDICTABLE>
    5c84:	5f657661 	svcpl	0x00657661
    5c88:	676e6f6c 	strbvs	r6, [lr, -ip, ror #30]!
    5c8c:	31203233 			; <UNDEFINED> instruction: 0x31203233
    5c90:	735f5f00 	cmpvc	pc, #0, 30
    5c94:	72726566 	rsbsvc	r6, r2, #427819008	; 0x19800000
    5c98:	7028726f 	eorvc	r7, r8, pc, ror #4
    5c9c:	28282029 	stmdacs	r8!, {r0, r3, r5, sp}
    5ca0:	29746e69 	ldmdbcs	r4!, {r0, r3, r5, r6, r9, sl, fp, sp, lr}^
    5ca4:	70282828 	eorvc	r2, r8, r8, lsr #16
    5ca8:	5f3e2d29 	svcpl	0x003e2d29
    5cac:	67616c66 	strbvs	r6, [r1, -r6, ror #24]!
    5cb0:	20262073 	eorcs	r2, r6, r3, ror r0
    5cb4:	45535f5f 	ldrbmi	r5, [r3, #-3935]	; 0xfffff0a1
    5cb8:	20295252 	eorcs	r5, r9, r2, asr r2
    5cbc:	30203d21 	eorcc	r3, r0, r1, lsr #26
    5cc0:	5f002929 	svcpl	0x00002929
    5cc4:	4c4c554e 	cfstr64mi	mvdx5, [ip], {78}	; 0x4e
    5cc8:	5f003020 	svcpl	0x00003020
    5ccc:	656c665f 	strbvs	r6, [ip, #-1631]!	; 0xfffff9a1
    5cd0:	72726178 	rsbsvc	r6, r2, #120, 2
    5cd4:	5d305b20 	vldmdbpl	r0!, {d5-d20}
    5cd8:	495f5f00 	ldmdbmi	pc, {r8, r9, sl, fp, ip, lr}^	; <UNPREDICTABLE>
    5cdc:	3631544e 	ldrtcc	r5, [r1], -lr, asr #8
    5ce0:	58414d5f 	stmdapl	r1, {r0, r1, r2, r3, r4, r6, r8, sl, fp, lr}^
    5ce4:	30205f5f 	eorcc	r5, r0, pc, asr pc
    5ce8:	66663778 			; <UNDEFINED> instruction: 0x66663778
    5cec:	5f5f0066 	svcpl	0x005f0066
    5cf0:	5f535953 	svcpl	0x00535953
    5cf4:	464e4f43 	strbmi	r4, [lr], -r3, asr #30
    5cf8:	485f4749 	ldmdami	pc, {r0, r3, r6, r8, r9, sl, lr}^	; <UNPREDICTABLE>
    5cfc:	00205f5f 	eoreq	r5, r0, pc, asr pc
    5d00:	43475f5f 	movtmi	r5, #32607	; 0x7f5f
    5d04:	54415f43 	strbpl	r5, [r1], #-3907	; 0xfffff0bd
    5d08:	43494d4f 	movtmi	r4, #40271	; 0x9d4f
    5d0c:	4148435f 	cmpmi	r8, pc, asr r3
    5d10:	4f4c5f52 	svcmi	0x004c5f52
    5d14:	465f4b43 	ldrbmi	r4, [pc], -r3, asr #22
    5d18:	20454552 	subcs	r4, r5, r2, asr r5
    5d1c:	5f5f0032 	svcpl	0x005f0032
    5d20:	4f564544 	svcmi	0x00564544
    5d24:	4954414c 	ldmdbmi	r4, {r2, r3, r6, r8, lr}^
    5d28:	7428454c 	strtvc	r4, [r8], #-1356	; 0xfffffab4
    5d2c:	2c657079 	stclcs	0, cr7, [r5], #-484	; 0xfffffe1c
    5d30:	29726176 	ldmdbcs	r2!, {r1, r2, r4, r5, r6, r8, sp, lr}^
    5d34:	74282820 	strtvc	r2, [r8], #-2080	; 0xfffff7e0
    5d38:	29657079 	stmdbcs	r5!, {r0, r3, r4, r5, r6, ip, sp, lr}^
    5d3c:	755f5f28 	ldrbvc	r5, [pc, #-3880]	; 4e1c <_Min_Stack_Size+0x4a1c>
    5d40:	70746e69 	rsbsvc	r6, r4, r9, ror #28
    5d44:	745f7274 	ldrbvc	r7, [pc], #-628	; 5d4c <_Min_Stack_Size+0x594c>
    5d48:	6f762829 	svcvs	0x00762829
    5d4c:	6974616c 	ldmdbvs	r4!, {r2, r3, r5, r6, r8, sp, lr}^
    5d50:	7620656c 	strtvc	r6, [r0], -ip, ror #10
    5d54:	2064696f 	rsbcs	r6, r4, pc, ror #18
    5d58:	7628292a 	strtvc	r2, [r8], -sl, lsr #18
    5d5c:	29297261 	stmdbcs	r9!, {r0, r5, r6, r9, ip, sp, lr}
    5d60:	575f5f00 	ldrbpl	r5, [pc, -r0, lsl #30]
    5d64:	52414843 	subpl	r4, r1, #4390912	; 0x430000
    5d68:	5f5f545f 	svcpl	0x005f545f
    5d6c:	5f5f0020 	svcpl	0x005f0020
    5d70:	5f505353 	svcpl	0x00505353
    5d74:	54524f46 	ldrbpl	r4, [r2], #-3910	; 0xfffff0ba
    5d78:	5f594649 	svcpl	0x00594649
    5d7c:	4556454c 	ldrbmi	r4, [r6, #-1356]	; 0xfffffab4
    5d80:	0030204c 	eorseq	r2, r0, ip, asr #32
    5d84:	52415f5f 	subpl	r5, r1, #380	; 0x17c
    5d88:	45465f4d 	strbmi	r5, [r6, #-3917]	; 0xfffff0b3
    5d8c:	52555441 	subspl	r5, r5, #1090519040	; 0x41000000
    5d90:	49535f45 	ldmdbmi	r3, {r0, r2, r6, r8, r9, sl, fp, ip, lr}^
    5d94:	3233444d 	eorscc	r4, r3, #1291845632	; 0x4d000000
    5d98:	5f003120 	svcpl	0x00003120
    5d9c:	4953585f 	ldmdbmi	r3, {r0, r1, r2, r3, r4, r6, fp, ip, lr}^
    5da0:	5349565f 	movtpl	r5, #38495	; 0x965f
    5da4:	454c4249 	strbmi	r4, [ip, #-585]	; 0xfffffdb7
    5da8:	5f003020 	svcpl	0x00003020
    5dac:	4e454552 	mcrmi	5, 2, r4, cr5, cr2, {2}
    5db0:	53495f54 	movtpl	r5, #40788	; 0x9f54
    5db4:	4c554e5f 	mrrcmi	14, 5, r4, r5, cr15
    5db8:	705f284c 	subsvc	r2, pc, ip, asr #16
    5dbc:	20297274 	eorcs	r7, r9, r4, ror r2
    5dc0:	705f2828 	subsvc	r2, pc, r8, lsr #16
    5dc4:	20297274 	eorcs	r7, r9, r4, ror r2
    5dc8:	4e203d3d 	mcrmi	13, 1, r3, cr0, cr13, {1}
    5dcc:	294c4c55 	stmdbcs	ip, {r0, r2, r4, r6, sl, fp, lr}^
    5dd0:	735f5f00 	cmpvc	pc, #0, 30
    5dd4:	6d667274 	sfmvs	f7, 2, [r6, #-464]!	; 0xfffffe30
    5dd8:	696c6e6f 	stmdbvs	ip!, {r0, r1, r2, r3, r5, r6, r9, sl, fp, sp, lr}^
    5ddc:	6628656b 	strtvs	r6, [r8], -fp, ror #10
    5de0:	7261746d 	rsbvc	r7, r1, #1828716544	; 0x6d000000
    5de4:	69662c67 	stmdbvs	r6!, {r0, r1, r2, r5, r6, sl, fp, sp}^
    5de8:	76747372 			; <UNDEFINED> instruction: 0x76747372
    5dec:	72617261 	rsbvc	r7, r1, #268435462	; 0x10000006
    5df0:	5f202967 	svcpl	0x00202967
    5df4:	7474615f 	ldrbtvc	r6, [r4], #-351	; 0xfffffea1
    5df8:	75626972 	strbvc	r6, [r2, #-2418]!	; 0xfffff68e
    5dfc:	5f5f6574 	svcpl	0x005f6574
    5e00:	5f5f2828 	svcpl	0x005f2828
    5e04:	6d726f66 	ldclvs	15, cr6, [r2, #-408]!	; 0xfffffe68
    5e08:	5f5f7461 	svcpl	0x005f7461
    5e0c:	5f5f2820 	svcpl	0x005f2820
    5e10:	66727473 			; <UNDEFINED> instruction: 0x66727473
    5e14:	5f6e6f6d 	svcpl	0x006e6f6d
    5e18:	66202c5f 			; <UNDEFINED> instruction: 0x66202c5f
    5e1c:	7261746d 	rsbvc	r7, r1, #1828716544	; 0x6d000000
    5e20:	66202c67 	strtvs	r2, [r0], -r7, ror #24
    5e24:	74737269 	ldrbtvc	r7, [r3], #-617	; 0xfffffd97
    5e28:	61726176 	cmnvs	r2, r6, ror r1
    5e2c:	29296772 	stmdbcs	r9!, {r1, r4, r5, r6, r8, r9, sl, sp, lr}
    5e30:	525f0029 	subspl	r0, pc, #41	; 0x29
    5e34:	544e4545 	strbpl	r4, [lr], #-1349	; 0xfffffabb
    5e38:	494e495f 	stmdbmi	lr, {r0, r1, r2, r3, r4, r6, r8, fp, lr}^
    5e3c:	45525f54 	ldrbmi	r5, [r2, #-3924]	; 0xfffff0ac
    5e40:	56524553 			; <UNDEFINED> instruction: 0x56524553
    5e44:	325f4445 	subscc	r4, pc, #1157627904	; 0x45000000
    5e48:	5f5f0020 	svcpl	0x005f0020
    5e4c:	5f474953 	svcpl	0x00474953
    5e50:	4d4f5441 	cfstrdmi	mvd5, [pc, #-260]	; 5d54 <_Min_Stack_Size+0x5954>
    5e54:	575f4349 	ldrbpl	r4, [pc, -r9, asr #6]
    5e58:	48544449 	ldmdami	r4, {r0, r3, r6, sl, lr}^
    5e5c:	33205f5f 			; <UNDEFINED> instruction: 0x33205f5f
    5e60:	5f5f0032 	svcpl	0x005f0032
    5e64:	36544c46 	ldrbcc	r4, [r4], -r6, asr #24
    5e68:	50455f34 	subpl	r5, r5, r4, lsr pc
    5e6c:	4f4c4953 	svcmi	0x004c4953
    5e70:	205f5f4e 	subscs	r5, pc, lr, asr #30
    5e74:	32322e32 	eorscc	r2, r2, #800	; 0x320
    5e78:	36343430 			; <UNDEFINED> instruction: 0x36343430
    5e7c:	32393430 	eorscc	r3, r9, #48, 8	; 0x30000000
    5e80:	31333035 	teqcc	r3, r5, lsr r0
    5e84:	2d653133 	stfcse	f3, [r5, #-204]!	; 0xffffff34
    5e88:	36463631 			; <UNDEFINED> instruction: 0x36463631
    5e8c:	4c5f0034 	mrrcmi	0, 3, r0, pc, cr4	; <UNPREDICTABLE>
    5e90:	5f4b434f 	svcpl	0x004b434f
    5e94:	55434552 	strbpl	r4, [r3, #-1362]	; 0xfffffaae
    5e98:	56495352 			; <UNDEFINED> instruction: 0x56495352
    5e9c:	20545f45 	subscs	r5, r4, r5, asr #30
    5ea0:	434f4c5f 	movtmi	r4, #64607	; 0xfc5f
    5ea4:	00545f4b 	subseq	r5, r4, fp, asr #30
    5ea8:	4e475f5f 	mcrmi	15, 2, r5, cr7, cr15, {2}
    5eac:	505f4355 	subspl	r4, pc, r5, asr r3	; <UNPREDICTABLE>
    5eb0:	45524552 	ldrbmi	r4, [r2, #-1362]	; 0xfffffaae
    5eb4:	285f5f51 	ldmdacs	pc, {r0, r4, r6, r8, r9, sl, fp, ip, lr}^	; <UNPREDICTABLE>
    5eb8:	6d2c616d 	stfvss	f6, [ip, #-436]!	; 0xfffffe4c
    5ebc:	5f202969 	svcpl	0x00202969
    5ec0:	554e475f 	strbpl	r4, [lr, #-1887]	; 0xfffff8a1
    5ec4:	52505f43 	subspl	r5, r0, #268	; 0x10c
    5ec8:	51455245 	cmppl	r5, r5, asr #4
    5ecc:	2c616d28 	stclcs	13, cr6, [r1], #-160	; 0xffffff60
    5ed0:	29696d20 	stmdbcs	r9!, {r5, r8, sl, fp, sp, lr}^
    5ed4:	445f5f00 	ldrbmi	r5, [pc], #-3840	; 5edc <_Min_Stack_Size+0x5adc>
    5ed8:	4e494645 	cdpmi	6, 4, cr4, cr9, cr5, {2}
    5edc:	775f4445 	ldrbvc	r4, [pc, -r5, asr #8]
    5ee0:	72616863 	rsbvc	r6, r1, #6488064	; 0x630000
    5ee4:	0020745f 	eoreq	r7, r0, pc, asr r4
    5ee8:	54555f5f 	ldrbpl	r5, [r5], #-3935	; 0xfffff0a1
    5eec:	42495f41 	submi	r5, r9, #260	; 0x104
    5ef0:	5f5f5449 	svcpl	0x005f5449
    5ef4:	00343620 	eorseq	r3, r4, r0, lsr #12
    5ef8:	4c555f5f 	mrrcmi	15, 5, r5, r5, cr15	; <UNPREDICTABLE>
    5efc:	4343414c 	movtmi	r4, #12620	; 0x314c
    5f00:	495f4d55 	ldmdbmi	pc, {r0, r2, r4, r6, r8, sl, fp, lr}^	; <UNPREDICTABLE>
    5f04:	5f544942 	svcpl	0x00544942
    5f08:	3233205f 	eorscc	r2, r3, #95	; 0x5f
    5f0c:	415f5f00 	cmpmi	pc, r0, lsl #30
    5f10:	465f4d52 			; <UNDEFINED> instruction: 0x465f4d52
    5f14:	55544145 	ldrbpl	r4, [r4, #-325]	; 0xfffffebb
    5f18:	435f4552 	cmpmi	pc, #343932928	; 0x14800000
    5f1c:	32334352 	eorscc	r4, r3, #1207959553	; 0x48000001
    5f20:	735f5f00 	cmpvc	pc, #0, 30
    5f24:	6e6f7274 	mcrvs	2, 3, r7, cr15, cr4, {3}
    5f28:	65725f67 	ldrbvs	r5, [r2, #-3943]!	; 0xfffff099
    5f2c:	65726566 	ldrbvs	r6, [r2, #-1382]!	; 0xfffffa9a
    5f30:	2865636e 	stmdacs	r5!, {r1, r2, r3, r5, r6, r8, r9, sp, lr}^
    5f34:	2c6d7973 			; <UNDEFINED> instruction: 0x2c6d7973
    5f38:	61696c61 	cmnvs	r9, r1, ror #24
    5f3c:	6d797373 	ldclvs	3, cr7, [r9, #-460]!	; 0xfffffe34
    5f40:	78652029 	stmdavc	r5!, {r0, r3, r5, sp}^
    5f44:	6e726574 	mrcvs	5, 3, r6, cr2, cr4, {3}
    5f48:	745f5f20 	ldrbvc	r5, [pc], #-3872	; 5f50 <_Min_Stack_Size+0x5b50>
    5f4c:	6f657079 	svcvs	0x00657079
    5f50:	73282066 			; <UNDEFINED> instruction: 0x73282066
    5f54:	20296d79 	eorcs	r6, r9, r9, ror sp
    5f58:	61696c61 	cmnvs	r9, r1, ror #24
    5f5c:	6d797373 	ldclvs	3, cr7, [r9, #-460]!	; 0xfffffe34
    5f60:	615f5f20 	cmpvs	pc, r0, lsr #30
    5f64:	69727474 	ldmdbvs	r2!, {r2, r4, r5, r6, sl, ip, sp, lr}^
    5f68:	65747562 	ldrbvs	r7, [r4, #-1378]!	; 0xfffffa9e
    5f6c:	28205f5f 	stmdacs	r0!, {r0, r1, r2, r3, r4, r6, r8, r9, sl, fp, ip, lr}
    5f70:	615f5f28 	cmpvs	pc, r8, lsr #30
    5f74:	7361696c 	cmnvc	r1, #108, 18	; 0x1b0000
    5f78:	28205f5f 	stmdacs	r0!, {r0, r1, r2, r3, r4, r6, r8, r9, sl, fp, ip, lr}
    5f7c:	6d797323 	ldclvs	3, cr7, [r9, #-140]!	; 0xffffff74
    5f80:	00292929 	eoreq	r2, r9, r9, lsr #18
    5f84:	4c555f5f 	mrrcmi	15, 5, r5, r5, cr15	; <UNPREDICTABLE>
    5f88:	4152464c 	cmpmi	r2, ip, asr #12
    5f8c:	455f5443 	ldrbmi	r5, [pc, #-1091]	; 5b51 <_Min_Stack_Size+0x5751>
    5f90:	4c495350 	mcrrmi	3, 5, r5, r9, cr0
    5f94:	5f5f4e4f 	svcpl	0x005f4e4f
    5f98:	31783020 	cmncc	r8, r0, lsr #32
    5f9c:	34362d50 	ldrtcc	r2, [r6], #-3408	; 0xfffff2b0
    5fa0:	524c4c55 	subpl	r4, ip, #21760	; 0x5500
    5fa4:	755f5f00 	ldrbvc	r5, [pc, #-3840]	; 50ac <_Min_Stack_Size+0x4cac>
    5fa8:	6165726e 	cmnvs	r5, lr, ror #4
    5fac:	62616863 	rsbvs	r6, r1, #6488064	; 0x630000
    5fb0:	2928656c 	stmdbcs	r8!, {r2, r3, r5, r6, r8, sl, sp, lr}
    5fb4:	625f5f20 	subsvs	r5, pc, #32, 30	; 0x80
    5fb8:	746c6975 	strbtvc	r6, [ip], #-2421	; 0xfffff68b
    5fbc:	755f6e69 	ldrbvc	r6, [pc, #-3689]	; 515b <_Min_Stack_Size+0x4d5b>
    5fc0:	6165726e 	cmnvs	r5, lr, ror #4
    5fc4:	62616863 	rsbvs	r6, r1, #6488064	; 0x630000
    5fc8:	2928656c 	stmdbcs	r8!, {r2, r3, r5, r6, r8, sl, sp, lr}
    5fcc:	45525f00 	ldrbmi	r5, [r2, #-3840]	; 0xfffff100
    5fd0:	5f544e45 	svcpl	0x00544e45
    5fd4:	43454843 	movtmi	r4, #22595	; 0x5843
    5fd8:	6176284b 	cmnvs	r6, fp, asr #16
    5fdc:	68772c72 	ldmdavs	r7!, {r1, r4, r5, r6, sl, fp, sp}^
    5fe0:	742c7461 	strtvc	r7, [ip], #-1121	; 0xfffffb9f
    5fe4:	2c657079 	stclcs	0, cr7, [r5], #-484	; 0xfffffe1c
    5fe8:	657a6973 	ldrbvs	r6, [sl, #-2419]!	; 0xfffff68d
    5fec:	696e692c 	stmdbvs	lr!, {r2, r3, r5, r8, fp, sp, lr}^
    5ff0:	64202974 	strtvs	r2, [r0], #-2420	; 0xfffff68c
    5ff4:	207b206f 	rsbscs	r2, fp, pc, rrx
    5ff8:	75727473 	ldrbvc	r7, [r2, #-1139]!	; 0xfffffb8d
    5ffc:	5f207463 	svcpl	0x00207463
    6000:	6e656572 	mcrvs	5, 3, r6, cr5, cr2, {3}
    6004:	5f2a2074 	svcpl	0x002a2074
    6008:	203d2072 	eorscs	r2, sp, r2, ror r0
    600c:	72617628 	rsbvc	r7, r1, #40, 12	; 0x2800000
    6010:	69203b29 	stmdbvs	r0!, {r0, r3, r5, r8, r9, fp, ip, sp}
    6014:	5f282066 	svcpl	0x00282066
    6018:	773e2d72 			; <UNDEFINED> instruction: 0x773e2d72
    601c:	20746168 	rsbscs	r6, r4, r8, ror #2
    6020:	4e203d3d 	mcrmi	13, 1, r3, cr0, cr13, {1}
    6024:	294c4c55 	stmdbcs	ip, {r0, r2, r4, r6, sl, fp, lr}^
    6028:	5f207b20 	svcpl	0x00207b20
    602c:	773e2d72 			; <UNDEFINED> instruction: 0x773e2d72
    6030:	20746168 	rsbscs	r6, r4, r8, ror #2
    6034:	7428203d 	strtvc	r2, [r8], #-61	; 0xffffffc3
    6038:	29657079 	stmdbcs	r5!, {r0, r3, r4, r5, r6, ip, sp, lr}^
    603c:	6c6c616d 	stfvse	f6, [ip], #-436	; 0xfffffe4c
    6040:	7328636f 			; <UNDEFINED> instruction: 0x7328636f
    6044:	29657a69 	stmdbcs	r5!, {r0, r3, r5, r6, r9, fp, ip, sp, lr}^
    6048:	5f5f203b 	svcpl	0x005f203b
    604c:	6e656572 	mcrvs	5, 3, r6, cr5, cr2, {3}
    6050:	73615f74 	cmnvc	r1, #116, 30	; 0x1d0
    6054:	74726573 	ldrbtvc	r6, [r2], #-1395	; 0xfffffa8d
    6058:	2d725f28 	ldclcs	15, cr5, [r2, #-160]!	; 0xffffff60
    605c:	6168773e 	cmnvs	r8, lr, lsr r7
    6060:	203b2974 	eorscs	r2, fp, r4, ror r9
    6064:	74696e69 	strbtvc	r6, [r9], #-3689	; 0xfffff197
    6068:	207d203b 	rsbscs	r2, sp, fp, lsr r0
    606c:	6877207d 	ldmdavs	r7!, {r0, r2, r3, r4, r5, r6, sp}^
    6070:	20656c69 	rsbcs	r6, r5, r9, ror #24
    6074:	00293028 	eoreq	r3, r9, r8, lsr #32
    6078:	49535f5f 	ldmdbmi	r3, {r0, r1, r2, r3, r4, r6, r8, r9, sl, fp, ip, lr}^
    607c:	464f455a 			; <UNDEFINED> instruction: 0x464f455a
    6080:	4e49575f 	mcrmi	7, 2, r5, cr9, cr15, {2}
    6084:	5f545f54 	svcpl	0x00545f54
    6088:	0034205f 	eorseq	r2, r4, pc, asr r0
    608c:	52415f5f 	subpl	r5, r1, #380	; 0x17c
    6090:	45465f4d 	strbmi	r5, [r6, #-3917]	; 0xfffff0b3
    6094:	52555441 	subspl	r5, r5, #1090519040	; 0x41000000
    6098:	4e555f45 	cdpmi	15, 5, cr5, cr5, cr5, {2}
    609c:	47494c41 	strbmi	r4, [r9, -r1, asr #24]
    60a0:	2044454e 	subcs	r4, r4, lr, asr #10
    60a4:	5f5f0031 	svcpl	0x005f0031
    60a8:	43445453 	movtmi	r5, #17491	; 0x4453
    60ac:	31205f5f 			; <UNDEFINED> instruction: 0x31205f5f
    60b0:	6c5f5f00 	mrrcvs	15, 0, r5, pc, cr0	; <UNPREDICTABLE>
    60b4:	736b636f 	cmnvc	fp, #-1140850687	; 0xbc000001
    60b8:	6168735f 	cmnvs	r8, pc, asr r3
    60bc:	28646572 	stmdacs	r4!, {r1, r4, r5, r6, r8, sl, sp, lr}^
    60c0:	292e2e2e 	stmdbcs	lr!, {r1, r2, r3, r5, r9, sl, fp, sp}
    60c4:	6c5f5f20 	mrrcvs	15, 2, r5, pc, cr0	; <UNPREDICTABLE>
    60c8:	5f6b636f 	svcpl	0x006b636f
    60cc:	6f6e6e61 	svcvs	0x006e6e61
    60d0:	65746174 	ldrbvs	r6, [r4, #-372]!	; 0xfffffe8c
    60d4:	61687328 	cmnvs	r8, r8, lsr #6
    60d8:	5f646572 	svcpl	0x00646572
    60dc:	6b636f6c 	blvs	18e1e94 <_Min_Stack_Size+0x18e1a94>
    60e0:	6e75665f 	mrcvs	6, 3, r6, cr5, cr15, {2}
    60e4:	6f697463 	svcvs	0x00697463
    60e8:	5f5f286e 	svcpl	0x005f286e
    60ec:	415f4156 	cmpmi	pc, r6, asr r1	; <UNPREDICTABLE>
    60f0:	5f534752 	svcpl	0x00534752
    60f4:	0029295f 	eoreq	r2, r9, pc, asr r9
    60f8:	6e755f5f 	mrcvs	15, 3, r5, cr5, cr15, {2}
    60fc:	64657375 	strbtvs	r7, [r5], #-885	; 0xfffffc8b
    6100:	615f5f20 	cmpvs	pc, r0, lsr #30
    6104:	69727474 	ldmdbvs	r2!, {r2, r4, r5, r6, sl, ip, sp, lr}^
    6108:	65747562 	ldrbvs	r7, [r4, #-1378]!	; 0xfffffa9e
    610c:	28285f5f 	stmdacs	r8!, {r0, r1, r2, r3, r4, r6, r8, r9, sl, fp, ip, lr}
    6110:	6e755f5f 	mrcvs	15, 3, r5, cr5, cr15, {2}
    6114:	64657375 	strbtvs	r7, [r5], #-885	; 0xfffffc8b
    6118:	29295f5f 	stmdbcs	r9!, {r0, r1, r2, r3, r4, r6, r8, r9, sl, fp, ip, lr}
    611c:	4c5f5f00 	mrrcmi	15, 0, r5, pc, cr0	; <UNPREDICTABLE>
    6120:	55434341 	strbpl	r4, [r3, #-833]	; 0xfffffcbf
    6124:	494d5f4d 	stmdbmi	sp, {r0, r2, r3, r6, r8, r9, sl, fp, ip, lr}^
    6128:	205f5f4e 	subscs	r5, pc, lr, asr #30
    612c:	58302d28 	ldmdapl	r0!, {r3, r5, r8, sl, fp, sp}
    6130:	31335031 	teqcc	r3, r1, lsr r0
    6134:	302d4b4c 	eorcc	r4, sp, ip, asr #22
    6138:	33503158 	cmpcc	r0, #88, 2
    613c:	294b4c31 	stmdbcs	fp, {r0, r4, r5, sl, fp, lr}^
    6140:	495f5f00 	ldmdbmi	pc, {r8, r9, sl, fp, ip, lr}^	; <UNPREDICTABLE>
    6144:	465f544e 	ldrbmi	r5, [pc], -lr, asr #8
    6148:	38545341 	ldmdacc	r4, {r0, r6, r8, r9, ip, lr}^
    614c:	58414d5f 	stmdapl	r1, {r0, r1, r2, r3, r4, r6, r8, sl, fp, lr}^
    6150:	30205f5f 	eorcc	r5, r0, pc, asr pc
    6154:	66663778 			; <UNDEFINED> instruction: 0x66663778
    6158:	66666666 	strbtvs	r6, [r6], -r6, ror #12
    615c:	5f5f0066 	svcpl	0x005f0066
    6160:	33544c46 	cmpcc	r4, #17920	; 0x4600
    6164:	41485f32 	cmpmi	r8, r2, lsr pc
    6168:	45445f53 	strbmi	r5, [r4, #-3923]	; 0xfffff0ad
    616c:	4d524f4e 	ldclmi	15, cr4, [r2, #-312]	; 0xfffffec8
    6170:	31205f5f 			; <UNDEFINED> instruction: 0x31205f5f
    6174:	735f5f00 	cmpvc	pc, #0, 30
    6178:	666e6163 	strbtvs	r6, [lr], -r3, ror #2
    617c:	656b696c 	strbvs	r6, [fp, #-2412]!	; 0xfffff694
    6180:	746d6628 	strbtvc	r6, [sp], #-1576	; 0xfffff9d8
    6184:	2c677261 	sfmcs	f7, 2, [r7], #-388	; 0xfffffe7c
    6188:	73726966 	cmnvc	r2, #1671168	; 0x198000
    618c:	72617674 	rsbvc	r7, r1, #116, 12	; 0x7400000
    6190:	29677261 	stmdbcs	r7!, {r0, r5, r6, r9, ip, sp, lr}^
    6194:	615f5f20 	cmpvs	pc, r0, lsr #30
    6198:	69727474 	ldmdbvs	r2!, {r2, r4, r5, r6, sl, ip, sp, lr}^
    619c:	65747562 	ldrbvs	r7, [r4, #-1378]!	; 0xfffffa9e
    61a0:	28285f5f 	stmdacs	r8!, {r0, r1, r2, r3, r4, r6, r8, r9, sl, fp, ip, lr}
    61a4:	6f665f5f 	svcvs	0x00665f5f
    61a8:	74616d72 	strbtvc	r6, [r1], #-3442	; 0xfffff28e
    61ac:	28205f5f 	stmdacs	r0!, {r0, r1, r2, r3, r4, r6, r8, r9, sl, fp, ip, lr}
    61b0:	63735f5f 	cmnvs	r3, #380	; 0x17c
    61b4:	5f666e61 	svcpl	0x00666e61
    61b8:	66202c5f 			; <UNDEFINED> instruction: 0x66202c5f
    61bc:	7261746d 	rsbvc	r7, r1, #1828716544	; 0x6d000000
    61c0:	66202c67 	strtvs	r2, [r0], -r7, ror #24
    61c4:	74737269 	ldrbtvc	r7, [r3], #-617	; 0xfffffd97
    61c8:	61726176 	cmnvs	r2, r6, ror r1
    61cc:	29296772 	stmdbcs	r9!, {r1, r4, r5, r6, r8, r9, sl, sp, lr}
    61d0:	525f0029 	subspl	r0, pc, #41	; 0x29
    61d4:	544e4545 	strbpl	r4, [lr], #-1349	; 0xfffffabb
    61d8:	414d535f 	cmpmi	sp, pc, asr r3
    61dc:	00204c4c 	eoreq	r4, r0, ip, asr #24
    61e0:	4c555f5f 	mrrcmi	15, 5, r5, r5, cr15	; <UNPREDICTABLE>
    61e4:	4343414c 	movtmi	r4, #12620	; 0x314c
    61e8:	4d5f4d55 	ldclmi	13, cr4, [pc, #-340]	; 609c <_Min_Stack_Size+0x5c9c>
    61ec:	5f5f4e49 	svcpl	0x005f4e49
    61f0:	302e3020 	eorcc	r3, lr, r0, lsr #32
    61f4:	4b4c4c55 	blmi	1319350 <_Min_Stack_Size+0x1318f50>
    61f8:	59535f00 	ldmdbpl	r3, {r8, r9, sl, fp, ip, lr}^
    61fc:	545f5f53 	ldrbpl	r5, [pc], #-3923	; 6204 <_Min_Stack_Size+0x5e04>
    6200:	53455059 	movtpl	r5, #20569	; 0x5059
    6204:	0020485f 	eoreq	r4, r0, pc, asr r8
    6208:	4e495f5f 	mcrmi	15, 2, r5, cr9, cr15, {2}
    620c:	41465f54 	cmpmi	r6, r4, asr pc
    6210:	32335453 	eorscc	r5, r3, #1392508928	; 0x53000000
    6214:	4449575f 	strbmi	r5, [r9], #-1887	; 0xfffff8a1
    6218:	5f5f4854 	svcpl	0x005f4854
    621c:	00323320 	eorseq	r3, r2, r0, lsr #6
    6220:	5359535f 	cmppl	r9, #2080374785	; 0x7c000001
    6224:	4544435f 	strbmi	r4, [r4, #-863]	; 0xfffffca1
    6228:	485f5346 	ldmdami	pc, {r1, r2, r6, r8, r9, ip, lr}^	; <UNPREDICTABLE>
    622c:	5f00205f 	svcpl	0x0000205f
    6230:	444e4152 	strbmi	r4, [lr], #-338	; 0xfffffeae
    6234:	4d5f3834 	ldclmi	8, cr3, [pc, #-208]	; 616c <_Min_Stack_Size+0x5d6c>
    6238:	5f544c55 	svcpl	0x00544c55
    623c:	30282030 	eorcc	r2, r8, r0, lsr r0
    6240:	36366578 			; <UNDEFINED> instruction: 0x36366578
    6244:	5f002964 	svcpl	0x00002964
    6248:	4e454552 	mcrmi	5, 2, r4, cr5, cr2, {2}
    624c:	56435f54 			; <UNDEFINED> instruction: 0x56435f54
    6250:	46554254 			; <UNDEFINED> instruction: 0x46554254
    6254:	74705f28 	ldrbtvc	r5, [r0], #-3880	; 0xfffff0d8
    6258:	28202972 	stmdacs	r0!, {r1, r4, r5, r6, r8, fp, sp}
    625c:	74705f28 	ldrbtvc	r5, [r0], #-3880	; 0xfffff0d8
    6260:	3e2d2972 			; <UNDEFINED> instruction: 0x3e2d2972
    6264:	7476635f 	ldrbtvc	r6, [r6], #-863	; 0xfffffca1
    6268:	29667562 	stmdbcs	r6!, {r1, r5, r6, r8, sl, ip, sp, lr}^
    626c:	475f5f00 	ldrbmi	r5, [pc, -r0, lsl #30]
    6270:	4c43554e 	cfstr64mi	mvdx5, [r3], {78}	; 0x4e
    6274:	5f454b49 	svcpl	0x00454b49
    6278:	4c495542 	cfstr64mi	mvdx5, [r9], {66}	; 0x42
    627c:	5f4e4954 	svcpl	0x004e4954
    6280:	4c414156 	stfmie	f4, [r1], {86}	; 0x56
    6284:	20545349 	subscs	r5, r4, r9, asr #6
    6288:	5f5f0031 	svcpl	0x005f0031
    628c:	5f4d5241 	svcpl	0x004d5241
    6290:	5f4d5341 	svcpl	0x004d5341
    6294:	544e5953 	strbpl	r5, [lr], #-2387	; 0xfffff6ad
    6298:	555f5841 	ldrbpl	r5, [pc, #-2113]	; 5a5f <_Min_Stack_Size+0x565f>
    629c:	4946494e 	stmdbmi	r6, {r1, r2, r3, r6, r8, fp, lr}^
    62a0:	5f5f4445 	svcpl	0x005f4445
    62a4:	5f003120 	svcpl	0x00003120
    62a8:	4e49555f 	mcrmi	5, 2, r5, cr9, cr15, {2}
    62ac:	5f323354 	svcpl	0x00323354
    62b0:	45505954 	ldrbmi	r5, [r0, #-2388]	; 0xfffff6ac
    62b4:	6c205f5f 	stcvs	15, cr5, [r0], #-380	; 0xfffffe84
    62b8:	20676e6f 	rsbcs	r6, r7, pc, ror #28
    62bc:	69736e75 	ldmdbvs	r3!, {r0, r2, r4, r5, r6, r9, sl, fp, sp, lr}^
    62c0:	64656e67 	strbtvs	r6, [r5], #-3687	; 0xfffff199
    62c4:	746e6920 	strbtvc	r6, [lr], #-2336	; 0xfffff6e0
    62c8:	415f5f00 	cmpmi	pc, r0, lsl #30
    62cc:	465f4d52 			; <UNDEFINED> instruction: 0x465f4d52
    62d0:	55544145 	ldrbpl	r4, [r4, #-325]	; 0xfffffebb
    62d4:	445f4552 	ldrbmi	r4, [pc], #-1362	; 62dc <_Min_Stack_Size+0x5edc>
    62d8:	5250544f 	subspl	r5, r0, #1325400064	; 0x4f000000
    62dc:	5f00444f 	svcpl	0x0000444f
    62e0:	5257535f 	subspl	r5, r7, #2080374785	; 0x7c000001
    62e4:	30783020 	rsbscc	r3, r8, r0, lsr #32
    62e8:	00383030 	eorseq	r3, r8, r0, lsr r0
    62ec:	75705f5f 	ldrbvc	r5, [r0, #-3935]!	; 0xfffff0a1
    62f0:	5f206572 	svcpl	0x00206572
    62f4:	7474615f 	ldrbtvc	r6, [r4], #-351	; 0xfffffea1
    62f8:	75626972 	strbvc	r6, [r2, #-2418]!	; 0xfffff68e
    62fc:	5f5f6574 	svcpl	0x005f6574
    6300:	5f5f2828 	svcpl	0x005f2828
    6304:	65727570 	ldrbvs	r7, [r2, #-1392]!	; 0xfffffa90
    6308:	29295f5f 	stmdbcs	r9!, {r0, r1, r2, r3, r4, r6, r8, r9, sl, fp, ip, lr}
    630c:	415f5f00 	cmpmi	pc, r0, lsl #30
    6310:	505f4d52 	subspl	r4, pc, r2, asr sp	; <UNPREDICTABLE>
    6314:	565f5343 	ldrbpl	r5, [pc], -r3, asr #6
    6318:	31205046 			; <UNDEFINED> instruction: 0x31205046
    631c:	43475f00 	movtmi	r5, #32512	; 0x7f00
    6320:	49535f43 	ldmdbmi	r3, {r0, r1, r6, r8, r9, sl, fp, ip, lr}^
    6324:	545f455a 	ldrbpl	r4, [pc], #-1370	; 632c <_Min_Stack_Size+0x5f2c>
    6328:	5f5f0020 	svcpl	0x005f0020
    632c:	535f4343 	cmppl	pc, #201326593	; 0xc000001
    6330:	4f505055 	svcmi	0x00505055
    6334:	5f535452 	svcpl	0x00535452
    6338:	4e524157 	mrcmi	1, 2, r4, cr2, cr7, {2}
    633c:	20474e49 	subcs	r4, r7, r9, asr #28
    6340:	5f5f0031 	svcpl	0x005f0031
    6344:	544e4957 	strbpl	r4, [lr], #-2391	; 0xfffff6a9
    6348:	4449575f 	strbmi	r5, [r9], #-1887	; 0xfffff8a1
    634c:	5f5f4854 	svcpl	0x005f4854
    6350:	00323320 	eorseq	r3, r2, r0, lsr #6
    6354:	4c555f5f 	mrrcmi	15, 5, r5, r5, cr15	; <UNPREDICTABLE>
    6358:	4152464c 	cmpmi	r2, ip, asr #12
    635c:	4d5f5443 	cfldrdmi	mvd5, [pc, #-268]	; 6258 <_Min_Stack_Size+0x5e58>
    6360:	5f5f4e49 	svcpl	0x005f4e49
    6364:	302e3020 	eorcc	r3, lr, r0, lsr #32
    6368:	524c4c55 	subpl	r4, ip, #21760	; 0x5500
    636c:	475f5f00 	ldrbmi	r5, [pc, -r0, lsl #30]
    6370:	435f4343 	cmpmi	pc, #201326593	; 0xc000001
    6374:	54534e4f 	ldrbpl	r4, [r3], #-3663	; 0xfffff1b1
    6378:	54435552 	strbpl	r5, [r3], #-1362	; 0xfffffaae
    637c:	5f455649 	svcpl	0x00455649
    6380:	455a4953 	ldrbmi	r4, [sl, #-2387]	; 0xfffff6ad
    6384:	00343620 	eorseq	r3, r4, r0, lsr #12
    6388:	4453425f 	ldrbmi	r4, [r3], #-607	; 0xfffffda1
    638c:	4843575f 	stmdami	r3, {r0, r1, r2, r3, r4, r6, r8, r9, sl, ip, lr}^
    6390:	545f5241 	ldrbpl	r5, [pc], #-577	; 6398 <_Min_Stack_Size+0x5f98>
    6394:	5f5f005f 	svcpl	0x005f005f
    6398:	74736572 	ldrbtvc	r6, [r3], #-1394	; 0xfffffa8e
    639c:	74636972 	strbtvc	r6, [r3], #-2418	; 0xfffff68e
    63a0:	7272615f 	rsbsvc	r6, r2, #-1073741801	; 0xc0000017
    63a4:	73657220 	cmnvc	r5, #32, 4
    63a8:	63697274 	cmnvs	r9, #116, 4	; 0x40000007
    63ac:	5f5f0074 	svcpl	0x005f0074
    63b0:	52464c4c 	subpl	r4, r6, #76, 24	; 0x4c00
    63b4:	5f544341 	svcpl	0x00544341
    63b8:	54494249 	strbpl	r4, [r9], #-585	; 0xfffffdb7
    63bc:	30205f5f 	eorcc	r5, r0, pc, asr pc
    63c0:	435f5f00 	cmpmi	pc, #0, 30
    63c4:	55535f43 	ldrbpl	r5, [r3, #-3907]	; 0xfffff0bd
    63c8:	524f5050 	subpl	r5, pc, #80	; 0x50
    63cc:	565f5354 			; <UNDEFINED> instruction: 0x565f5354
    63d0:	44415241 	strbmi	r5, [r1], #-577	; 0xfffffdbf
    63d4:	585f4349 	ldmdapl	pc, {r0, r3, r6, r8, r9, lr}^	; <UNPREDICTABLE>
    63d8:	31205858 			; <UNDEFINED> instruction: 0x31205858
    63dc:	775f5f00 	ldrbvc	r5, [pc, -r0, lsl #30]
    63e0:	5f6b6165 	svcpl	0x006b6165
    63e4:	65666572 	strbvs	r6, [r6, #-1394]!	; 0xfffffa8e
    63e8:	636e6572 	cmnvs	lr, #478150656	; 0x1c800000
    63ec:	79732865 	ldmdbvc	r3!, {r0, r2, r5, r6, fp, sp}^
    63f0:	6c612c6d 	stclvs	12, cr2, [r1], #-436	; 0xfffffe4c
    63f4:	29736169 	ldmdbcs	r3!, {r0, r3, r5, r6, r8, sp, lr}^
    63f8:	615f5f20 	cmpvs	pc, r0, lsr #30
    63fc:	5f5f6d73 	svcpl	0x005f6d73
    6400:	772e2228 	strvc	r2, [lr, -r8, lsr #4]!
    6404:	206b6165 	rsbcs	r6, fp, r5, ror #2
    6408:	61232022 			; <UNDEFINED> instruction: 0x61232022
    640c:	7361696c 	cmnvc	r1, #108, 18	; 0x1b0000
    6410:	5f203b29 	svcpl	0x00203b29
    6414:	6d73615f 	ldfvse	f6, [r3, #-380]!	; 0xfffffe84
    6418:	22285f5f 	eorcs	r5, r8, #380	; 0x17c
    641c:	7571652e 	ldrbvc	r6, [r1, #-1326]!	; 0xfffffad2
    6420:	23202220 			; <UNDEFINED> instruction: 0x23202220
    6424:	61696c61 	cmnvs	r9, r1, ror #24
    6428:	2c222073 	stccs	0, cr2, [r2], #-460	; 0xfffffe34
    642c:	23202220 			; <UNDEFINED> instruction: 0x23202220
    6430:	296d7973 	stmdbcs	sp!, {r0, r1, r4, r5, r6, r8, fp, ip, sp, lr}^
    6434:	535f5f00 	cmppl	pc, #0, 30
    6438:	55434341 	strbpl	r4, [r3, #-833]	; 0xfffffcbf
    643c:	50455f4d 	subpl	r5, r5, sp, asr #30
    6440:	4f4c4953 	svcmi	0x004c4953
    6444:	205f5f4e 	subscs	r5, pc, lr, asr #30
    6448:	50317830 	eorspl	r7, r1, r0, lsr r8
    644c:	4b48372d 	blmi	1214108 <_Min_Stack_Size+0x1213d08>
    6450:	475f5f00 	ldrbmi	r5, [pc, -r0, lsl #30]
    6454:	415f4343 	cmpmi	pc, r3, asr #6
    6458:	465f4d53 			; <UNDEFINED> instruction: 0x465f4d53
    645c:	5f47414c 	svcpl	0x0047414c
    6460:	5054554f 	subspl	r5, r4, pc, asr #10
    6464:	5f535455 	svcpl	0x00535455
    6468:	0031205f 	eorseq	r2, r1, pc, asr r0
    646c:	4545525f 	strbmi	r5, [r5, #-607]	; 0xfffffda1
    6470:	535f544e 	cmppl	pc, #1308622848	; 0x4e000000
    6474:	554f4454 	strbpl	r4, [pc, #-1108]	; 6028 <_Min_Stack_Size+0x5c28>
    6478:	705f2854 	subsvc	r2, pc, r4, asr r8	; <UNPREDICTABLE>
    647c:	20297274 	eorcs	r7, r9, r4, ror r2
    6480:	705f2828 	subsvc	r2, pc, r8, lsr #16
    6484:	2d297274 	sfmcs	f7, 4, [r9, #-464]!	; 0xfffffe30
    6488:	74735f3e 	ldrbtvc	r5, [r3], #-3902	; 0xfffff0c2
    648c:	74756f64 	ldrbtvc	r6, [r5], #-3940	; 0xfffff09c
    6490:	525f0029 	subspl	r0, pc, #41	; 0x29
    6494:	544e4545 	strbpl	r4, [lr], #-1349	; 0xfffffabb
    6498:	4548435f 	strbmi	r4, [r8, #-863]	; 0xfffffca1
    649c:	565f4b43 	ldrbpl	r4, [pc], -r3, asr #22
    64a0:	46495245 	strbmi	r5, [r9], -r5, asr #4
    64a4:	00312059 	eorseq	r2, r1, r9, asr r0
    64a8:	52415f5f 	subpl	r5, r1, #380	; 0x17c
    64ac:	50465f4d 	subpl	r5, r6, sp, asr #30
    64b0:	5f003420 	svcpl	0x00003420
    64b4:	49534f50 	ldmdbmi	r3, {r4, r6, r8, r9, sl, fp, lr}^
    64b8:	4f535f58 	svcmi	0x00535f58
    64bc:	45435255 	strbmi	r5, [r3, #-597]	; 0xfffffdab
    64c0:	5f003120 	svcpl	0x00003120
    64c4:	4e49555f 	mcrmi	5, 2, r5, cr9, cr15, {2}
    64c8:	41465f54 	cmpmi	r6, r4, asr pc
    64cc:	36315453 			; <UNDEFINED> instruction: 0x36315453
    64d0:	5059545f 	subspl	r5, r9, pc, asr r4
    64d4:	205f5f45 	subscs	r5, pc, r5, asr #30
    64d8:	69736e75 	ldmdbvs	r3!, {r0, r2, r4, r5, r6, r9, sl, fp, sp, lr}^
    64dc:	64656e67 	strbtvs	r6, [r5], #-3687	; 0xfffff199
    64e0:	746e6920 	strbtvc	r6, [lr], #-2336	; 0xfffff6e0
    64e4:	555f5f00 	ldrbpl	r5, [pc, #-3840]	; 55ec <_Min_Stack_Size+0x51ec>
    64e8:	495f4148 	ldmdbmi	pc, {r3, r6, r8, lr}^	; <UNPREDICTABLE>
    64ec:	5f544942 	svcpl	0x00544942
    64f0:	0038205f 	eorseq	r2, r8, pc, asr r0
    64f4:	656e5f5f 	strbvs	r5, [lr, #-3935]!	; 0xfffff0a1
    64f8:	775f6465 	ldrbvc	r6, [pc, -r5, ror #8]
    64fc:	5f746e69 	svcpl	0x00746e69
    6500:	5f002074 	svcpl	0x00002074
    6504:	4343415f 	movtmi	r4, #12639	; 0x315f
    6508:	455f4d55 	ldrbmi	r4, [pc, #-3413]	; 57bb <_Min_Stack_Size+0x53bb>
    650c:	4c495350 	mcrrmi	3, 5, r5, r9, cr0
    6510:	5f5f4e4f 	svcpl	0x005f4e4f
    6514:	31783020 	cmncc	r8, r0, lsr #32
    6518:	35312d50 	ldrcc	r2, [r1, #-3408]!	; 0xfffff2b0
    651c:	5f5f004b 	svcpl	0x005f004b
    6520:	43414c55 	movtmi	r4, #7253	; 0x1c55
    6524:	5f4d5543 	svcpl	0x004d5543
    6528:	49535045 	ldmdbmi	r3, {r0, r2, r6, ip, lr}^
    652c:	5f4e4f4c 	svcpl	0x004e4f4c
    6530:	7830205f 	ldmdavc	r0!, {r0, r1, r2, r3, r4, r6, sp}
    6534:	332d5031 			; <UNDEFINED> instruction: 0x332d5031
    6538:	4b4c5532 	blmi	131ba08 <_Min_Stack_Size+0x131b608>
    653c:	4c5f5f00 	mrrcmi	15, 0, r5, pc, cr0	; <UNPREDICTABLE>
    6540:	5f4c4244 	svcpl	0x004c4244
    6544:	5f474944 	svcpl	0x00474944
    6548:	3531205f 	ldrcc	r2, [r1, #-95]!	; 0xffffffa1
    654c:	725f5f00 	subsvc	r5, pc, #0, 30
    6550:	69757165 	ldmdbvs	r5!, {r0, r2, r5, r6, r8, ip, sp, lr}^
    6554:	5f736572 	svcpl	0x00736572
    6558:	6c637865 	stclvs	8, cr7, [r3], #-404	; 0xfffffe6c
    655c:	76697375 			; <UNDEFINED> instruction: 0x76697375
    6560:	2e2e2865 	cdpcs	8, 2, cr2, cr14, cr5, {3}
    6564:	5f20292e 	svcpl	0x0020292e
    6568:	636f6c5f 	cmnvs	pc, #24320	; 0x5f00
    656c:	6e615f6b 	cdpvs	15, 6, cr5, cr1, cr11, {3}
    6570:	61746f6e 	cmnvs	r4, lr, ror #30
    6574:	65286574 	strvs	r6, [r8, #-1396]!	; 0xfffffa8c
    6578:	756c6378 	strbvc	r6, [ip, #-888]!	; 0xfffffc88
    657c:	65766973 	ldrbvs	r6, [r6, #-2419]!	; 0xfffff68d
    6580:	636f6c5f 	cmnvs	pc, #24320	; 0x5f00
    6584:	725f736b 	subsvc	r7, pc, #-1409286143	; 0xac000001
    6588:	69757165 	ldmdbvs	r5!, {r0, r2, r5, r6, r8, ip, sp, lr}^
    658c:	28646572 	stmdacs	r4!, {r1, r4, r5, r6, r8, sl, sp, lr}^
    6590:	41565f5f 	cmpmi	r6, pc, asr pc
    6594:	4752415f 			; <UNDEFINED> instruction: 0x4752415f
    6598:	295f5f53 	ldmdbcs	pc, {r0, r1, r4, r6, r8, r9, sl, fp, ip, lr}^	; <UNPREDICTABLE>
    659c:	5f5f0029 	svcpl	0x005f0029
    65a0:	6c696673 	stclvs	6, cr6, [r9], #-460	; 0xfffffe34
    65a4:	286f6e65 	stmdacs	pc!, {r0, r2, r5, r6, r9, sl, fp, sp, lr}^	; <UNPREDICTABLE>
    65a8:	28202970 	stmdacs	r0!, {r4, r5, r6, r8, fp, sp}
    65ac:	2d297028 	stccs	0, cr7, [r9, #-160]!	; 0xffffff60
    65b0:	69665f3e 	stmdbvs	r6!, {r1, r2, r3, r4, r5, r8, r9, sl, fp, ip, lr}^
    65b4:	0029656c 	eoreq	r6, r9, ip, ror #10
    65b8:	4545525f 	strbmi	r5, [r5, #-607]	; 0xfffffda1
    65bc:	4d5f544e 	cfldrdmi	mvd5, [pc, #-312]	; 648c <_Min_Stack_Size+0x608c>
    65c0:	45525f50 	ldrbmi	r5, [r2, #-3920]	; 0xfffff0b0
    65c4:	544c5553 	strbpl	r5, [ip], #-1363	; 0xfffffaad
    65c8:	72747028 	rsbsvc	r7, r4, #40	; 0x28
    65cc:	28282029 	stmdacs	r8!, {r0, r3, r5, sp}
    65d0:	29727470 	ldmdbcs	r2!, {r4, r5, r6, sl, ip, sp, lr}^
    65d4:	6d5f3e2d 	ldclvs	14, cr3, [pc, #-180]	; 6528 <_Min_Stack_Size+0x6128>
    65d8:	5f3e2d70 	svcpl	0x003e2d70
    65dc:	75736572 	ldrbvc	r6, [r3, #-1394]!	; 0xfffffa8e
    65e0:	0029746c 	eoreq	r7, r9, ip, ror #8
    65e4:	5055535f 	subspl	r5, r5, pc, asr r3
    65e8:	54524f50 	ldrbpl	r4, [r2], #-3920	; 0xfffff0b0
    65ec:	52455f53 	subpl	r5, r5, #332	; 0x14c
    65f0:	43584552 	cmpmi	r8, #343932928	; 0x14800000
    65f4:	20545045 	subscs	r5, r4, r5, asr #32
    65f8:	465f5f00 	ldrbmi	r5, [pc], -r0, lsl #30
    65fc:	3436544c 	ldrtcc	r5, [r6], #-1100	; 0xfffffbb4
    6600:	4749445f 	smlsldmi	r4, r9, pc, r4	; <UNPREDICTABLE>
    6604:	31205f5f 			; <UNDEFINED> instruction: 0x31205f5f
    6608:	5f5f0035 	svcpl	0x005f0035
    660c:	544e4957 	strbpl	r4, [lr], #-2391	; 0xfffff6a9
    6610:	58414d5f 	stmdapl	r1, {r0, r1, r2, r3, r4, r6, r8, sl, fp, lr}^
    6614:	30205f5f 	eorcc	r5, r0, pc, asr pc
    6618:	66666678 			; <UNDEFINED> instruction: 0x66666678
    661c:	66666666 	strbtvs	r6, [r6], -r6, ror #12
    6620:	5f005566 	svcpl	0x00005566
    6624:	544e495f 	strbpl	r4, [lr], #-2399	; 0xfffff6a1
    6628:	41454c5f 	cmpmi	r5, pc, asr ip
    662c:	5f385453 	svcpl	0x00385453
    6630:	54444957 	strbpl	r4, [r4], #-2391	; 0xfffff6a9
    6634:	205f5f48 	subscs	r5, pc, r8, asr #30
    6638:	525f0038 	subspl	r0, pc, #56	; 0x38
    663c:	544e4545 	strbpl	r4, [lr], #-1349	; 0xfffffabb
    6640:	5f504d5f 	svcpl	0x00504d5f
    6644:	55534552 	ldrbpl	r4, [r3, #-1362]	; 0xfffffaae
    6648:	4b5f544c 	blmi	17db780 <_Min_Stack_Size+0x17db380>
    664c:	72747028 	rsbsvc	r7, r4, #40	; 0x28
    6650:	28282029 	stmdacs	r8!, {r0, r3, r5, sp}
    6654:	29727470 	ldmdbcs	r2!, {r4, r5, r6, sl, ip, sp, lr}^
    6658:	6d5f3e2d 	ldclvs	14, cr3, [pc, #-180]	; 65ac <_Min_Stack_Size+0x61ac>
    665c:	5f3e2d70 	svcpl	0x003e2d70
    6660:	75736572 	ldrbvc	r6, [r3, #-1394]!	; 0xfffffa8e
    6664:	6b5f746c 	blvs	17e381c <_Min_Stack_Size+0x17e341c>
    6668:	5f5f0029 	svcpl	0x005f0029
    666c:	676e6f6c 	strbvs	r6, [lr, -ip, ror #30]!
    6670:	756f645f 	strbvc	r6, [pc, #-1119]!	; 6219 <_Min_Stack_Size+0x5e19>
    6674:	5f656c62 	svcpl	0x00656c62
    6678:	6f6c2074 	svcvs	0x006c2074
    667c:	6420676e 	strtvs	r6, [r0], #-1902	; 0xfffff892
    6680:	6c62756f 	cfstr64vs	mvdx7, [r2], #-444	; 0xfffffe44
    6684:	5f5f0065 	svcpl	0x005f0065
    6688:	5f544e49 	svcpl	0x00544e49
    668c:	5341454c 	movtpl	r4, #5452	; 0x154c
    6690:	5f363154 	svcpl	0x00363154
    6694:	45505954 	ldrbmi	r5, [r0, #-2388]	; 0xfffff6ac
    6698:	73205f5f 			; <UNDEFINED> instruction: 0x73205f5f
    669c:	74726f68 	ldrbtvc	r6, [r2], #-3944	; 0xfffff098
    66a0:	746e6920 	strbtvc	r6, [lr], #-2336	; 0xfffff6e0
    66a4:	515f5f00 	cmppl	pc, r0, lsl #30
    66a8:	42465f51 	submi	r5, r6, #324	; 0x144
    66ac:	5f5f5449 	svcpl	0x005f5449
    66b0:	5f003720 	svcpl	0x00003720
    66b4:	4c42445f 	cfstrdmi	mvd4, [r2], {95}	; 0x5f
    66b8:	58414d5f 	stmdapl	r1, {r0, r1, r2, r3, r4, r6, r8, sl, fp, lr}^
    66bc:	28205f5f 	stmdacs	r0!, {r0, r1, r2, r3, r4, r6, r8, r9, sl, fp, ip, lr}
    66c0:	756f6428 	strbvc	r6, [pc, #-1064]!	; 62a0 <_Min_Stack_Size+0x5ea0>
    66c4:	29656c62 	stmdbcs	r5!, {r1, r5, r6, sl, fp, sp, lr}^
    66c8:	39372e31 	ldmdbcc	r7!, {r0, r4, r5, r9, sl, fp, sp}
    66cc:	33393637 	teqcc	r9, #57671680	; 0x3700000
    66d0:	38343331 	ldmdacc	r4!, {r0, r4, r5, r8, r9, ip, sp}
    66d4:	31333236 	teqcc	r3, r6, lsr r2
    66d8:	2b653735 	blcs	19543b4 <_Min_Stack_Size+0x1953fb4>
    66dc:	4c383033 	ldcmi	0, cr3, [r8], #-204	; 0xffffff34
    66e0:	5f5f0029 	svcpl	0x005f0029
    66e4:	52464c4c 	subpl	r4, r6, #76, 24	; 0x4c00
    66e8:	5f544341 	svcpl	0x00544341
    66ec:	54494246 	strbpl	r4, [r9], #-582	; 0xfffffdba
    66f0:	36205f5f 	qsaxcc	r5, r0, pc	; <UNPREDICTABLE>
    66f4:	5f5f0033 	svcpl	0x005f0033
    66f8:	33544c46 	cmpcc	r4, #17920	; 0x4600
    66fc:	41485f32 	cmpmi	r8, r2, lsr pc
    6700:	4e495f53 	mcrmi	15, 2, r5, cr9, cr3, {2}
    6704:	494e4946 	stmdbmi	lr, {r1, r2, r6, r8, fp, lr}^
    6708:	5f5f5954 	svcpl	0x005f5954
    670c:	5f003120 	svcpl	0x00003120
    6710:	7568745f 	strbvc	r7, [r8, #-1119]!	; 0xfffffba1
    6714:	5f5f626d 	svcpl	0x005f626d
    6718:	5f003120 	svcpl	0x00003120
    671c:	42444c5f 	submi	r4, r4, #24320	; 0x5f00
    6720:	414d5f4c 	cmpmi	sp, ip, asr #30
    6724:	30315f58 	eorscc	r5, r1, r8, asr pc
    6728:	5058455f 	subspl	r4, r8, pc, asr r5
    672c:	33205f5f 			; <UNDEFINED> instruction: 0x33205f5f
    6730:	5f003830 	svcpl	0x00003830
    6734:	4d52415f 	ldfmie	f4, [r2, #-380]	; 0xfffffe84
    6738:	5f5f4c45 	svcpl	0x005f4c45
    673c:	5f003120 	svcpl	0x00003120
    6740:	4d52415f 	ldfmie	f4, [r2, #-380]	; 0xfffffe84
    6744:	4145465f 	cmpmi	r5, pc, asr r6
    6748:	45525554 	ldrbmi	r5, [r2, #-1364]	; 0xfffffaac
    674c:	3146425f 	cmpcc	r6, pc, asr r2
    6750:	43535f36 	cmpmi	r3, #54, 30	; 0xd8
    6754:	52414c41 	subpl	r4, r1, #16640	; 0x4100
    6758:	4952415f 	ldmdbmi	r2, {r0, r1, r2, r3, r4, r6, r8, lr}^
    675c:	454d4854 	strbmi	r4, [sp, #-2132]	; 0xfffff7ac
    6760:	00434954 	subeq	r4, r3, r4, asr r9
    6764:	6f665f5f 	svcvs	0x00665f5f
    6768:	74616d72 	strbtvc	r6, [r1], #-3442	; 0xfffff28e
    676c:	6772615f 			; <UNDEFINED> instruction: 0x6772615f
    6770:	746d6628 	strbtvc	r6, [sp], #-1576	; 0xfffff9d8
    6774:	29677261 	stmdbcs	r7!, {r0, r5, r6, r9, ip, sp, lr}^
    6778:	615f5f20 	cmpvs	pc, r0, lsr #30
    677c:	69727474 	ldmdbvs	r2!, {r2, r4, r5, r6, sl, ip, sp, lr}^
    6780:	65747562 	ldrbvs	r7, [r4, #-1378]!	; 0xfffffa9e
    6784:	28285f5f 	stmdacs	r8!, {r0, r1, r2, r3, r4, r6, r8, r9, sl, fp, ip, lr}
    6788:	6f665f5f 	svcvs	0x00665f5f
    678c:	74616d72 	strbtvc	r6, [r1], #-3442	; 0xfffff28e
    6790:	6772615f 			; <UNDEFINED> instruction: 0x6772615f
    6794:	28205f5f 	stmdacs	r0!, {r0, r1, r2, r3, r4, r6, r8, r9, sl, fp, ip, lr}
    6798:	61746d66 	cmnvs	r4, r6, ror #26
    679c:	29296772 	stmdbcs	r9!, {r1, r4, r5, r6, r8, r9, sl, sp, lr}
    67a0:	5f5f0029 	svcpl	0x005f0029
    67a4:	706d6f63 	rsbvc	r6, sp, r3, ror #30
    67a8:	72656c69 	rsbvc	r6, r5, #26880	; 0x6900
    67ac:	6d656d5f 	stclvs	13, cr6, [r5, #-380]!	; 0xfffffe84
    67b0:	28726162 	ldmdacs	r2!, {r1, r5, r6, r8, sp, lr}^
    67b4:	5f5f2029 	svcpl	0x005f2029
    67b8:	206d7361 	rsbcs	r7, sp, r1, ror #6
    67bc:	6f765f5f 	svcvs	0x00765f5f
    67c0:	6974616c 	ldmdbvs	r4!, {r2, r3, r5, r6, r8, sp, lr}^
    67c4:	2228656c 	eorcs	r6, r8, #108, 10	; 0x1b000000
    67c8:	3a202220 	bcc	80f050 <_Min_Stack_Size+0x80ec50>
    67cc:	3a203a20 	bcc	815054 <_Min_Stack_Size+0x814c54>
    67d0:	656d2220 	strbvs	r2, [sp, #-544]!	; 0xfffffde0
    67d4:	79726f6d 	ldmdbvc	r2!, {r0, r2, r3, r5, r6, r8, r9, sl, fp, sp, lr}^
    67d8:	5f002922 	svcpl	0x00002922
    67dc:	636f6c5f 	cmnvs	pc, #24320	; 0x5f00
    67e0:	6c635f6b 	stclvs	15, cr5, [r3], #-428	; 0xfffffe54
    67e4:	2865736f 	stmdacs	r5!, {r0, r1, r2, r3, r5, r6, r8, r9, ip, sp, lr}^
    67e8:	6b636f6c 	blvs	18e25a0 <_Min_Stack_Size+0x18e21a0>
    67ec:	5f5f2029 	svcpl	0x005f2029
    67f0:	61746572 	cmnvs	r4, r2, ror r5
    67f4:	74656772 	strbtvc	r6, [r5], #-1906	; 0xfffff88e
    67f8:	636f6c5f 	cmnvs	pc, #24320	; 0x5f00
    67fc:	6c635f6b 	stclvs	15, cr5, [r3], #-428	; 0xfffffe54
    6800:	2865736f 	stmdacs	r5!, {r0, r1, r2, r3, r5, r6, r8, r9, ip, sp, lr}^
    6804:	6b636f6c 	blvs	18e25bc <_Min_Stack_Size+0x18e21bc>
    6808:	5f5f0029 	svcpl	0x005f0029
    680c:	465f5148 	ldrbmi	r5, [pc], -r8, asr #2
    6810:	5f544942 	svcpl	0x00544942
    6814:	3531205f 	ldrcc	r2, [r1, #-95]!	; 0xffffffa1
    6818:	645f5f00 	ldrbvs	r5, [pc], #-3840	; 6820 <_Min_Stack_Size+0x6420>
    681c:	74617461 	strbtvc	r7, [r1], #-1121	; 0xfffffb9f
    6820:	5f657079 	svcpl	0x00657079
    6824:	65707974 	ldrbvs	r7, [r0, #-2420]!	; 0xfffff68c
    6828:	6761745f 			; <UNDEFINED> instruction: 0x6761745f
    682c:	6e696b28 	vmulvs.f64	d22, d9, d24
    6830:	79742c64 	ldmdbvc	r4!, {r2, r5, r6, sl, fp, sp}^
    6834:	20296570 	eorcs	r6, r9, r0, ror r5
    6838:	6e5f5f00 	cdpvs	15, 5, cr5, cr15, cr0, {0}
    683c:	5f646565 	svcpl	0x00646565
    6840:	61765f5f 	cmnvs	r6, pc, asr pc
    6844:	73696c5f 	cmnvc	r9, #24320	; 0x5f00
    6848:	5f5f0074 	svcpl	0x005f0074
    684c:	455a4953 	ldrbmi	r4, [sl, #-2387]	; 0xfffff6ad
    6850:	58414d5f 	stmdapl	r1, {r0, r1, r2, r3, r4, r6, r8, sl, fp, lr}^
    6854:	30205f5f 	eorcc	r5, r0, pc, asr pc
    6858:	66666678 			; <UNDEFINED> instruction: 0x66666678
    685c:	66666666 	strbtvs	r6, [r6], -r6, ror #12
    6860:	5f005566 	svcpl	0x00005566
    6864:	504f535f 	subpl	r5, pc, pc, asr r3	; <UNPREDICTABLE>
    6868:	78302054 	ldmdavc	r0!, {r2, r4, r6, sp}
    686c:	30303430 	eorscc	r3, r0, r0, lsr r4
    6870:	555f5f00 	ldrbpl	r5, [pc, #-3840]	; 5978 <_Min_Stack_Size+0x5578>
    6874:	43414c4c 	movtmi	r4, #7244	; 0x1c4c
    6878:	5f4d5543 	svcpl	0x004d5543
    687c:	54494246 	strbpl	r4, [r9], #-582	; 0xfffffdba
    6880:	33205f5f 			; <UNDEFINED> instruction: 0x33205f5f
    6884:	5f5f0032 	svcpl	0x005f0032
    6888:	5f4d5241 	svcpl	0x004d5241
    688c:	48435241 	stmdami	r3, {r0, r6, r9, ip, lr}^
    6890:	445f5f00 	ldrbmi	r5, [pc], #-3840	; 6898 <_Min_Stack_Size+0x6498>
    6894:	4e494645 	cdpmi	6, 4, cr4, cr9, cr5, {2}
    6898:	705f4445 	subsvc	r4, pc, r5, asr #8
    689c:	69647274 	stmdbvs	r4!, {r2, r4, r5, r6, r9, ip, sp, lr}^
    68a0:	745f6666 	ldrbvc	r6, [pc], #-1638	; 68a8 <_Min_Stack_Size+0x64a8>
    68a4:	666f0020 	strbtvs	r0, [pc], -r0, lsr #32
    68a8:	74657366 	strbtvc	r7, [r5], #-870	; 0xfffffc9a
    68ac:	5f00666f 	svcpl	0x0000666f
    68b0:	6e6f6e5f 	mcrvs	14, 3, r6, cr15, cr15, {2}
    68b4:	6c6c756e 	cfstr64vs	mvdx7, [ip], #-440	; 0xfffffe48
    68b8:	20297828 	eorcs	r7, r9, r8, lsr #16
    68bc:	74615f5f 	strbtvc	r5, [r1], #-3935	; 0xfffff0a1
    68c0:	62697274 	rsbvs	r7, r9, #116, 4	; 0x40000007
    68c4:	5f657475 	svcpl	0x00657475
    68c8:	5f28285f 	svcpl	0x0028285f
    68cc:	6e6f6e5f 	mcrvs	14, 3, r6, cr15, cr15, {2}
    68d0:	6c6c756e 	cfstr64vs	mvdx7, [ip], #-440	; 0xfffffe48
    68d4:	78205f5f 	stmdavc	r0!, {r0, r1, r2, r3, r4, r6, r8, r9, sl, fp, ip, lr}
    68d8:	5f002929 	svcpl	0x00002929
    68dc:	444e4152 	strbmi	r4, [lr], #-338	; 0xfffffeae
    68e0:	415f3834 	cmpmi	pc, r4, lsr r8	; <UNPREDICTABLE>
    68e4:	28204444 	stmdacs	r0!, {r2, r6, sl, lr}
    68e8:	30307830 	eorscc	r7, r0, r0, lsr r8
    68ec:	00296230 	eoreq	r6, r9, r0, lsr r2
    68f0:	52415f5f 	subpl	r5, r1, #380	; 0x17c
    68f4:	45465f4d 	strbmi	r5, [r6, #-3917]	; 0xfffff0b3
    68f8:	52555441 	subspl	r5, r5, #1090519040	; 0x41000000
    68fc:	444c5f45 	strbmi	r5, [ip], #-3909	; 0xfffff0bb
    6900:	20584552 	subscs	r4, r8, r2, asr r5
    6904:	5f5f0037 	svcpl	0x005f0037
    6908:	6b636f6c 	blvs	18e26c0 <_Min_Stack_Size+0x18e22c0>
    690c:	7163615f 	cmnvc	r3, pc, asr r1
    6910:	65726975 	ldrbvs	r6, [r2, #-2421]!	; 0xfffff68b
    6914:	6365725f 	cmnvs	r5, #-268435451	; 0xf0000005
    6918:	69737275 	ldmdbvs	r3!, {r0, r2, r4, r5, r6, r9, ip, sp, lr}^
    691c:	6c286576 	cfstr32vs	mvfx6, [r8], #-472	; 0xfffffe28
    6920:	296b636f 	stmdbcs	fp!, {r0, r1, r2, r3, r5, r6, r8, r9, sp, lr}^
    6924:	725f5f20 	subsvc	r5, pc, #32, 30	; 0x80
    6928:	72617465 	rsbvc	r7, r1, #1694498816	; 0x65000000
    692c:	5f746567 	svcpl	0x00746567
    6930:	6b636f6c 	blvs	18e26e8 <_Min_Stack_Size+0x18e22e8>
    6934:	7163615f 	cmnvc	r3, pc, asr r1
    6938:	65726975 	ldrbvs	r6, [r2, #-2421]!	; 0xfffff68b
    693c:	6365725f 	cmnvs	r5, #-268435451	; 0xf0000005
    6940:	69737275 	ldmdbvs	r3!, {r0, r2, r4, r5, r6, r9, ip, sp, lr}^
    6944:	6c286576 	cfstr32vs	mvfx6, [r8], #-472	; 0xfffffe28
    6948:	296b636f 	stmdbcs	fp!, {r0, r1, r2, r3, r5, r6, r8, r9, sp, lr}^
    694c:	54535f00 	ldrbpl	r5, [r3], #-3840	; 0xfffff100
    6950:	46454444 	strbmi	r4, [r5], -r4, asr #8
    6954:	205f485f 	subscs	r4, pc, pc, asr r8	; <UNPREDICTABLE>
    6958:	4c5f5f00 	mrrcmi	15, 0, r5, pc, cr0	; <UNPREDICTABLE>
    695c:	4152464c 	cmpmi	r2, ip, asr #12
    6960:	455f5443 	ldrbmi	r5, [pc, #-1091]	; 6525 <_Min_Stack_Size+0x6125>
    6964:	4c495350 	mcrrmi	3, 5, r5, r9, cr0
    6968:	5f5f4e4f 	svcpl	0x005f4e4f
    696c:	31783020 	cmncc	r8, r0, lsr #32
    6970:	33362d50 	teqcc	r6, #80, 26	; 0x1400
    6974:	00524c4c 	subseq	r4, r2, ip, asr #24
    6978:	46535f5f 	usaxmi	r5, r3, pc	; <UNPREDICTABLE>
    697c:	54434152 	strbpl	r4, [r3], #-338	; 0xfffffeae
    6980:	58414d5f 	stmdapl	r1, {r0, r1, r2, r3, r4, r6, r8, sl, fp, lr}^
    6984:	30205f5f 	eorcc	r5, r0, pc, asr pc
    6988:	50463758 	subpl	r3, r6, r8, asr r7
    698c:	5248372d 	subpl	r3, r8, #11796480	; 0xb40000
    6990:	465f5f00 	ldrbmi	r5, [pc], -r0, lsl #30
    6994:	3233544c 	eorscc	r5, r3, #76, 8	; 0x4c000000
    6998:	414d5f58 	cmpmi	sp, r8, asr pc
    699c:	445f544e 	ldrbmi	r5, [pc], #-1102	; 69a4 <_Min_Stack_Size+0x65a4>
    69a0:	5f5f4749 	svcpl	0x005f4749
    69a4:	00333520 	eorseq	r3, r3, r0, lsr #10
    69a8:	43575f5f 	cmpmi	r7, #380	; 0x17c
    69ac:	5f524148 	svcpl	0x00524148
    69b0:	54444957 	strbpl	r4, [r4], #-2391	; 0xfffff6a9
    69b4:	205f5f48 	subscs	r5, pc, r8, asr #30
    69b8:	5f003233 	svcpl	0x00003233
    69bc:	544e495f 	strbpl	r4, [lr], #-2399	; 0xfffff6a1
    69c0:	435f3631 	cmpmi	pc, #51380224	; 0x3100000
    69c4:	20296328 	eorcs	r6, r9, r8, lsr #6
    69c8:	5f5f0063 	svcpl	0x005f0063
    69cc:	495f4144 	ldmdbmi	pc, {r2, r6, r8, lr}^	; <UNPREDICTABLE>
    69d0:	5f544942 	svcpl	0x00544942
    69d4:	3233205f 	eorscc	r2, r3, #95	; 0x5f
    69d8:	735f5f00 	cmpvc	pc, #0, 30
    69dc:	74667274 	strbtvc	r7, [r6], #-628	; 0xfffffd8c
    69e0:	6c656d69 	stclvs	13, cr6, [r5], #-420	; 0xfffffe5c
    69e4:	28656b69 	stmdacs	r5!, {r0, r3, r5, r6, r8, r9, fp, sp, lr}^
    69e8:	61746d66 	cmnvs	r4, r6, ror #26
    69ec:	662c6772 			; <UNDEFINED> instruction: 0x662c6772
    69f0:	74737269 	ldrbtvc	r7, [r3], #-617	; 0xfffffd97
    69f4:	61726176 	cmnvs	r2, r6, ror r1
    69f8:	20296772 	eorcs	r6, r9, r2, ror r7
    69fc:	74615f5f 	strbtvc	r5, [r1], #-3935	; 0xfffff0a1
    6a00:	62697274 	rsbvs	r7, r9, #116, 4	; 0x40000007
    6a04:	5f657475 	svcpl	0x00657475
    6a08:	5f28285f 	svcpl	0x0028285f
    6a0c:	726f665f 	rsbvc	r6, pc, #99614720	; 0x5f00000
    6a10:	5f74616d 	svcpl	0x0074616d
    6a14:	5f28205f 	svcpl	0x0028205f
    6a18:	7274735f 	rsbsvc	r7, r4, #2080374785	; 0x7c000001
    6a1c:	6d697466 	cfstrdvs	mvd7, [r9, #-408]!	; 0xfffffe68
    6a20:	2c5f5f65 	mrrccs	15, 6, r5, pc, cr5	; <UNPREDICTABLE>
    6a24:	746d6620 	strbtvc	r6, [sp], #-1568	; 0xfffff9e0
    6a28:	2c677261 	sfmcs	f7, 2, [r7], #-388	; 0xfffffe7c
    6a2c:	72696620 	rsbvc	r6, r9, #32, 12	; 0x2000000
    6a30:	61767473 	cmnvs	r6, r3, ror r4
    6a34:	67726172 			; <UNDEFINED> instruction: 0x67726172
    6a38:	00292929 	eoreq	r2, r9, r9, lsr #18
    6a3c:	52415f5f 	subpl	r5, r1, #380	; 0x17c
    6a40:	45465f4d 	strbmi	r5, [r6, #-3917]	; 0xfffff0b3
    6a44:	52555441 	subspl	r5, r5, #1090519040	; 0x41000000
    6a48:	48535f45 	ldmdami	r3, {r0, r2, r6, r8, r9, sl, fp, ip, lr}^
    6a4c:	5f003241 	svcpl	0x00003241
    6a50:	5145445f 	cmppl	r5, pc, asr r4
    6a54:	494c4155 	stmdbmi	ip, {r0, r2, r4, r6, r8, lr}^
    6a58:	74285946 	strtvc	r5, [r8], #-2374	; 0xfffff6ba
    6a5c:	2c657079 	stclcs	0, cr7, [r5], #-484	; 0xfffffe1c
    6a60:	29726176 	ldmdbcs	r2!, {r1, r2, r4, r5, r6, r8, sp, lr}^
    6a64:	74282820 	strtvc	r2, [r8], #-2080	; 0xfffff7e0
    6a68:	29657079 	stmdbcs	r5!, {r0, r3, r4, r5, r6, ip, sp, lr}^
    6a6c:	755f5f28 	ldrbvc	r5, [pc, #-3880]	; 5b4c <_Min_Stack_Size+0x574c>
    6a70:	70746e69 	rsbsvc	r6, r4, r9, ror #28
    6a74:	745f7274 	ldrbvc	r7, [pc], #-628	; 6a7c <_Min_Stack_Size+0x667c>
    6a78:	6f632829 	svcvs	0x00632829
    6a7c:	2074736e 	rsbscs	r7, r4, lr, ror #6
    6a80:	616c6f76 	smcvs	50934	; 0xc6f6
    6a84:	656c6974 	strbvs	r6, [ip, #-2420]!	; 0xfffff68c
    6a88:	696f7620 	stmdbvs	pc!, {r5, r9, sl, ip, sp, lr}^	; <UNPREDICTABLE>
    6a8c:	292a2064 	stmdbcs	sl!, {r2, r5, r6, sp}
    6a90:	72617628 	rsbvc	r7, r1, #40, 12	; 0x2800000
    6a94:	5f002929 	svcpl	0x00002929
    6a98:	636f6c5f 	cmnvs	pc, #24320	; 0x5f00
    6a9c:	6e695f6b 	cdpvs	15, 6, cr5, cr9, cr11, {3}
    6aa0:	725f7469 	subsvc	r7, pc, #1761607680	; 0x69000000
    6aa4:	72756365 	rsbsvc	r6, r5, #-1811939327	; 0x94000001
    6aa8:	65766973 	ldrbvs	r6, [r6, #-2419]!	; 0xfffff68d
    6aac:	636f6c28 	cmnvs	pc, #40, 24	; 0x2800
    6ab0:	5f20296b 	svcpl	0x0020296b
    6ab4:	7465725f 	strbtvc	r7, [r5], #-607	; 0xfffffda1
    6ab8:	65677261 	strbvs	r7, [r7, #-609]!	; 0xfffffd9f
    6abc:	6f6c5f74 	svcvs	0x006c5f74
    6ac0:	695f6b63 	ldmdbvs	pc, {r0, r1, r5, r6, r8, r9, fp, sp, lr}^	; <UNPREDICTABLE>
    6ac4:	5f74696e 	svcpl	0x0074696e
    6ac8:	75636572 	strbvc	r6, [r3, #-1394]!	; 0xfffffa8e
    6acc:	76697372 			; <UNDEFINED> instruction: 0x76697372
    6ad0:	6c262865 	stcvs	8, cr2, [r6], #-404	; 0xfffffe6c
    6ad4:	296b636f 	stmdbcs	fp!, {r0, r1, r2, r3, r5, r6, r8, r9, sp, lr}^
    6ad8:	415f5f00 	cmpmi	pc, r0, lsl #30
    6adc:	494d4f54 	stmdbmi	sp, {r2, r4, r6, r8, r9, sl, fp, lr}^
    6ae0:	43415f43 	movtmi	r5, #8003	; 0x1f43
    6ae4:	45525f51 	ldrbmi	r5, [r2, #-3921]	; 0xfffff0af
    6ae8:	0034204c 	eorseq	r2, r4, ip, asr #32
    6aec:	51485f5f 	cmppl	r8, pc, asr pc
    6af0:	4942495f 	stmdbmi	r2, {r0, r1, r2, r3, r4, r6, r8, fp, lr}^
    6af4:	205f5f54 	subscs	r5, pc, r4, asr pc	; <UNPREDICTABLE>
    6af8:	5f5f0030 	svcpl	0x005f0030
    6afc:	6b636170 	blvs	18df0c4 <_Min_Stack_Size+0x18decc4>
    6b00:	5f206465 	svcpl	0x00206465
    6b04:	7474615f 	ldrbtvc	r6, [r4], #-351	; 0xfffffea1
    6b08:	75626972 	strbvc	r6, [r2, #-2418]!	; 0xfffff68e
    6b0c:	5f5f6574 	svcpl	0x005f6574
    6b10:	5f5f2828 	svcpl	0x005f2828
    6b14:	6b636170 	blvs	18df0dc <_Min_Stack_Size+0x18decdc>
    6b18:	5f5f6465 	svcpl	0x005f6465
    6b1c:	5f002929 	svcpl	0x00002929
    6b20:	4c42445f 	cfstrdmi	mvd4, [r2], {95}	; 0x5f
    6b24:	4e494d5f 	mcrmi	13, 2, r4, cr9, cr15, {2}
    6b28:	5f30315f 	svcpl	0x0030315f
    6b2c:	5f505845 	svcpl	0x00505845
    6b30:	2d28205f 	stccs	0, cr2, [r8, #-380]!	; 0xfffffe84
    6b34:	29373033 	ldmdbcs	r7!, {r0, r1, r4, r5, ip, sp}
    6b38:	64747300 	ldrbtvs	r7, [r4], #-768	; 0xfffffd00
    6b3c:	2074756f 	rsbscs	r7, r4, pc, ror #10
    6b40:	4545525f 	strbmi	r5, [r5, #-607]	; 0xfffffda1
    6b44:	535f544e 	cmppl	pc, #1308622848	; 0x4e000000
    6b48:	554f4454 	strbpl	r4, [pc, #-1108]	; 66fc <_Min_Stack_Size+0x62fc>
    6b4c:	525f2854 	subspl	r2, pc, #84, 16	; 0x540000
    6b50:	544e4545 	strbpl	r4, [lr], #-1349	; 0xfffffabb
    6b54:	5f5f0029 	svcpl	0x005f0029
    6b58:	65737361 	ldrbvs	r7, [r3, #-865]!	; 0xfffffc9f
    6b5c:	5f737472 	svcpl	0x00737472
    6b60:	72616873 	rsbvc	r6, r1, #7536640	; 0x730000
    6b64:	2e286465 	cdpcs	4, 2, cr6, cr8, cr5, {3}
    6b68:	20292e2e 	eorcs	r2, r9, lr, lsr #28
    6b6c:	6f6c5f5f 	svcvs	0x006c5f5f
    6b70:	615f6b63 	cmpvs	pc, r3, ror #22
    6b74:	746f6e6e 	strbtvc	r6, [pc], #-3694	; 6b7c <_Min_Stack_Size+0x677c>
    6b78:	28657461 	stmdacs	r5!, {r0, r5, r6, sl, ip, sp, lr}^
    6b7c:	65737361 	ldrbvs	r7, [r3, #-865]!	; 0xfffffc9f
    6b80:	735f7472 	cmpvc	pc, #1912602624	; 0x72000000
    6b84:	65726168 	ldrbvs	r6, [r2, #-360]!	; 0xfffffe98
    6b88:	6f6c5f64 	svcvs	0x006c5f64
    6b8c:	5f286b63 	svcpl	0x00286b63
    6b90:	5f41565f 	svcpl	0x0041565f
    6b94:	53475241 	movtpl	r5, #29249	; 0x7241
    6b98:	29295f5f 	stmdbcs	r9!, {r0, r1, r2, r3, r4, r6, r8, r9, sl, fp, ip, lr}
    6b9c:	535f5f00 	cmppl	pc, #0, 30
    6ba0:	4c5f5359 	mrrcmi	3, 5, r5, pc, cr9	; <UNPREDICTABLE>
    6ba4:	5f4b434f 	svcpl	0x004b434f
    6ba8:	205f5f48 	subscs	r5, pc, r8, asr #30
    6bac:	414e5f00 	cmpmi	lr, r0, lsl #30
    6bb0:	465f4f4e 	ldrbmi	r4, [pc], -lr, asr #30
    6bb4:	414d524f 	cmpmi	sp, pc, asr #4
    6bb8:	44455454 	strbmi	r5, [r5], #-1108	; 0xfffffbac
    6bbc:	204f495f 	subcs	r4, pc, pc, asr r9	; <UNPREDICTABLE>
    6bc0:	5f5f0031 	svcpl	0x005f0031
    6bc4:	33544c46 	cmpcc	r4, #17920	; 0x4600
    6bc8:	4f4e5f32 	svcmi	0x004e5f32
    6bcc:	4d5f4d52 	ldclmi	13, cr4, [pc, #-328]	; 6a8c <_Min_Stack_Size+0x668c>
    6bd0:	5f5f5841 	svcpl	0x005f5841
    6bd4:	342e3320 	strtcc	r3, [lr], #-800	; 0xfffffce0
    6bd8:	32383230 	eorscc	r3, r8, #48, 4
    6bdc:	36363433 			; <UNDEFINED> instruction: 0x36363433
    6be0:	32353833 	eorscc	r3, r5, #3342336	; 0x330000
    6be4:	65363838 	ldrvs	r3, [r6, #-2104]!	; 0xfffff7c8
    6be8:	4638332b 	ldrtmi	r3, [r8], -fp, lsr #6
    6bec:	5f003233 	svcpl	0x00003233
    6bf0:	4e454552 	mcrmi	5, 2, r4, cr5, cr2, {2}
    6bf4:	53415f54 	movtpl	r5, #8020	; 0x1f54
    6bf8:	4d495443 	cfstrdmi	mvd5, [r9, #-268]	; 0xfffffef4
    6bfc:	49535f45 	ldmdbmi	r3, {r0, r2, r6, r8, r9, sl, fp, ip, lr}^
    6c00:	3220455a 	eorcc	r4, r0, #377487360	; 0x16800000
    6c04:	505f0036 	subspl	r0, pc, r6, lsr r0	; <UNPREDICTABLE>
    6c08:	5849534f 	stmdapl	r9, {r0, r1, r2, r3, r6, r8, r9, ip, lr}^
    6c0c:	535f435f 	cmppl	pc, #2080374785	; 0x7c000001
    6c10:	4352554f 	cmpmi	r2, #331350016	; 0x13c00000
    6c14:	5f5f0045 	svcpl	0x005f0045
    6c18:	544e4955 	strbpl	r4, [lr], #-2389	; 0xfffff6ab
    6c1c:	5f58414d 	svcpl	0x0058414d
    6c20:	5f58414d 	svcpl	0x0058414d
    6c24:	7830205f 	ldmdavc	r0!, {r0, r1, r2, r3, r4, r6, sp}
    6c28:	66666666 	strbtvs	r6, [r6], -r6, ror #12
    6c2c:	66666666 	strbtvs	r6, [r6], -r6, ror #12
    6c30:	66666666 	strbtvs	r6, [r6], -r6, ror #12
    6c34:	66666666 	strbtvs	r6, [r6], -r6, ror #12
    6c38:	004c4c55 	subeq	r4, ip, r5, asr ip
    6c3c:	42445f5f 	submi	r5, r4, #380	; 0x17c
    6c40:	414d5f4c 	cmpmi	sp, ip, asr #30
    6c44:	445f544e 	ldrbmi	r5, [pc], #-1102	; 6c4c <_Min_Stack_Size+0x684c>
    6c48:	5f5f4749 	svcpl	0x005f4749
    6c4c:	00333520 	eorseq	r3, r3, r0, lsr #10
    6c50:	4c555f5f 	mrrcmi	15, 5, r5, r5, cr15	; <UNPREDICTABLE>
    6c54:	43415246 	movtmi	r5, #4678	; 0x1246
    6c58:	42495f54 	submi	r5, r9, #84, 30	; 0x150
    6c5c:	5f5f5449 	svcpl	0x005f5449
    6c60:	5f003020 	svcpl	0x00003020
    6c64:	736f6e5f 	cmnvc	pc, #1520	; 0x5f0
    6c68:	74696e61 	strbtvc	r6, [r9], #-3681	; 0xfffff19f
    6c6c:	74657a69 	strbtvc	r7, [r5], #-2665	; 0xfffff597
    6c70:	61657268 	cmnvs	r5, r8, ror #4
    6c74:	5f002064 	svcpl	0x00002064
    6c78:	544e495f 	strbpl	r4, [lr], #-2399	; 0xfffff6a1
    6c7c:	58414d5f 	stmdapl	r1, {r0, r1, r2, r3, r4, r6, r8, sl, fp, lr}^
    6c80:	30205f5f 	eorcc	r5, r0, pc, asr pc
    6c84:	66663778 			; <UNDEFINED> instruction: 0x66663778
    6c88:	66666666 	strbtvs	r6, [r6], -r6, ror #12
    6c8c:	5f5f0066 	svcpl	0x005f0066
    6c90:	5f544e49 	svcpl	0x00544e49
    6c94:	5341454c 	movtpl	r4, #5452	; 0x154c
    6c98:	5f343654 	svcpl	0x00343654
    6c9c:	45505954 	ldrbmi	r5, [r0, #-2388]	; 0xfffff6ac
    6ca0:	6c205f5f 	stcvs	15, cr5, [r0], #-380	; 0xfffffe84
    6ca4:	20676e6f 	rsbcs	r6, r7, pc, ror #28
    6ca8:	676e6f6c 	strbvs	r6, [lr, -ip, ror #30]!
    6cac:	746e6920 	strbtvc	r6, [lr], #-2336	; 0xfffff6e0
    6cb0:	415f5f00 	cmpmi	pc, r0, lsl #30
    6cb4:	465f4d52 			; <UNDEFINED> instruction: 0x465f4d52
    6cb8:	55544145 	ldrbpl	r4, [r4, #-325]	; 0xfffffebb
    6cbc:	435f4552 	cmpmi	pc, #343932928	; 0x14800000
    6cc0:	435f4544 	cmpmi	pc, #68, 10	; 0x11000000
    6cc4:	4f52504f 	svcmi	0x0052504f
    6cc8:	49530043 	ldmdbmi	r3, {r0, r1, r6}^
    6ccc:	4c4c4947 	mcrrmi	9, 4, r4, ip, cr7	; <UNPREDICTABLE>
    6cd0:	5f003420 	svcpl	0x00003420
    6cd4:	746e695f 	strbtvc	r6, [lr], #-2399	; 0xfffff6a1
    6cd8:	2b203032 	blcs	812da8 <_Min_Stack_Size+0x8129a8>
    6cdc:	505f0032 	subspl	r0, pc, r2, lsr r0	; <UNPREDICTABLE>
    6ce0:	45524854 	ldrbmi	r4, [r2, #-2132]	; 0xfffff7ac
    6ce4:	4f5f4441 	svcmi	0x005f4441
    6ce8:	5f45434e 	svcpl	0x0045434e
    6cec:	54494e49 	strbpl	r4, [r9], #-3657	; 0xfffff1b7
    6cf0:	31207b20 			; <UNDEFINED> instruction: 0x31207b20
    6cf4:	2030202c 	eorscs	r2, r0, ip, lsr #32
    6cf8:	775f007d 			; <UNDEFINED> instruction: 0x775f007d
    6cfc:	00746961 	rsbseq	r6, r4, r1, ror #18
    6d00:	635f7473 	cmpvs	pc, #1929379840	; 0x73000000
    6d04:	006d6974 	rsbeq	r6, sp, r4, ror r9
    6d08:	4d414e45 	stclmi	14, cr4, [r1, #-276]	; 0xfffffeec
    6d0c:	4f4f5445 	svcmi	0x004f5445
    6d10:	474e4f4c 	strbmi	r4, [lr, -ip, asr #30]
    6d14:	00313920 	eorseq	r3, r1, r0, lsr #18
    6d18:	4e49555f 	mcrmi	5, 2, r5, cr9, cr15, {2}
    6d1c:	5f323354 	svcpl	0x00323354
    6d20:	45445f54 	strbmi	r5, [r4, #-3924]	; 0xfffff0ac
    6d24:	52414c43 	subpl	r4, r1, #17152	; 0x4300
    6d28:	00204445 	eoreq	r4, r0, r5, asr #8
    6d2c:	625f7473 	subsvs	r7, pc, #1929379840	; 0x73000000
    6d30:	69736b6c 	ldmdbvs	r3!, {r2, r3, r5, r6, r8, r9, fp, sp, lr}^
    6d34:	7300657a 	movwvc	r6, #1402	; 0x57a
    6d38:	6c625f74 	stclvs	15, cr5, [r2], #-464	; 0xfffffe30
    6d3c:	736b636f 	cmnvc	fp, #-1140850687	; 0xbc000001
    6d40:	48545000 	ldmdami	r4, {ip, lr}^
    6d44:	44414552 	strbmi	r4, [r1], #-1362	; 0xfffffaae
    6d48:	484e495f 	stmdami	lr, {r0, r1, r2, r3, r4, r6, r8, fp, lr}^
    6d4c:	54495245 	strbpl	r5, [r9], #-581	; 0xfffffdbb
    6d50:	4843535f 	stmdami	r3, {r0, r1, r2, r3, r4, r6, r8, r9, ip, lr}^
    6d54:	31204445 			; <UNDEFINED> instruction: 0x31204445
    6d58:	6e696200 	cdpvs	2, 6, cr6, cr9, cr0, {0}
    6d5c:	656d6974 	strbvs	r6, [sp, #-2420]!	; 0xfffff68c
    6d60:	7373695f 	cmnvc	r3, #1556480	; 0x17c000
    6d64:	61287465 			; <UNDEFINED> instruction: 0x61287465
    6d68:	28282029 	stmdacs	r8!, {r0, r3, r5, sp}
    6d6c:	3e2d2961 	vnmulcc.f16	s4, s26, s3	; <UNPREDICTABLE>
    6d70:	20636573 	rsbcs	r6, r3, r3, ror r5
    6d74:	28207c7c 	stmdacs	r0!, {r2, r3, r4, r5, r6, sl, fp, ip, sp, lr}
    6d78:	3e2d2961 	vnmulcc.f16	s4, s26, s3	; <UNPREDICTABLE>
    6d7c:	63617266 	cmnvs	r1, #1610612742	; 0x60000006
    6d80:	775f0029 	ldrbvc	r0, [pc, -r9, lsr #32]
    6d84:	65746972 	ldrbvs	r6, [r4, #-2418]!	; 0xfffff68e
    6d88:	6d697400 	cfstrdvs	mvd7, [r9, #-0]
    6d8c:	6c637265 	sfmvs	f7, 2, [r3], #-404	; 0xfffffe6c
    6d90:	28726165 	ldmdacs	r2!, {r0, r2, r5, r6, r8, sp, lr}^
    6d94:	29707674 	ldmdbcs	r0!, {r2, r4, r5, r6, r9, sl, ip, sp, lr}^
    6d98:	74282820 	strtvc	r2, [r8], #-2080	; 0xfffff7e0
    6d9c:	2d297076 	stccs	0, cr7, [r9, #-472]!	; 0xfffffe28
    6da0:	5f76743e 	svcpl	0x0076743e
    6da4:	20636573 	rsbcs	r6, r3, r3, ror r5
    6da8:	7428203d 	strtvc	r2, [r8], #-61	; 0xffffffc3
    6dac:	2d297076 	stccs	0, cr7, [r9, #-472]!	; 0xfffffe28
    6db0:	5f76743e 	svcpl	0x0076743e
    6db4:	63657375 	cmnvs	r5, #-738197503	; 0xd4000001
    6db8:	30203d20 	eorcc	r3, r0, r0, lsr #26
    6dbc:	44450029 	strbmi	r0, [r5], #-41	; 0xffffffd7
    6dc0:	544f5551 	strbpl	r5, [pc], #-1361	; 6dc8 <_Min_Stack_Size+0x69c8>
    6dc4:	32333120 	eorscc	r3, r3, #32, 2
    6dc8:	5f747300 	svcpl	0x00747300
    6dcc:	6d697461 	cfstrdvs	mvd7, [r9, #-388]!	; 0xfffffe7c
    6dd0:	74732065 	ldrbtvc	r2, [r3], #-101	; 0xffffff9b
    6dd4:	6974615f 	ldmdbvs	r4!, {r0, r1, r2, r3, r4, r6, r8, sp, lr}^
    6dd8:	76742e6d 	ldrbtvc	r2, [r4], -sp, ror #28
    6ddc:	6365735f 	cmnvs	r5, #2080374785	; 0x7c000001
    6de0:	454e4500 	strbmi	r4, [lr, #-1280]	; 0xfffffb00
    6de4:	574f4454 	smlsldpl	r4, pc, r4, r4	; <UNPREDICTABLE>
    6de8:	3131204e 	teqcc	r1, lr, asr #32
    6dec:	53440035 	movtpl	r0, #16437	; 0x4035
    6df0:	55415f54 	strbpl	r5, [r1, #-3924]	; 0xfffff0ac
    6df4:	32205453 	eorcc	r5, r0, #1392508928	; 0x53000000
    6df8:	74617000 	strbtvc	r7, [r1], #-0
    6dfc:	49530068 	ldmdbmi	r3, {r3, r5, r6}^
    6e00:	46445f47 	strbmi	r5, [r4], -r7, asr #30
    6e04:	2828204c 	stmdacs	r8!, {r2, r3, r6, sp}
    6e08:	6769735f 			; <UNDEFINED> instruction: 0x6769735f
    6e0c:	6e75665f 	mrcvs	6, 3, r6, cr5, cr15, {2}
    6e10:	74705f63 	ldrbtvc	r5, [r0], #-3939	; 0xfffff09d
    6e14:	29302972 	ldmdbcs	r0!, {r1, r4, r5, r6, r8, fp, sp}
    6e18:	495f5300 	ldmdbmi	pc, {r8, r9, ip, lr}^	; <UNPREDICTABLE>
    6e1c:	20544d46 	subscs	r4, r4, r6, asr #26
    6e20:	4d46495f 	vstrmi.16	s9, [r6, #-190]	; 0xffffff42	; <UNPREDICTABLE>
    6e24:	52450054 	subpl	r0, r5, #84	; 0x54
    6e28:	2053464f 	subscs	r4, r3, pc, asr #12
    6e2c:	74003033 	strvc	r3, [r0], #-51	; 0xffffffcd
    6e30:	635f736d 	cmpvs	pc, #-1275068415	; 0xb4000001
    6e34:	6d697475 	cfstrdvs	mvd7, [r9, #-468]!	; 0xfffffe2c
    6e38:	74730065 	ldrbtvc	r0, [r3], #-101	; 0xffffff9b
    6e3c:	69746d5f 	ldmdbvs	r4!, {r0, r1, r2, r3, r4, r6, r8, sl, fp, sp, lr}^
    6e40:	6974006d 	ldmdbvs	r4!, {r0, r2, r3, r5, r6}^
    6e44:	745f656d 	ldrbvc	r6, [pc], #-1389	; 6e4c <_Min_Stack_Size+0x6a4c>
    6e48:	6d697400 	cfstrdvs	mvd7, [r9, #-0]
    6e4c:	64617265 	strbtvs	r7, [r1], #-613	; 0xfffffd9b
    6e50:	76742864 	ldrbtvc	r2, [r4], -r4, ror #16
    6e54:	76752c70 			; <UNDEFINED> instruction: 0x76752c70
    6e58:	76762c70 			; <UNDEFINED> instruction: 0x76762c70
    6e5c:	64202970 	strtvs	r2, [r0], #-2416	; 0xfffff690
    6e60:	207b206f 	rsbscs	r2, fp, pc, rrx
    6e64:	70767628 	rsbsvc	r7, r6, r8, lsr #12
    6e68:	743e2d29 	ldrtvc	r2, [lr], #-3369	; 0xfffff2d7
    6e6c:	65735f76 	ldrbvs	r5, [r3, #-3958]!	; 0xfffff08a
    6e70:	203d2063 	eorscs	r2, sp, r3, rrx
    6e74:	70767428 	rsbsvc	r7, r6, r8, lsr #8
    6e78:	743e2d29 	ldrtvc	r2, [lr], #-3369	; 0xfffff2d7
    6e7c:	65735f76 	ldrbvs	r5, [r3, #-3958]!	; 0xfffff08a
    6e80:	202b2063 	eorcs	r2, fp, r3, rrx
    6e84:	70767528 	rsbsvc	r7, r6, r8, lsr #10
    6e88:	743e2d29 	ldrtvc	r2, [lr], #-3369	; 0xfffff2d7
    6e8c:	65735f76 	ldrbvs	r5, [r3, #-3958]!	; 0xfffff08a
    6e90:	28203b63 	stmdacs	r0!, {r0, r1, r5, r6, r8, r9, fp, ip, sp}
    6e94:	29707676 	ldmdbcs	r0!, {r1, r2, r4, r5, r6, r9, sl, ip, sp, lr}^
    6e98:	76743e2d 	ldrbtvc	r3, [r4], -sp, lsr #28
    6e9c:	6573755f 	ldrbvs	r7, [r3, #-1375]!	; 0xfffffaa1
    6ea0:	203d2063 	eorscs	r2, sp, r3, rrx
    6ea4:	70767428 	rsbsvc	r7, r6, r8, lsr #8
    6ea8:	743e2d29 	ldrtvc	r2, [lr], #-3369	; 0xfffff2d7
    6eac:	73755f76 	cmnvc	r5, #472	; 0x1d8
    6eb0:	2b206365 	blcs	81fc4c <_Min_Stack_Size+0x81f84c>
    6eb4:	76752820 	ldrbtvc	r2, [r5], -r0, lsr #16
    6eb8:	3e2d2970 			; <UNDEFINED> instruction: 0x3e2d2970
    6ebc:	755f7674 	ldrbvc	r7, [pc, #-1652]	; 6850 <_Min_Stack_Size+0x6450>
    6ec0:	3b636573 	blcc	18e0494 <_Min_Stack_Size+0x18e0094>
    6ec4:	20666920 	rsbcs	r6, r6, r0, lsr #18
    6ec8:	76762828 	ldrbtvc	r2, [r6], -r8, lsr #16
    6ecc:	3e2d2970 			; <UNDEFINED> instruction: 0x3e2d2970
    6ed0:	755f7674 	ldrbvc	r7, [pc, #-1652]	; 6864 <_Min_Stack_Size+0x6464>
    6ed4:	20636573 	rsbcs	r6, r3, r3, ror r5
    6ed8:	31203d3e 			; <UNDEFINED> instruction: 0x31203d3e
    6edc:	30303030 	eorscc	r3, r0, r0, lsr r0
    6ee0:	20293030 	eorcs	r3, r9, r0, lsr r0
    6ee4:	7628207b 			; <UNDEFINED> instruction: 0x7628207b
    6ee8:	2d297076 	stccs	0, cr7, [r9, #-472]!	; 0xfffffe28
    6eec:	5f76743e 	svcpl	0x0076743e
    6ef0:	2b636573 	blcs	18e04c4 <_Min_Stack_Size+0x18e00c4>
    6ef4:	28203b2b 	stmdacs	r0!, {r0, r1, r3, r5, r8, r9, fp, ip, sp}
    6ef8:	29707676 	ldmdbcs	r0!, {r1, r2, r4, r5, r6, r9, sl, ip, sp, lr}^
    6efc:	76743e2d 	ldrbtvc	r3, [r4], -sp, lsr #28
    6f00:	6573755f 	ldrbvs	r7, [r3, #-1375]!	; 0xfffffaa1
    6f04:	3d2d2063 	stccc	0, cr2, [sp, #-396]!	; 0xfffffe74
    6f08:	30303120 	eorscc	r3, r0, r0, lsr #2
    6f0c:	30303030 	eorscc	r3, r0, r0, lsr r0
    6f10:	207d203b 	rsbscs	r2, sp, fp, lsr r0
    6f14:	6877207d 	ldmdavs	r7!, {r0, r2, r3, r4, r5, r6, sp}^
    6f18:	20656c69 	rsbcs	r6, r5, r9, ror #24
    6f1c:	00293028 	eoreq	r3, r9, r8, lsr #32
    6f20:	53495f53 	movtpl	r5, #40787	; 0x9f53
    6f24:	28524843 	ldmdacs	r2, {r0, r1, r6, fp, lr}^
    6f28:	2820296d 	stmdacs	r0!, {r0, r2, r3, r5, r6, r8, fp, sp}
    6f2c:	296d2828 	stmdbcs	sp!, {r3, r5, fp, sp}^
    6f30:	46495f26 	strbmi	r5, [r9], -r6, lsr #30
    6f34:	2029544d 	eorcs	r5, r9, sp, asr #8
    6f38:	5f203d3d 	svcpl	0x00203d3d
    6f3c:	48434649 	stmdami	r3, {r0, r3, r6, r9, sl, lr}^
    6f40:	45002952 	strmi	r2, [r0, #-2386]	; 0xfffff6ae
    6f44:	52504e49 	subspl	r4, r0, #1168	; 0x490
    6f48:	4552474f 	ldrbmi	r4, [r2, #-1871]	; 0xfffff8b1
    6f4c:	31205353 			; <UNDEFINED> instruction: 0x31205353
    6f50:	53003931 	movwpl	r3, #2353	; 0x931
    6f54:	55424749 	strbpl	r4, [r2, #-1865]	; 0xfffff8b7
    6f58:	30312053 	eorscc	r2, r1, r3, asr r0
    6f5c:	46504500 	ldrbmi	r4, [r0], -r0, lsl #10
    6f60:	55534f4e 	ldrbpl	r4, [r3, #-3918]	; 0xfffff0b2
    6f64:	524f5050 	subpl	r5, pc, #80	; 0x50
    6f68:	36392054 			; <UNDEFINED> instruction: 0x36392054
    6f6c:	48434500 	stmdami	r3, {r8, sl, lr}^
    6f70:	20444c49 	subcs	r4, r4, r9, asr #24
    6f74:	73003031 	movwvc	r3, #49	; 0x31
    6f78:	69666769 	stmdbvs	r6!, {r0, r3, r5, r6, r8, r9, sl, sp, lr}^
    6f7c:	65736c6c 	ldrbvs	r6, [r3, #-3180]!	; 0xfffff394
    6f80:	68772874 	ldmdavs	r7!, {r2, r4, r5, r6, fp, sp}^
    6f84:	20297461 	eorcs	r7, r9, r1, ror #8
    6f88:	77282a28 	strvc	r2, [r8, -r8, lsr #20]!
    6f8c:	29746168 	ldmdbcs	r4!, {r3, r5, r6, r8, sp, lr}^
    6f90:	7e203d20 	cdpvc	13, 2, cr3, cr0, cr0, {1}
    6f94:	2c293028 	stccs	0, cr3, [r9], #-160	; 0xffffff60
    6f98:	00293020 	eoreq	r3, r9, r0, lsr #32
    6f9c:	4d49545f 	cfstrdmi	mvd5, [r9, #-380]	; 0xfffffe84
    6fa0:	545f5245 	ldrbpl	r5, [pc], #-581	; 6fa8 <_Min_Stack_Size+0x6ba8>
    6fa4:	4345445f 	movtmi	r4, #21599	; 0x545f
    6fa8:	4552414c 	ldrbmi	r4, [r2, #-332]	; 0xfffffeb4
    6fac:	53002044 	movwpl	r2, #68	; 0x44
    6fb0:	4f494749 	svcmi	0x00494749
    6fb4:	00362054 	eorseq	r2, r6, r4, asr r0
    6fb8:	49425f5f 	stmdbmi	r2, {r0, r1, r2, r3, r4, r6, r8, r9, sl, fp, ip, lr}^
    6fbc:	59545f54 	ldmdbpl	r4, {r2, r4, r6, r8, r9, sl, fp, ip, lr}^
    6fc0:	5f534550 	svcpl	0x00534550
    6fc4:	49464544 	stmdbmi	r6, {r2, r6, r8, sl, lr}^
    6fc8:	5f44454e 	svcpl	0x0044454e
    6fcc:	0031205f 	eorseq	r2, r1, pc, asr r0
    6fd0:	38544e49 	ldmdacc	r4, {r0, r3, r6, r9, sl, fp, lr}^
    6fd4:	58414d5f 	stmdapl	r1, {r0, r1, r2, r3, r4, r6, r8, sl, fp, lr}^
    6fd8:	5f5f2820 	svcpl	0x005f2820
    6fdc:	38544e49 	ldmdacc	r4, {r0, r3, r6, r9, sl, fp, lr}^
    6fe0:	58414d5f 	stmdapl	r1, {r0, r1, r2, r3, r4, r6, r8, sl, fp, lr}^
    6fe4:	00295f5f 	eoreq	r5, r9, pc, asr pc
    6fe8:	515f4953 	cmppl	pc, r3, asr r9	; <UNPREDICTABLE>
    6fec:	45554555 	ldrbmi	r4, [r5, #-1365]	; 0xfffffaab
    6ff0:	50003220 	andpl	r3, r0, r0, lsr #4
    6ff4:	49445254 	stmdbmi	r4, {r2, r4, r6, r9, ip, lr}^
    6ff8:	4d5f4646 	ldclmi	6, cr4, [pc, #-280]	; 6ee8 <_Min_Stack_Size+0x6ae8>
    6ffc:	28205841 	stmdacs	r0!, {r0, r6, fp, ip, lr}
    7000:	54505f5f 	ldrbpl	r5, [r0], #-3935	; 0xfffff0a1
    7004:	46494452 			; <UNDEFINED> instruction: 0x46494452
    7008:	414d5f46 	cmpmi	sp, r6, asr #30
    700c:	295f5f58 	ldmdbcs	pc, {r3, r4, r6, r8, r9, sl, fp, ip, lr}^	; <UNPREDICTABLE>
    7010:	53494500 	movtpl	r4, #38144	; 0x9500
    7014:	4e4e4f43 	cdpmi	15, 4, cr4, cr14, cr3, {2}
    7018:	37323120 	ldrcc	r3, [r2, -r0, lsr #2]!
    701c:	4c4e5f00 	mcrrmi	15, 0, r5, lr, cr0
    7020:	5f4b4e49 	svcpl	0x004b4e49
    7024:	45445f54 	strbmi	r5, [r4, #-3924]	; 0xfffff0ac
    7028:	52414c43 	subpl	r4, r1, #17152	; 0x4300
    702c:	00204445 	eoreq	r4, r0, r5, asr #8
    7030:	746e6962 	strbtvc	r6, [lr], #-2402	; 0xfffff69e
    7034:	5f656d69 	svcpl	0x00656d69
    7038:	28706d63 	ldmdacs	r0!, {r0, r1, r5, r6, r8, sl, fp, sp, lr}^
    703c:	2c622c61 	stclcs	12, cr2, [r2], #-388	; 0xfffffe7c
    7040:	29706d63 	ldmdbcs	r0!, {r0, r1, r5, r6, r8, sl, fp, sp, lr}^
    7044:	28282820 	stmdacs	r8!, {r5, fp, sp}
    7048:	3e2d2961 	vnmulcc.f16	s4, s26, s3	; <UNPREDICTABLE>
    704c:	20636573 	rsbcs	r6, r3, r3, ror r5
    7050:	28203d3d 	stmdacs	r0!, {r0, r2, r3, r4, r5, r8, sl, fp, ip, sp}
    7054:	3e2d2962 	vnmulcc.f16	s4, s26, s5	; <UNPREDICTABLE>
    7058:	29636573 	stmdbcs	r3!, {r0, r1, r4, r5, r6, r8, sl, sp, lr}^
    705c:	28203f20 	stmdacs	r0!, {r5, r8, r9, sl, fp, ip, sp}
    7060:	2d296128 	stfcss	f6, [r9, #-160]!	; 0xffffff60
    7064:	6172663e 	cmnvs	r2, lr, lsr r6
    7068:	6d632063 	stclvs	0, cr2, [r3, #-396]!	; 0xfffffe74
    706c:	62282070 	eorvs	r2, r8, #112	; 0x70
    7070:	663e2d29 	ldrtvs	r2, [lr], -r9, lsr #26
    7074:	29636172 	stmdbcs	r3!, {r1, r4, r5, r6, r8, sp, lr}^
    7078:	28203a20 	stmdacs	r0!, {r5, r9, fp, ip, sp}
    707c:	2d296128 	stfcss	f6, [r9, #-160]!	; 0xffffff60
    7080:	6365733e 	cmnvs	r5, #-134217728	; 0xf8000000
    7084:	706d6320 	rsbvc	r6, sp, r0, lsr #6
    7088:	29622820 	stmdbcs	r2!, {r5, fp, sp}^
    708c:	65733e2d 	ldrbvs	r3, [r3, #-3629]!	; 0xfffff1d3
    7090:	00292963 	eoreq	r2, r9, r3, ror #18
    7094:	52444945 	subpl	r4, r4, #1130496	; 0x114000
    7098:	3633204d 	ldrtcc	r2, [r3], -sp, asr #32
    709c:	47495300 	strbmi	r5, [r9, -r0, lsl #6]
    70a0:	52545332 	subspl	r5, r4, #-939524096	; 0xc8000000
    70a4:	58414d5f 	stmdapl	r1, {r0, r1, r2, r3, r4, r6, r8, sl, fp, lr}^
    70a8:	00373120 	eorseq	r3, r7, r0, lsr #2
    70ac:	4e414345 	cdpmi	3, 4, cr4, cr1, cr5, {2}
    70b0:	454c4543 	strbmi	r4, [ip, #-1347]	; 0xfffffabd
    70b4:	34312044 	ldrtcc	r2, [r1], #-68	; 0xffffffbc
    70b8:	42530030 	subsmi	r0, r3, #48	; 0x30
    70bc:	414d5f54 	cmpmi	sp, r4, asr pc
    70c0:	78302058 	ldmdavc	r0!, {r3, r4, r6, sp}
    70c4:	66666637 			; <UNDEFINED> instruction: 0x66666637
    70c8:	66666666 	strbtvs	r6, [r6], -r6, ror #12
    70cc:	66666666 	strbtvs	r6, [r6], -r6, ror #12
    70d0:	66666666 	strbtvs	r6, [r6], -r6, ror #12
    70d4:	49004c4c 	stmdbmi	r0, {r2, r3, r6, sl, fp, lr}
    70d8:	3631544e 	ldrtcc	r5, [r1], -lr, asr #8
    70dc:	58414d5f 	stmdapl	r1, {r0, r1, r2, r3, r4, r6, r8, sl, fp, lr}^
    70e0:	5f5f2820 	svcpl	0x005f2820
    70e4:	31544e49 	cmpcc	r4, r9, asr #28
    70e8:	414d5f36 	cmpmi	sp, r6, lsr pc
    70ec:	295f5f58 	ldmdbcs	pc, {r3, r4, r6, r8, r9, sl, fp, ip, lr}^	; <UNPREDICTABLE>
    70f0:	4f4d5f00 	svcmi	0x004d5f00
    70f4:	545f4544 	ldrbpl	r4, [pc], #-1348	; 70fc <_Min_Stack_Size+0x6cfc>
    70f8:	4345445f 	movtmi	r4, #21599	; 0x545f
    70fc:	4552414c 	ldrbmi	r4, [r2, #-332]	; 0xfffffeb4
    7100:	53002044 	movwpl	r2, #68	; 0x44
    7104:	54544749 	ldrbpl	r4, [r4], #-1865	; 0xfffff8b7
    7108:	32204e49 	eorcc	r4, r0, #1168	; 0x490
    710c:	4e490031 	mcrmi	0, 2, r0, cr9, cr1, {1}
    7110:	41465f54 	cmpmi	r6, r4, asr pc
    7114:	34365453 	ldrtcc	r5, [r6], #-1107	; 0xfffffbad
    7118:	4e494d5f 	mcrmi	13, 2, r4, cr9, cr15, {2}
    711c:	5f2d2820 	svcpl	0x002d2820
    7120:	544e495f 	strbpl	r4, [lr], #-2399	; 0xfffff6a1
    7124:	5341465f 	movtpl	r4, #5727	; 0x165f
    7128:	5f343654 	svcpl	0x00343654
    712c:	5f58414d 	svcpl	0x0058414d
    7130:	202d205f 	eorcs	r2, sp, pc, asr r0
    7134:	5f002931 	svcpl	0x00002931
    7138:	746e695f 	strbtvc	r6, [lr], #-2399	; 0xfffff6a1
    713c:	7361665f 	cmnvc	r1, #99614720	; 0x5f00000
    7140:	5f323374 	svcpl	0x00323374
    7144:	65645f74 	strbvs	r5, [r4, #-3956]!	; 0xfffff08c
    7148:	656e6966 	strbvs	r6, [lr, #-2406]!	; 0xfffff69a
    714c:	00312064 	eorseq	r2, r1, r4, rrx
    7150:	5f4d5449 	svcpl	0x004d5449
    7154:	43415254 	movtmi	r5, #4692	; 0x1254
    7158:	4e455f45 	cdpmi	15, 4, cr5, cr5, cr5, {2}
    715c:	28282a20 	stmdacs	r8!, {r5, r9, fp, sp}
    7160:	616c6f76 	smcvs	50934	; 0xc6f6
    7164:	656c6974 	strbvs	r6, [ip, #-2420]!	; 0xfffff68c
    7168:	6e697520 	cdpvs	5, 6, cr7, cr9, cr0, {1}
    716c:	5f323374 	svcpl	0x00323374
    7170:	20292a74 	eorcs	r2, r9, r4, ror sl
    7174:	30457830 	subcc	r7, r5, r0, lsr r8
    7178:	45303030 	ldrmi	r3, [r0, #-48]!	; 0xffffffd0
    717c:	29203030 	stmdbcs	r0!, {r4, r5, ip, sp}
    7180:	544e4900 	strbpl	r4, [lr], #-2304	; 0xfffff700
    7184:	435f3631 	cmpmi	pc, #51380224	; 0x3100000
    7188:	20297828 	eorcs	r7, r9, r8, lsr #16
    718c:	4e495f5f 	mcrmi	15, 2, r5, cr9, cr15, {2}
    7190:	5f363154 	svcpl	0x00363154
    7194:	29782843 	ldmdbcs	r8!, {r0, r1, r6, fp, sp}^
    7198:	4f4e4500 	svcmi	0x004e4500
    719c:	43455845 	movtmi	r5, #22597	; 0x5845
    71a0:	45003820 	strmi	r3, [r0, #-2080]	; 0xfffff7e0
    71a4:	4d444142 	stfmie	f4, [r4, #-264]	; 0xfffffef8
    71a8:	37204753 			; <UNDEFINED> instruction: 0x37204753
    71ac:	5f530037 	svcpl	0x00530037
    71b0:	4f535349 	svcmi	0x00535349
    71b4:	6d284b43 	fstmdbxvs	r8!, {d4-d36}	;@ Deprecated
    71b8:	28282029 	stmdacs	r8!, {r0, r3, r5, sp}
    71bc:	26296d28 	strtcs	r6, [r9], -r8, lsr #26
    71c0:	4d46495f 	vstrmi.16	s9, [r6, #-190]	; 0xffffff42	; <UNPREDICTABLE>
    71c4:	3d202954 			; <UNDEFINED> instruction: 0x3d202954
    71c8:	495f203d 	ldmdbmi	pc, {r0, r2, r3, r4, r5, sp}^	; <UNPREDICTABLE>
    71cc:	434f5346 	movtmi	r5, #62278	; 0xf346
    71d0:	5f00294b 	svcpl	0x0000294b
    71d4:	544e4955 	strbpl	r4, [lr], #-2389	; 0xfffff6ab
    71d8:	545f3631 	ldrbpl	r3, [pc], #-1585	; 71e0 <_Min_Stack_Size+0x6de0>
    71dc:	4345445f 	movtmi	r4, #21599	; 0x545f
    71e0:	4552414c 	ldrbmi	r4, [r2, #-332]	; 0xfffffeb4
    71e4:	5f002044 	svcpl	0x00002044
    71e8:	5f59454b 	svcpl	0x0059454b
    71ec:	45445f54 	strbmi	r5, [r4, #-3924]	; 0xfffff0ac
    71f0:	52414c43 	subpl	r4, r1, #17152	; 0x4300
    71f4:	00204445 	eoreq	r4, r0, r5, asr #8
    71f8:	746e5f5f 	strbtvc	r5, [lr], #-3935	; 0xfffff0a1
    71fc:	286c686f 	stmdacs	ip!, {r0, r1, r2, r3, r5, r6, fp, sp, lr}^
    7200:	2029785f 	eorcs	r7, r9, pc, asr r8
    7204:	73625f5f 	cmnvc	r2, #380	; 0x17c
    7208:	33706177 	cmncc	r0, #-1073741795	; 0xc000001d
    720c:	785f2832 	ldmdavc	pc, {r1, r4, r5, fp, sp}^	; <UNPREDICTABLE>
    7210:	495f0029 	ldmdbmi	pc, {r0, r3, r5}^	; <UNPREDICTABLE>
    7214:	20544d46 	subscs	r4, r4, r6, asr #26
    7218:	30373130 	eorscc	r3, r7, r0, lsr r1
    721c:	00303030 	eorseq	r3, r0, r0, lsr r0
    7220:	434f4c43 	movtmi	r4, #64579	; 0xfc43
    7224:	4e455f4b 	cdpmi	15, 4, cr5, cr5, cr11, {2}
    7228:	454c4241 	strbmi	r4, [ip, #-577]	; 0xfffffdbf
    722c:	00312044 	eorseq	r2, r1, r4, asr #32
    7230:	64676973 	strbtvs	r6, [r7], #-2419	; 0xfffff68d
    7234:	65736c65 	ldrbvs	r6, [r3, #-3173]!	; 0xfffff39b
    7238:	68772874 	ldmdavs	r7!, {r2, r4, r5, r6, fp, sp}^
    723c:	732c7461 			; <UNDEFINED> instruction: 0x732c7461
    7240:	20296769 	eorcs	r6, r9, r9, ror #14
    7244:	77282a28 	strvc	r2, [r8, -r8, lsr #20]!
    7248:	29746168 	ldmdbcs	r4!, {r3, r5, r6, r8, sp, lr}^
    724c:	203d2620 	eorscs	r2, sp, r0, lsr #12
    7250:	3c31287e 	ldccc	8, cr2, [r1], #-504	; 0xfffffe08
    7254:	6973283c 	ldmdbvs	r3!, {r2, r3, r4, r5, fp, sp}^
    7258:	2c292967 			; <UNDEFINED> instruction: 0x2c292967
    725c:	00293020 	eoreq	r3, r9, r0, lsr #32
    7260:	50495045 	subpl	r5, r9, r5, asr #32
    7264:	32332045 	eorscc	r2, r3, #69	; 0x45
    7268:	755f5f00 	ldrbvc	r5, [pc, #-3840]	; 6370 <_Min_Stack_Size+0x5f70>
    726c:	38746e69 	ldmdacc	r4!, {r0, r3, r5, r6, r9, sl, fp, sp, lr}^
    7270:	5f00745f 	svcpl	0x0000745f
    7274:	7665645f 			; <UNDEFINED> instruction: 0x7665645f
    7278:	4500745f 	strmi	r7, [r0, #-1119]	; 0xfffffba1
    727c:	53495845 	movtpl	r5, #38981	; 0x9845
    7280:	37312054 			; <UNDEFINED> instruction: 0x37312054
    7284:	4c5f5f00 	mrrcmi	15, 0, r5, pc, cr0	; <UNPREDICTABLE>
    7288:	54534145 	ldrbpl	r4, [r3], #-325	; 0xfffffebb
    728c:	22203233 	eorcs	r3, r0, #805306371	; 0x30000003
    7290:	5400226c 	strpl	r2, [r0], #-620	; 0xfffffd94
    7294:	53454d49 	movtpl	r4, #23881	; 0x5d49
    7298:	5f434550 	svcpl	0x00434550
    729c:	545f4f54 	ldrbpl	r4, [pc], #-3924	; 72a4 <_Min_Stack_Size+0x6ea4>
    72a0:	56454d49 	strbpl	r4, [r5], -r9, asr #26
    72a4:	74284c41 	strtvc	r4, [r8], #-3137	; 0xfffff3bf
    72a8:	73742c76 	cmnvc	r4, #30208	; 0x7600
    72ac:	6f642029 	svcvs	0x00642029
    72b0:	28207b20 	stmdacs	r0!, {r5, r8, r9, fp, ip, sp, lr}
    72b4:	2d297674 	stccs	6, cr7, [r9, #-464]!	; 0xfffffe30
    72b8:	5f76743e 	svcpl	0x0076743e
    72bc:	20636573 	rsbcs	r6, r3, r3, ror r5
    72c0:	7428203d 	strtvc	r2, [r8], #-61	; 0xffffffc3
    72c4:	3e2d2973 			; <UNDEFINED> instruction: 0x3e2d2973
    72c8:	735f7674 	cmpvc	pc, #116, 12	; 0x7400000
    72cc:	203b6365 	eorscs	r6, fp, r5, ror #6
    72d0:	29767428 	ldmdbcs	r6!, {r3, r5, sl, ip, sp, lr}^
    72d4:	76743e2d 	ldrbtvc	r3, [r4], -sp, lsr #28
    72d8:	6573755f 	ldrbvs	r7, [r3, #-1375]!	; 0xfffffaa1
    72dc:	203d2063 	eorscs	r2, sp, r3, rrx
    72e0:	29737428 	ldmdbcs	r3!, {r3, r5, sl, ip, sp, lr}^
    72e4:	76743e2d 	ldrbtvc	r3, [r4], -sp, lsr #28
    72e8:	65736e5f 	ldrbvs	r6, [r3, #-3679]!	; 0xfffff1a1
    72ec:	202f2063 	eorcs	r2, pc, r3, rrx
    72f0:	30303031 	eorscc	r3, r0, r1, lsr r0
    72f4:	207d203b 	rsbscs	r2, sp, fp, lsr r0
    72f8:	6c696877 	stclvs	8, cr6, [r9], #-476	; 0xfffffe24
    72fc:	30282065 	eorcc	r2, r8, r5, rrx
    7300:	44460029 	strbmi	r0, [r6], #-41	; 0xffffffd7
    7304:	5353495f 	cmppl	r3, #1556480	; 0x17c000
    7308:	6e285445 	cdpvs	4, 2, cr5, cr8, cr5, {2}
    730c:	2029702c 	eorcs	r7, r9, ip, lsr #32
    7310:	70282828 	eorvc	r2, r8, r8, lsr #16
    7314:	5f3e2d29 	svcpl	0x003e2d29
    7318:	7364665f 	cmnvc	r4, #99614720	; 0x5f00000
    731c:	7469625f 	strbtvc	r6, [r9], #-607	; 0xfffffda1
    7320:	6e285b73 	vmovvs.16	d8[3], r5
    7324:	4e5f2f29 	cdpmi	15, 5, cr2, cr15, cr9, {1}
    7328:	49424446 	stmdbmi	r2, {r1, r2, r6, sl, lr}^
    732c:	205d5354 	subscs	r5, sp, r4, asr r3
    7330:	5f5f2026 	svcpl	0x005f2026
    7334:	65736466 	ldrbvs	r6, [r3, #-1126]!	; 0xfffffb9a
    7338:	616d5f74 	smcvs	54772	; 0xd5f4
    733c:	6e286b73 	vmovvs.16	d8[3], r6
    7340:	21202929 			; <UNDEFINED> instruction: 0x21202929
    7344:	2930203d 	ldmdbcs	r0!, {r0, r2, r3, r4, r5, sp}
    7348:	544e4900 	strbpl	r4, [lr], #-2304	; 0xfffff700
    734c:	41454c5f 	cmpmi	r5, pc, asr ip
    7350:	34365453 	ldrtcc	r5, [r6], #-1107	; 0xfffffbad
    7354:	4e494d5f 	mcrmi	13, 2, r4, cr9, cr15, {2}
    7358:	5f2d2820 	svcpl	0x002d2820
    735c:	544e495f 	strbpl	r4, [lr], #-2399	; 0xfffff6a1
    7360:	41454c5f 	cmpmi	r5, pc, asr ip
    7364:	34365453 	ldrtcc	r5, [r6], #-1107	; 0xfffffbad
    7368:	58414d5f 	stmdapl	r1, {r0, r1, r2, r3, r4, r6, r8, sl, fp, lr}^
    736c:	2d205f5f 	stccs	15, cr5, [r0, #-380]!	; 0xfffffe84
    7370:	00293120 	eoreq	r3, r9, r0, lsr #2
    7374:	4f4f4c45 	svcmi	0x004f4c45
    7378:	32392050 	eorscc	r2, r9, #80	; 0x50
    737c:	4f434500 	svcmi	0x00434500
    7380:	45524e4e 	ldrbmi	r4, [r2, #-3662]	; 0xfffff1b2
    7384:	20544553 	subscs	r4, r4, r3, asr r5
    7388:	00343031 	eorseq	r3, r4, r1, lsr r0
    738c:	544e495f 	strbpl	r4, [lr], #-2399	; 0xfffff6a1
    7390:	5f525450 	svcpl	0x00525450
    7394:	45445f54 	strbmi	r5, [r4, #-3924]	; 0xfffff0ac
    7398:	52414c43 	subpl	r4, r1, #17152	; 0x4300
    739c:	00204445 	eoreq	r4, r0, r5, asr #8
    73a0:	52495f53 	subpl	r5, r9, #332	; 0x14c
    73a4:	20444145 	subcs	r4, r4, r5, asr #2
    73a8:	30303030 	eorscc	r3, r0, r0, lsr r0
    73ac:	00303034 	eorseq	r3, r0, r4, lsr r0
    73b0:	44525450 	ldrbmi	r5, [r2], #-1104	; 0xfffffbb0
    73b4:	5f464649 	svcpl	0x00464649
    73b8:	204e494d 	subcs	r4, lr, sp, asr #18
    73bc:	54502d28 	ldrbpl	r2, [r0], #-3368	; 0xfffff2d8
    73c0:	46494452 			; <UNDEFINED> instruction: 0x46494452
    73c4:	414d5f46 	cmpmi	sp, r6, asr #30
    73c8:	202d2058 	eorcs	r2, sp, r8, asr r0
    73cc:	45002931 	strmi	r2, [r0, #-2353]	; 0xfffff6cf
    73d0:	54534544 	ldrbpl	r4, [r3], #-1348	; 0xfffffabc
    73d4:	52444441 	subpl	r4, r4, #1090519040	; 0x41000000
    73d8:	20514552 	subscs	r4, r1, r2, asr r5
    73dc:	00313231 	eorseq	r3, r1, r1, lsr r2
    73e0:	434d4544 	movtmi	r4, #54596	; 0xd544
    73e4:	282a2052 	stmdacs	sl!, {r1, r4, r6, sp}
    73e8:	6c6f7628 	stclvs	6, cr7, [pc], #-160	; 7350 <_Min_Stack_Size+0x6f50>
    73ec:	6c697461 	cfstrdvs	mvd7, [r9], #-388	; 0xfffffe7c
    73f0:	69752065 	ldmdbvs	r5!, {r0, r2, r5, r6, sp}^
    73f4:	3233746e 	eorscc	r7, r3, #1845493760	; 0x6e000000
    73f8:	292a745f 	stmdbcs	sl!, {r0, r1, r2, r3, r4, r6, sl, ip, sp, lr}
    73fc:	45783020 	ldrbmi	r3, [r8, #-32]!	; 0xffffffe0
    7400:	45303030 	ldrmi	r3, [r0, #-48]!	; 0xffffffd0
    7404:	55434644 	strbpl	r4, [r3, #-1604]	; 0xfffff9bc
    7408:	44002920 	strmi	r2, [r0], #-2336	; 0xfffff6e0
    740c:	435f5453 	cmpmi	pc, #1392508928	; 0x53000000
    7410:	36204e41 	strtcc	r4, [r0], -r1, asr #28
    7414:	655f5f00 	ldrbvs	r5, [pc, #-3840]	; 651c <_Min_Stack_Size+0x611c>
    7418:	726f7272 	rsbvc	r7, pc, #536870919	; 0x20000007
    741c:	645f745f 	ldrbvs	r7, [pc], #-1119	; 7424 <_Min_Stack_Size+0x7024>
    7420:	6e696665 	cdpvs	6, 6, cr6, cr9, cr5, {3}
    7424:	31206465 			; <UNDEFINED> instruction: 0x31206465
    7428:	58544500 	ldmdapl	r4, {r8, sl, lr}^
    742c:	59534254 	ldmdbpl	r3, {r2, r4, r6, r9, lr}^
    7430:	00363220 	eorseq	r3, r6, r0, lsr #4
    7434:	735f7473 	cmpvc	pc, #1929379840	; 0x73000000
    7438:	00657a69 	rsbeq	r7, r5, r9, ror #20
    743c:	53495f53 	movtpl	r5, #40787	; 0x9f53
    7440:	28524944 	ldmdacs	r2, {r2, r6, r8, fp, lr}^
    7444:	2820296d 	stmdacs	r0!, {r0, r2, r3, r5, r6, r8, fp, sp}
    7448:	296d2828 	stmdbcs	sp!, {r3, r5, fp, sp}^
    744c:	46495f26 	strbmi	r5, [r9], -r6, lsr #30
    7450:	2029544d 	eorcs	r5, r9, sp, asr #8
    7454:	5f203d3d 	svcpl	0x00203d3d
    7458:	49444649 	stmdbmi	r4, {r0, r3, r6, r9, sl, lr}^
    745c:	43002952 	movwmi	r2, #2386	; 0x952
    7460:	545f4b4c 	ldrbpl	r4, [pc], #-2892	; 7468 <_Min_Stack_Size+0x7068>
    7464:	43204b43 			; <UNDEFINED> instruction: 0x43204b43
    7468:	4b434f4c 	blmi	10db1a0 <_Min_Stack_Size+0x10dada0>
    746c:	45505f53 	ldrbmi	r5, [r0, #-3923]	; 0xfffff0ad
    7470:	45535f52 	ldrbmi	r5, [r3, #-3922]	; 0xfffff0ae
    7474:	48450043 	stmdami	r5, {r0, r1, r6}^
    7478:	4454534f 	ldrbmi	r5, [r4], #-847	; 0xfffffcb1
    747c:	204e574f 	subcs	r5, lr, pc, asr #14
    7480:	00373131 	eorseq	r3, r7, r1, lsr r1
    7484:	50474953 	subpl	r4, r7, r3, asr r9
    7488:	20455049 	subcs	r5, r5, r9, asr #32
    748c:	53003331 	movwpl	r3, #817	; 0x331
    7490:	4246495f 	submi	r4, r6, #1556480	; 0x17c000
    7494:	5f204b4c 	svcpl	0x00204b4c
    7498:	4c424649 	mcrrmi	6, 4, r4, r2, cr9
    749c:	4955004b 	ldmdbmi	r5, {r0, r1, r3, r6}^
    74a0:	5450544e 	ldrbpl	r5, [r0], #-1102	; 0xfffffbb2
    74a4:	414d5f52 	cmpmi	sp, r2, asr pc
    74a8:	5f282058 	svcpl	0x00282058
    74ac:	4e49555f 	mcrmi	5, 2, r5, cr9, cr15, {2}
    74b0:	52545054 	subspl	r5, r4, #84	; 0x54
    74b4:	58414d5f 	stmdapl	r1, {r0, r1, r2, r3, r4, r6, r8, sl, fp, lr}^
    74b8:	00295f5f 	eoreq	r5, r9, pc, asr pc
    74bc:	5f474942 	svcpl	0x00474942
    74c0:	49444e45 	stmdbmi	r4, {r0, r2, r6, r9, sl, fp, lr}^
    74c4:	5f204e41 	svcpl	0x00204e41
    74c8:	5f474942 	svcpl	0x00474942
    74cc:	49444e45 	stmdbmi	r4, {r0, r2, r6, r9, sl, fp, lr}^
    74d0:	5f004e41 	svcpl	0x00004e41
    74d4:	5f535953 	svcpl	0x00535953
    74d8:	434f4c5f 	movtmi	r4, #64607	; 0xfc5f
    74dc:	5f454c41 	svcpl	0x00454c41
    74e0:	5f002048 	svcpl	0x00002048
    74e4:	52485450 	subpl	r5, r8, #80, 8	; 0x50000000
    74e8:	5f444145 	svcpl	0x00444145
    74ec:	444e4f43 	strbmi	r4, [lr], #-3907	; 0xfffff0bd
    74f0:	494e495f 	stmdbmi	lr, {r0, r1, r2, r3, r4, r6, r8, fp, lr}^
    74f4:	4c414954 	mcrrmi	9, 5, r4, r1, cr4	; <UNPREDICTABLE>
    74f8:	52455a49 	subpl	r5, r5, #299008	; 0x49000
    74fc:	70282820 	eorvc	r2, r8, r0, lsr #16
    7500:	65726874 	ldrbvs	r6, [r2, #-2164]!	; 0xfffff78c
    7504:	635f6461 	cmpvs	pc, #1627389952	; 0x61000000
    7508:	5f646e6f 	svcpl	0x00646e6f
    750c:	30202974 	eorcc	r2, r0, r4, ror r9
    7510:	46464678 			; <UNDEFINED> instruction: 0x46464678
    7514:	46464646 	strbmi	r4, [r6], -r6, asr #12
    7518:	50002946 	andpl	r2, r0, r6, asr #18
    751c:	45524854 	ldrbmi	r4, [r2, #-2132]	; 0xfffff7ac
    7520:	435f4441 	cmpmi	pc, #1090519040	; 0x41000000
    7524:	54414552 	strbpl	r4, [r1], #-1362	; 0xfffffaae
    7528:	45445f45 	strbmi	r5, [r4, #-3909]	; 0xfffff0bb
    752c:	48434154 	stmdami	r3, {r2, r4, r6, r8, lr}^
    7530:	30204445 	eorcc	r4, r0, r5, asr #8
    7534:	495f5300 	ldmdbmi	pc, {r8, r9, ip, lr}^	; <UNPREDICTABLE>
    7538:	4b4c4253 	blmi	1317e8c <_Min_Stack_Size+0x1317a8c>
    753c:	20296d28 	eorcs	r6, r9, r8, lsr #26
    7540:	6d282828 	stcvs	8, cr2, [r8, #-160]!	; 0xffffff60
    7544:	495f2629 	ldmdbmi	pc, {r0, r3, r5, r9, sl, sp}^	; <UNPREDICTABLE>
    7548:	29544d46 	ldmdbcs	r4, {r1, r2, r6, r8, sl, fp, lr}^
    754c:	203d3d20 	eorscs	r3, sp, r0, lsr #26
    7550:	4246495f 	submi	r4, r6, #1556480	; 0x17c000
    7554:	00294b4c 	eoreq	r4, r9, ip, asr #22
    7558:	5359535f 	cmppl	r9, #2080374785	; 0x7c000001
    755c:	49545f5f 	ldmdbmi	r4, {r0, r1, r2, r3, r4, r6, r8, r9, sl, fp, ip, lr}^
    7560:	5053454d 	subspl	r4, r3, sp, asr #10
    7564:	485f4345 	ldmdami	pc, {r0, r2, r6, r8, r9, lr}^	; <UNPREDICTABLE>
    7568:	5300205f 	movwpl	r2, #95	; 0x5f
    756c:	5845495f 	stmdapl	r5, {r0, r1, r2, r3, r4, r6, r8, fp, lr}^
    7570:	30204345 	eorcc	r4, r0, r5, asr #6
    7574:	31303030 	teqcc	r0, r0, lsr r0
    7578:	53003030 	movwpl	r3, #48	; 0x30
    757c:	495f4749 	ldmdbmi	pc, {r0, r3, r6, r8, r9, sl, lr}^	; <UNPREDICTABLE>
    7580:	28204e47 	stmdacs	r0!, {r0, r1, r2, r6, r9, sl, fp, lr}
    7584:	69735f28 	ldmdbvs	r3!, {r3, r5, r8, r9, sl, fp, ip, lr}^
    7588:	75665f67 	strbvc	r5, [r6, #-3943]!	; 0xfffff099
    758c:	705f636e 	subsvc	r6, pc, lr, ror #6
    7590:	31297274 			; <UNDEFINED> instruction: 0x31297274
    7594:	5f530029 	svcpl	0x00530029
    7598:	544f5849 	strbpl	r5, [pc], #-2121	; 75a0 <_Min_Stack_Size+0x71a0>
    759c:	30302048 	eorscc	r2, r0, r8, asr #32
    75a0:	30303030 	eorscc	r3, r0, r0, lsr r0
    75a4:	2e2e0031 	mcrcs	0, 1, r0, cr14, cr1, {1}
    75a8:	6372532f 	cmnvs	r2, #-1140850688	; 0xbc000000
    75ac:	7379732f 	cmnvc	r9, #-1140850688	; 0xbc000000
    75b0:	6c6c6163 	stfvse	f6, [ip], #-396	; 0xfffffe74
    75b4:	00632e73 	rsbeq	r2, r3, r3, ror lr
    75b8:	5f544e49 	svcpl	0x00544e49
    75bc:	54534146 	ldrbpl	r4, [r3], #-326	; 0xfffffeba
    75c0:	494d5f38 	stmdbmi	sp, {r3, r4, r5, r8, r9, sl, fp, ip, lr}^
    75c4:	2d28204e 	stccs	0, cr2, [r8, #-312]!	; 0xfffffec8
    75c8:	4e495f5f 	mcrmi	15, 2, r5, cr9, cr15, {2}
    75cc:	41465f54 	cmpmi	r6, r4, asr pc
    75d0:	5f385453 	svcpl	0x00385453
    75d4:	5f58414d 	svcpl	0x0058414d
    75d8:	202d205f 	eorcs	r2, sp, pc, asr r0
    75dc:	45002931 	strmi	r2, [r0, #-2353]	; 0xfffff6cf
    75e0:	45544f4e 	ldrbmi	r4, [r4, #-3918]	; 0xfffff0b2
    75e4:	5954504d 	ldmdbpl	r4, {r0, r2, r3, r6, ip, lr}^
    75e8:	00303920 	eorseq	r3, r0, r0, lsr #18
    75ec:	534f4e45 	movtpl	r4, #65093	; 0xfe45
    75f0:	36205254 			; <UNDEFINED> instruction: 0x36205254
    75f4:	49530030 	ldmdbmi	r3, {r4, r5}^
    75f8:	4c425f47 	mcrrmi	15, 4, r5, r2, cr7
    75fc:	204b434f 	subcs	r4, fp, pc, asr #6
    7600:	58450031 	stmdapl	r5, {r0, r4, r5}^
    7604:	20564544 	subscs	r4, r6, r4, asr #10
    7608:	49003831 	stmdbmi	r0, {r0, r4, r5, fp, ip, sp}
    760c:	3631544e 	ldrtcc	r5, [r1], -lr, asr #8
    7610:	4e494d5f 	mcrmi	13, 2, r4, cr9, cr15, {2}
    7614:	5f2d2820 	svcpl	0x002d2820
    7618:	544e495f 	strbpl	r4, [lr], #-2399	; 0xfffff6a1
    761c:	4d5f3631 	ldclmi	6, cr3, [pc, #-196]	; 7560 <_Min_Stack_Size+0x7160>
    7620:	5f5f5841 	svcpl	0x005f5841
    7624:	31202d20 			; <UNDEFINED> instruction: 0x31202d20
    7628:	49530029 	ldmdbmi	r3, {r0, r3, r5}^
    762c:	52455447 	subpl	r5, r5, #1191182336	; 0x47000000
    7630:	3531204d 	ldrcc	r2, [r1, #-77]!	; 0xffffffb3
    7634:	755f5f00 	ldrbvc	r5, [pc, #-3840]	; 673c <_Min_Stack_Size+0x633c>
    7638:	746e695f 	strbtvc	r6, [lr], #-2399	; 0xfffff6a1
    763c:	6665645f 			; <UNDEFINED> instruction: 0x6665645f
    7640:	64656e69 	strbtvs	r6, [r5], #-3689	; 0xfffff197
    7644:	4d450020 	stclmi	0, cr0, [r5, #-128]	; 0xffffff80
    7648:	454c4946 	strbmi	r4, [ip, #-2374]	; 0xfffff6ba
    764c:	00343220 	eorseq	r3, r4, r0, lsr #4
    7650:	46495f53 			; <UNDEFINED> instruction: 0x46495f53
    7654:	20474552 	subcs	r4, r7, r2, asr r5
    7658:	5246495f 	subpl	r4, r6, #1556480	; 0x17c000
    765c:	45004745 	strmi	r4, [r0, #-1861]	; 0xfffff8bb
    7660:	5f544958 	svcpl	0x00544958
    7664:	43435553 	movtmi	r5, #13651	; 0x3553
    7668:	20535345 	subscs	r5, r3, r5, asr #6
    766c:	4e450030 	mcrmi	0, 2, r0, cr5, cr0, {1}
    7670:	4350534f 	cmpmi	r0, #1006632961	; 0x3c000001
    7674:	00383220 	eorseq	r3, r8, r0, lsr #4
    7678:	6f695f5f 	svcvs	0x00695f5f
    767c:	7465675f 	strbtvc	r6, [r5], #-1887	; 0xfffff8a1
    7680:	72616863 	rsbvc	r6, r1, #6488064	; 0x630000
    7684:	46495f00 	strbmi	r5, [r9], -r0, lsl #30
    7688:	20524843 	subscs	r4, r2, r3, asr #16
    768c:	30323030 	eorscc	r3, r2, r0, lsr r0
    7690:	00303030 	eorseq	r3, r0, r0, lsr r0
    7694:	52455045 	subpl	r5, r5, #69	; 0x45
    7698:	0031204d 	eorseq	r2, r1, sp, asr #32
    769c:	6c625f5f 	stclvs	15, cr5, [r2], #-380	; 0xfffffe84
    76a0:	7a69736b 	bvc	1a64454 <_Min_Stack_Size+0x1a64054>
    76a4:	00745f65 	rsbseq	r5, r4, r5, ror #30
    76a8:	4d544e49 	ldclmi	14, cr4, [r4, #-292]	; 0xfffffedc
    76ac:	4d5f5841 	ldclmi	8, cr5, [pc, #-260]	; 75b0 <_Min_Stack_Size+0x71b0>
    76b0:	28204e49 	stmdacs	r0!, {r0, r3, r6, r9, sl, fp, lr}
    76b4:	544e492d 	strbpl	r4, [lr], #-2349	; 0xfffff6d3
    76b8:	5f58414d 	svcpl	0x0058414d
    76bc:	2058414d 	subscs	r4, r8, sp, asr #2
    76c0:	2931202d 	ldmdbcs	r1!, {r0, r2, r3, r5, sp}
    76c4:	48545000 	ldmdami	r4, {ip, lr}^
    76c8:	44414552 	strbmi	r4, [r1], #-1362	; 0xfffffaae
    76cc:	5058455f 	subspl	r4, r8, pc, asr r5
    76d0:	4943494c 	stmdbmi	r3, {r2, r3, r6, r8, fp, lr}^
    76d4:	43535f54 	cmpmi	r3, #84, 30	; 0x150
    76d8:	20444548 	subcs	r4, r4, r8, asr #10
    76dc:	43570032 	cmpmi	r7, #50	; 0x32
    76e0:	5f524148 	svcpl	0x00524148
    76e4:	204e494d 	subcs	r4, lr, sp, asr #18
    76e8:	575f5f28 	ldrbpl	r5, [pc, -r8, lsr #30]
    76ec:	52414843 	subpl	r4, r1, #4390912	; 0x430000
    76f0:	4e494d5f 	mcrmi	13, 2, r4, cr9, cr15, {2}
    76f4:	00295f5f 	eoreq	r5, r9, pc, asr pc
    76f8:	755f7473 	ldrbvc	r7, [pc, #-1139]	; 728d <_Min_Stack_Size+0x6e8d>
    76fc:	73006469 	movwvc	r6, #1129	; 0x469
    7700:	70735f74 	rsbsvc	r5, r3, r4, ror pc
    7704:	34657261 	strbtcc	r7, [r5], #-609	; 0xfffffd9f
    7708:	544e4900 	strbpl	r4, [lr], #-2304	; 0xfffff700
    770c:	41454c5f 	cmpmi	r5, pc, asr ip
    7710:	34365453 	ldrtcc	r5, [r6], #-1107	; 0xfffffbad
    7714:	58414d5f 	stmdapl	r1, {r0, r1, r2, r3, r4, r6, r8, sl, fp, lr}^
    7718:	5f5f2820 	svcpl	0x005f2820
    771c:	5f544e49 	svcpl	0x00544e49
    7720:	5341454c 	movtpl	r4, #5452	; 0x154c
    7724:	5f343654 	svcpl	0x00343654
    7728:	5f58414d 	svcpl	0x0058414d
    772c:	4500295f 	strmi	r2, [r0, #-2399]	; 0xfffff6a1
    7730:	55424f4e 	strbpl	r4, [r2, #-3918]	; 0xfffff0b2
    7734:	31205346 			; <UNDEFINED> instruction: 0x31205346
    7738:	53003530 	movwpl	r3, #1328	; 0x530
    773c:	54564749 	ldrbpl	r4, [r6], #-1865	; 0xfffff8b7
    7740:	4d524c41 	ldclmi	12, cr4, [r2, #-260]	; 0xfffffefc
    7744:	00363220 	eorseq	r3, r6, r0, lsr #4
    7748:	59544645 	ldmdbpl	r4, {r0, r2, r6, r9, sl, lr}^
    774c:	37204550 			; <UNDEFINED> instruction: 0x37204550
    7750:	5f5f0039 	svcpl	0x005f0039
    7754:	6e727265 	cdpvs	2, 7, cr7, cr2, cr5, {3}
    7758:	5449006f 	strbpl	r0, [r9], #-111	; 0xffffff91
    775c:	52454d49 	subpl	r4, r5, #4672	; 0x1240
    7760:	4f52505f 	svcmi	0x0052505f
    7764:	00322046 	eorseq	r2, r2, r6, asr #32
    7768:	5f755f5f 	svcpl	0x00755f5f
    776c:	72616863 	rsbvc	r6, r1, #6488064	; 0x630000
    7770:	6665645f 			; <UNDEFINED> instruction: 0x6665645f
    7774:	64656e69 	strbtvs	r6, [r5], #-3689	; 0xfffff197
    7778:	4c430020 	mcrrmi	0, 2, r0, r3, cr0
    777c:	5f4b434f 	svcpl	0x004b434f
    7780:	41534944 	cmpmi	r3, r4, asr #18
    7784:	574f4c4c 	strbpl	r4, [pc, -ip, asr #24]
    7788:	30204445 	eorcc	r4, r0, r5, asr #8
    778c:	766e6500 	strbtvc	r6, [lr], -r0, lsl #10
    7790:	6e6f7269 	cdpvs	2, 6, cr7, cr15, cr9, {3}
    7794:	696c5f00 	stmdbvs	ip!, {r8, r9, sl, fp, ip, lr}^
    7798:	5f006b6e 	svcpl	0x00006b6e
    779c:	505f4e49 	subspl	r4, pc, r9, asr #28
    77a0:	5f54524f 	svcpl	0x0054524f
    77a4:	45445f54 	strbmi	r5, [r4, #-3924]	; 0xfffff0ac
    77a8:	52414c43 	subpl	r4, r1, #17152	; 0x4300
    77ac:	00204445 	eoreq	r4, r0, r5, asr #8
    77b0:	725f7473 	subsvc	r7, pc, #1929379840	; 0x73000000
    77b4:	00766564 	rsbseq	r6, r6, r4, ror #10
    77b8:	43474953 	movtmi	r4, #31059	; 0x7953
    77bc:	3220444c 	eorcc	r4, r0, #76, 8	; 0x4c000000
    77c0:	675f0030 	smmlarvs	pc, r0, r0, r0	; <UNPREDICTABLE>
    77c4:	69707465 	ldmdbvs	r0!, {r0, r2, r5, r6, sl, ip, sp, lr}^
    77c8:	45440064 	strbmi	r0, [r4, #-100]	; 0xffffff9c
    77cc:	4c494646 	mcrrmi	6, 4, r4, r9, cr6
    77d0:	444f4d45 	strbmi	r4, [pc], #-3397	; 77d8 <_Min_Stack_Size+0x73d8>
    77d4:	53282045 			; <UNDEFINED> instruction: 0x53282045
    77d8:	5552495f 	ldrbpl	r4, [r2, #-2399]	; 0xfffff6a1
    77dc:	7c205253 	sfmvc	f5, 4, [r0], #-332	; 0xfffffeb4
    77e0:	495f5320 	ldmdbmi	pc, {r5, r8, r9, ip, lr}^	; <UNPREDICTABLE>
    77e4:	52535557 	subspl	r5, r3, #364904448	; 0x15c00000
    77e8:	53207c20 			; <UNDEFINED> instruction: 0x53207c20
    77ec:	4752495f 			; <UNDEFINED> instruction: 0x4752495f
    77f0:	7c205052 	stcvc	0, cr5, [r0], #-328	; 0xfffffeb8
    77f4:	495f5320 	ldmdbmi	pc, {r5, r8, r9, ip, lr}^	; <UNPREDICTABLE>
    77f8:	50524757 	subspl	r4, r2, r7, asr r7
    77fc:	53207c20 			; <UNDEFINED> instruction: 0x53207c20
    7800:	4f52495f 	svcmi	0x0052495f
    7804:	7c204854 	stcvc	8, cr4, [r0], #-336	; 0xfffffeb0
    7808:	495f5320 	ldmdbmi	pc, {r5, r8, r9, ip, lr}^	; <UNPREDICTABLE>
    780c:	48544f57 	ldmdami	r4, {r0, r1, r2, r4, r6, r8, r9, sl, fp, lr}^
    7810:	5f5f0029 	svcpl	0x005f0029
    7814:	6e6f7468 	cdpvs	4, 6, cr7, cr15, cr8, {3}
    7818:	785f286c 	ldmdavc	pc, {r2, r3, r5, r6, fp, sp}^	; <UNPREDICTABLE>
    781c:	5f5f2029 	svcpl	0x005f2029
    7820:	61777362 	cmnvs	r7, r2, ror #6
    7824:	28323370 	ldmdacs	r2!, {r4, r5, r6, r8, r9, ip, sp}
    7828:	0029785f 	eoreq	r7, r9, pc, asr r8
    782c:	52495f53 	subpl	r5, r9, #332	; 0x14c
    7830:	2048544f 	subcs	r5, r8, pc, asr #8
    7834:	30303030 	eorscc	r3, r0, r0, lsr r0
    7838:	00343030 	eorseq	r3, r4, r0, lsr r0
    783c:	69676973 	stmdbvs	r7!, {r0, r1, r4, r5, r6, r8, fp, sp, lr}^
    7840:	6d656d73 	stclvs	13, cr6, [r5, #-460]!	; 0xfffffe34
    7844:	28726562 	ldmdacs	r2!, {r1, r5, r6, r8, sl, sp, lr}^
    7848:	74616877 	strbtvc	r6, [r1], #-2167	; 0xfffff789
    784c:	6769732c 	strbvs	r7, [r9, -ip, lsr #6]!
    7850:	28282029 	stmdacs	r8!, {r0, r3, r5, sp}
    7854:	77282a28 	strvc	r2, [r8, -r8, lsr #20]!
    7858:	29746168 	ldmdbcs	r4!, {r3, r5, r6, r8, sp, lr}^
    785c:	20262029 	eorcs	r2, r6, r9, lsr #32
    7860:	3c3c3128 	ldfccs	f3, [ip], #-160	; 0xffffff60
    7864:	67697328 	strbvs	r7, [r9, -r8, lsr #6]!
    7868:	20292929 	eorcs	r2, r9, r9, lsr #18
    786c:	30203d21 	eorcc	r3, r0, r1, lsr #26
    7870:	49530029 	ldmdbmi	r3, {r0, r3, r5}^
    7874:	544d4547 	strbpl	r4, [sp], #-1351	; 0xfffffab9
    7878:	5f003720 	svcpl	0x00003720
    787c:	4244464e 	submi	r4, r4, #81788928	; 0x4e00000
    7880:	20535449 	subscs	r5, r3, r9, asr #8
    7884:	6e692828 	cdpvs	8, 6, cr2, cr9, cr8, {1}
    7888:	69732974 	ldmdbvs	r3!, {r2, r4, r5, r6, r8, fp, sp}^
    788c:	666f657a 			; <UNDEFINED> instruction: 0x666f657a
    7890:	665f5f28 	ldrbvs	r5, [pc], -r8, lsr #30
    7894:	616d5f64 	cmnvs	sp, r4, ror #30
    7898:	20296b73 	eorcs	r6, r9, r3, ror fp
    789c:	2938202a 	ldmdbcs	r8!, {r1, r3, r5, sp}
    78a0:	544e4900 	strbpl	r4, [lr], #-2304	; 0xfffff700
    78a4:	5341465f 	movtpl	r4, #5727	; 0x165f
    78a8:	4d5f3854 	ldclmi	8, cr3, [pc, #-336]	; 7760 <_Min_Stack_Size+0x7360>
    78ac:	28205841 	stmdacs	r0!, {r0, r6, fp, ip, lr}
    78b0:	4e495f5f 	mcrmi	15, 2, r5, cr9, cr15, {2}
    78b4:	41465f54 	cmpmi	r6, r4, asr pc
    78b8:	5f385453 	svcpl	0x00385453
    78bc:	5f58414d 	svcpl	0x0058414d
    78c0:	4500295f 	strmi	r2, [r0, #-2399]	; 0xfffff6a1
    78c4:	59534f4e 	ldmdbpl	r3, {r1, r2, r3, r6, r8, r9, sl, fp, lr}^
    78c8:	38382053 	ldmdacc	r8!, {r0, r1, r4, r6, sp}
    78cc:	574f4500 	strbpl	r4, [pc, -r0, lsl #10]
    78d0:	4452454e 	ldrbmi	r4, [r2], #-1358	; 0xfffffab2
    78d4:	20444145 	subcs	r4, r4, r5, asr #2
    78d8:	00323431 	eorseq	r3, r2, r1, lsr r4
    78dc:	494c4d45 	stmdbmi	ip, {r0, r2, r6, r8, sl, fp, lr}^
    78e0:	33204b4e 			; <UNDEFINED> instruction: 0x33204b4e
    78e4:	5f5f0031 	svcpl	0x005f0031
    78e8:	5f746e69 	svcpl	0x00746e69
    78ec:	74736166 	ldrbtvc	r6, [r3], #-358	; 0xfffffe9a
    78f0:	745f3436 	ldrbvc	r3, [pc], #-1078	; 78f8 <_Min_Stack_Size+0x74f8>
    78f4:	6665645f 			; <UNDEFINED> instruction: 0x6665645f
    78f8:	64656e69 	strbtvs	r6, [r5], #-3689	; 0xfffff197
    78fc:	71003120 	tstvc	r0, r0, lsr #2
    7900:	20646175 	rsbcs	r6, r4, r5, ror r1
    7904:	64617571 	strbtvs	r7, [r1], #-1393	; 0xfffffa8f
    7908:	4500745f 	strmi	r7, [r0, #-1119]	; 0xfffffba1
    790c:	544f5250 	strbpl	r5, [pc], #-592	; 7914 <_Min_Stack_Size+0x7514>
    7910:	5059544f 	subspl	r5, r9, pc, asr #8
    7914:	30312045 	eorscc	r2, r1, r5, asr #32
    7918:	4e490037 	mcrmi	0, 2, r0, cr9, cr7, {1}
    791c:	5f343654 	svcpl	0x00343654
    7920:	204e494d 	subcs	r4, lr, sp, asr #18
    7924:	5f5f2d28 	svcpl	0x005f2d28
    7928:	36544e49 	ldrbcc	r4, [r4], -r9, asr #28
    792c:	414d5f34 	cmpmi	sp, r4, lsr pc
    7930:	205f5f58 	subscs	r5, pc, r8, asr pc	; <UNPREDICTABLE>
    7934:	2931202d 	ldmdbcs	r1!, {r0, r2, r3, r5, sp}
    7938:	4e495500 	cdpmi	5, 4, cr5, cr9, cr0, {0}
    793c:	454c5f54 	strbmi	r5, [ip, #-3924]	; 0xfffff0ac
    7940:	36545341 	ldrbcc	r5, [r4], -r1, asr #6
    7944:	414d5f34 	cmpmi	sp, r4, lsr pc
    7948:	5f282058 	svcpl	0x00282058
    794c:	4e49555f 	mcrmi	5, 2, r5, cr9, cr15, {2}
    7950:	454c5f54 	strbmi	r5, [ip, #-3924]	; 0xfffff0ac
    7954:	36545341 	ldrbcc	r5, [r4], -r1, asr #6
    7958:	414d5f34 	cmpmi	sp, r4, lsr pc
    795c:	295f5f58 	ldmdbcs	pc, {r3, r4, r6, r8, r9, sl, fp, ip, lr}^	; <UNPREDICTABLE>
    7960:	53494500 	movtpl	r4, #38144	; 0x9500
    7964:	20524944 	subscs	r4, r2, r4, asr #18
    7968:	5f003132 	svcpl	0x00003132
    796c:	7364665f 	cmnvc	r4, #99614720	; 0x5f00000
    7970:	6d5f7465 	cfldrdvs	mvd7, [pc, #-404]	; 77e4 <_Min_Stack_Size+0x73e4>
    7974:	286b7361 	stmdacs	fp!, {r0, r5, r6, r8, r9, ip, sp, lr}^
    7978:	2820296e 	stmdacs	r0!, {r1, r2, r3, r5, r6, r8, fp, sp}
    797c:	665f5f28 	ldrbvs	r5, [pc], -r8, lsr #30
    7980:	616d5f64 	cmnvs	sp, r4, ror #30
    7984:	31296b73 			; <UNDEFINED> instruction: 0x31296b73
    7988:	203c3c20 	eorscs	r3, ip, r0, lsr #24
    798c:	296e2828 	stmdbcs	lr!, {r3, r5, fp, sp}^
    7990:	5f202520 	svcpl	0x00202520
    7994:	4244464e 	submi	r4, r4, #81788928	; 0x4e00000
    7998:	29535449 	ldmdbcs	r3, {r0, r3, r6, sl, ip, lr}^
    799c:	69740029 	ldmdbvs	r4!, {r0, r3, r5}^
    79a0:	7073656d 	rsbsvc	r6, r3, sp, ror #10
    79a4:	6c636365 	stclvs	3, cr6, [r3], #-404	; 0xfffffe6c
    79a8:	28726165 	ldmdacs	r2!, {r0, r2, r5, r6, r8, sp, lr}^
    79ac:	29707674 	ldmdbcs	r0!, {r2, r4, r5, r6, r9, sl, ip, sp, lr}^
    79b0:	74282820 	strtvc	r2, [r8], #-2080	; 0xfffff7e0
    79b4:	2d297076 	stccs	0, cr7, [r9, #-472]!	; 0xfffffe28
    79b8:	5f76743e 	svcpl	0x0076743e
    79bc:	20636573 	rsbcs	r6, r3, r3, ror r5
    79c0:	7428203d 	strtvc	r2, [r8], #-61	; 0xffffffc3
    79c4:	2d297076 	stccs	0, cr7, [r9, #-472]!	; 0xfffffe28
    79c8:	5f76743e 	svcpl	0x0076743e
    79cc:	6365736e 	cmnvs	r5, #-1207959551	; 0xb8000001
    79d0:	30203d20 	eorcc	r3, r0, r0, lsr #26
    79d4:	42530029 	subsmi	r0, r3, #41	; 0x29
    79d8:	4d315f54 	ldcmi	15, cr5, [r1, #-336]!	; 0xfffffeb0
    79dc:	53282053 			; <UNDEFINED> instruction: 0x53282053
    79e0:	315f5442 	cmpcc	pc, r2, asr #8
    79e4:	202f2053 	eorcs	r2, pc, r3, asr r0	; <UNPREDICTABLE>
    79e8:	30303031 	eorscc	r3, r0, r1, lsr r0
    79ec:	535f0029 	cmppl	pc, #41	; 0x29
    79f0:	535f5359 	cmppl	pc, #1677721601	; 0x64000001
    79f4:	414e4749 	cmpmi	lr, r9, asr #14
    79f8:	20485f4c 	subcs	r5, r8, ip, asr #30
    79fc:	414d5f00 	cmpmi	sp, r0, lsl #30
    7a00:	54534843 	ldrbpl	r4, [r3], #-2115	; 0xfffff7bd
    7a04:	42494c44 	submi	r4, r9, #68, 24	; 0x4400
    7a08:	205f485f 	subscs	r4, pc, pc, asr r8	; <UNPREDICTABLE>
    7a0c:	454e4500 	strbmi	r4, [lr, #-1280]	; 0xfffffb00
    7a10:	524e5554 	subpl	r5, lr, #84, 10	; 0x15000000
    7a14:	48434145 	stmdami	r3, {r0, r2, r6, r8, lr}^
    7a18:	34313120 	ldrtcc	r3, [r1], #-288	; 0xfffffee0
    7a1c:	46495f00 	strbmi	r5, [r9], -r0, lsl #30
    7a20:	20474552 	subcs	r4, r7, r2, asr r5
    7a24:	30303130 	eorscc	r3, r0, r0, lsr r1
    7a28:	00303030 	eorseq	r3, r0, r0, lsr r0
    7a2c:	656e5f5f 	strbvs	r5, [lr, #-3935]!	; 0xfffff0a1
    7a30:	775f6465 	ldrbvc	r6, [pc, -r5, ror #8]
    7a34:	72616863 	rsbvc	r6, r1, #6488064	; 0x630000
    7a38:	0020745f 	eoreq	r7, r0, pc, asr r4
    7a3c:	6d69745f 	cfstrdvs	mvd7, [r9, #-380]!	; 0xfffffe84
    7a40:	49007365 	stmdbmi	r0, {r0, r2, r5, r6, r8, r9, ip, sp, lr}
    7a44:	4c5f544e 	cfldrdmi	mvd5, [pc], {78}	; 0x4e
    7a48:	54534145 	ldrbpl	r4, [r3], #-325	; 0xfffffebb
    7a4c:	4d5f3233 	lfmmi	f3, 2, [pc, #-204]	; 7988 <_Min_Stack_Size+0x7588>
    7a50:	28205841 	stmdacs	r0!, {r0, r6, fp, ip, lr}
    7a54:	4e495f5f 	mcrmi	15, 2, r5, cr9, cr15, {2}
    7a58:	454c5f54 	strbmi	r5, [ip, #-3924]	; 0xfffff0ac
    7a5c:	33545341 	cmpcc	r4, #67108865	; 0x4000001
    7a60:	414d5f32 	cmpmi	sp, r2, lsr pc
    7a64:	295f5f58 	ldmdbcs	pc, {r3, r4, r6, r8, r9, sl, fp, ip, lr}^	; <UNPREDICTABLE>
    7a68:	504f4500 	subpl	r4, pc, r0, lsl #10
    7a6c:	53544f4e 	cmppl	r4, #312	; 0x138
    7a70:	20505055 	subscs	r5, r0, r5, asr r0
    7a74:	53003539 	movwpl	r3, #1337	; 0x539
    7a78:	44454843 	strbmi	r4, [r5], #-2115	; 0xfffff7bd
    7a7c:	48544f5f 	ldmdami	r4, {r0, r1, r2, r3, r4, r6, r8, r9, sl, fp, lr}^
    7a80:	30205245 	eorcc	r5, r0, r5, asr #4
    7a84:	544e4900 	strbpl	r4, [lr], #-2304	; 0xfffff700
    7a88:	41454c5f 	cmpmi	r5, pc, asr ip
    7a8c:	5f385453 	svcpl	0x00385453
    7a90:	2058414d 	subscs	r4, r8, sp, asr #2
    7a94:	495f5f28 	ldmdbmi	pc, {r3, r5, r8, r9, sl, fp, ip, lr}^	; <UNPREDICTABLE>
    7a98:	4c5f544e 	cfldrdmi	mvd5, [pc], {78}	; 0x4e
    7a9c:	54534145 	ldrbpl	r4, [r3], #-325	; 0xfffffebb
    7aa0:	414d5f38 	cmpmi	sp, r8, lsr pc
    7aa4:	295f5f58 	ldmdbcs	pc, {r3, r4, r6, r8, r9, sl, fp, ip, lr}^	; <UNPREDICTABLE>
    7aa8:	44464e00 	strbmi	r4, [r6], #-3584	; 0xfffff200
    7aac:	53544942 	cmppl	r4, #1081344	; 0x108000
    7ab0:	464e5f20 	strbmi	r5, [lr], -r0, lsr #30
    7ab4:	54494244 	strbpl	r4, [r9], #-580	; 0xfffffdbc
    7ab8:	635f0053 	cmpvs	pc, #83	; 0x53
    7abc:	65736f6c 	ldrbvs	r6, [r3, #-3948]!	; 0xfffff094
    7ac0:	73695f00 	cmnvc	r9, #0, 30
    7ac4:	79747461 	ldmdbvc	r4!, {r0, r5, r6, sl, ip, sp, lr}^
    7ac8:	4f434500 	svcmi	0x00434500
    7acc:	45524e4e 	ldrbmi	r4, [r2, #-3662]	; 0xfffff1b2
    7ad0:	45535546 	ldrbmi	r5, [r3, #-1350]	; 0xfffffaba
    7ad4:	31312044 	teqcc	r1, r4, asr #32
    7ad8:	49550031 	ldmdbmi	r5, {r0, r4, r5}^
    7adc:	5f38544e 	svcpl	0x0038544e
    7ae0:	29782843 	ldmdbcs	r8!, {r0, r1, r6, fp, sp}^
    7ae4:	555f5f20 	ldrbpl	r5, [pc, #-3872]	; 6bcc <_Min_Stack_Size+0x67cc>
    7ae8:	38544e49 	ldmdacc	r4, {r0, r3, r6, r9, sl, fp, lr}^
    7aec:	7828435f 	stmdavc	r8!, {r0, r1, r2, r3, r4, r6, r8, r9, lr}
    7af0:	4d5f0029 	ldclmi	0, cr0, [pc, #-164]	; 7a54 <_Min_Stack_Size+0x7654>
    7af4:	54484341 	strbpl	r4, [r8], #-833	; 0xfffffcbf
    7af8:	5f454d49 	svcpl	0x00454d49
    7afc:	00205f48 	eoreq	r5, r0, r8, asr #30
    7b00:	55474953 	strbpl	r4, [r7, #-2387]	; 0xfffff6ad
    7b04:	20315253 	eorscs	r5, r1, r3, asr r2
    7b08:	44003033 	strmi	r3, [r0], #-51	; 0xffffffcd
    7b0c:	49617461 	stmdbmi	r1!, {r0, r5, r6, sl, ip, sp, lr}^
    7b10:	5f007864 	svcpl	0x00007864
    7b14:	43455355 	movtmi	r5, #21333	; 0x5355
    7b18:	53444e4f 	movtpl	r4, #20047	; 0x4e4f
    7b1c:	445f545f 	ldrbmi	r5, [pc], #-1119	; 7b24 <_Min_Stack_Size+0x7724>
    7b20:	414c4345 	cmpmi	ip, r5, asr #6
    7b24:	20444552 	subcs	r4, r4, r2, asr r5
    7b28:	4e495500 	cdpmi	5, 4, cr5, cr9, cr0, {0}
    7b2c:	5f343654 	svcpl	0x00343654
    7b30:	2058414d 	subscs	r4, r8, sp, asr #2
    7b34:	555f5f28 	ldrbpl	r5, [pc, #-3880]	; 6c14 <_Min_Stack_Size+0x6814>
    7b38:	36544e49 	ldrbcc	r4, [r4], -r9, asr #28
    7b3c:	414d5f34 	cmpmi	sp, r4, lsr pc
    7b40:	295f5f58 	ldmdbcs	pc, {r3, r4, r6, r8, r9, sl, fp, ip, lr}^	; <UNPREDICTABLE>
    7b44:	59535f00 	ldmdbpl	r3, {r8, r9, sl, fp, ip, lr}^
    7b48:	59545f53 	ldmdbpl	r4, {r0, r1, r4, r6, r8, r9, sl, fp, ip, lr}^
    7b4c:	5f534550 	svcpl	0x00534550
    7b50:	535f4446 	cmppl	pc, #1174405120	; 0x46000000
    7b54:	00205445 	eoreq	r5, r0, r5, asr #8
    7b58:	6578655f 	ldrbvs	r6, [r8, #-1375]!	; 0xfffffaa1
    7b5c:	00657663 	rsbeq	r7, r5, r3, ror #12
    7b60:	52485450 	subpl	r5, r8, #80, 8	; 0x50000000
    7b64:	5f444145 	svcpl	0x00444145
    7b68:	504f4353 	subpl	r4, pc, r3, asr r3	; <UNPREDICTABLE>
    7b6c:	52505f45 	subspl	r5, r0, #276	; 0x114
    7b70:	5345434f 	movtpl	r4, #21327	; 0x534f
    7b74:	00302053 	eorseq	r2, r0, r3, asr r0
    7b78:	58474953 	stmdapl	r7, {r0, r1, r4, r6, r8, fp, lr}^
    7b7c:	205a5346 	subscs	r5, sl, r6, asr #6
    7b80:	53003532 	movwpl	r3, #1330	; 0x532
    7b84:	49574749 	ldmdbmi	r7, {r0, r3, r6, r8, r9, sl, lr}^
    7b88:	2048434e 	subcs	r4, r8, lr, asr #6
    7b8c:	5f003832 	svcpl	0x00003832
    7b90:	45545942 	ldrbmi	r5, [r4, #-2370]	; 0xfffff6be
    7b94:	44524f5f 	ldrbmi	r4, [r2], #-3935	; 0xfffff0a1
    7b98:	5f205245 	svcpl	0x00205245
    7b9c:	5454494c 	ldrbpl	r4, [r4], #-2380	; 0xfffff6b4
    7ba0:	455f454c 	ldrbmi	r4, [pc, #-1356]	; 765c <_Min_Stack_Size+0x725c>
    7ba4:	4149444e 	cmpmi	r9, lr, asr #8
    7ba8:	5f53004e 	svcpl	0x0053004e
    7bac:	53555849 	cmppl	r5, #4784128	; 0x490000
    7bb0:	30302052 	eorscc	r2, r0, r2, asr r0
    7bb4:	30313030 	eorscc	r3, r1, r0, lsr r0
    7bb8:	4e490030 	mcrmi	0, 2, r0, cr9, cr0, {1}
    7bbc:	58414d54 	stmdapl	r1, {r2, r4, r6, r8, sl, fp, lr}^
    7bc0:	58414d5f 	stmdapl	r1, {r0, r1, r2, r3, r4, r6, r8, sl, fp, lr}^
    7bc4:	5f5f2820 	svcpl	0x005f2820
    7bc8:	4d544e49 	ldclmi	14, cr4, [r4, #-292]	; 0xfffffedc
    7bcc:	4d5f5841 	ldclmi	8, cr5, [pc, #-260]	; 7ad0 <_Min_Stack_Size+0x76d0>
    7bd0:	5f5f5841 	svcpl	0x005f5841
    7bd4:	4e490029 	cdpmi	0, 4, cr0, cr9, cr9, {1}
    7bd8:	5f323354 	svcpl	0x00323354
    7bdc:	2058414d 	subscs	r4, r8, sp, asr #2
    7be0:	495f5f28 	ldmdbmi	pc, {r3, r5, r8, r9, sl, fp, ip, lr}^	; <UNPREDICTABLE>
    7be4:	3233544e 	eorscc	r5, r3, #1308622848	; 0x4e000000
    7be8:	58414d5f 	stmdapl	r1, {r0, r1, r2, r3, r4, r6, r8, sl, fp, lr}^
    7bec:	00295f5f 	eoreq	r5, r9, pc, asr pc
    7bf0:	6f6d5f5f 	svcvs	0x006d5f5f
    7bf4:	745f6564 	ldrbvc	r6, [pc], #-1380	; 7bfc <_Min_Stack_Size+0x77fc>
    7bf8:	616c6600 	cmnvs	ip, r0, lsl #12
    7bfc:	5f007367 	svcpl	0x00007367
    7c00:	415f4e49 	cmpmi	pc, r9, asr #28
    7c04:	5f524444 	svcpl	0x00524444
    7c08:	45445f54 	strbmi	r5, [r4, #-3924]	; 0xfffff0ac
    7c0c:	52414c43 	subpl	r4, r1, #17152	; 0x4300
    7c10:	00204445 	eoreq	r4, r0, r5, asr #8
    7c14:	4b474953 	blmi	11da168 <_Min_Stack_Size+0x11d9d68>
    7c18:	204c4c49 	subcs	r4, ip, r9, asr #24
    7c1c:	5f5f0039 	svcpl	0x005f0039
    7c20:	61777362 	cmnvs	r7, r2, ror #6
    7c24:	28323370 	ldmdacs	r2!, {r4, r5, r6, r8, r9, ip, sp}
    7c28:	2029785f 	eorcs	r7, r9, pc, asr r8
    7c2c:	75625f5f 	strbvc	r5, [r2, #-3935]!	; 0xfffff0a1
    7c30:	69746c69 	ldmdbvs	r4!, {r0, r3, r5, r6, sl, fp, sp, lr}^
    7c34:	73625f6e 	cmnvc	r2, #440	; 0x1b8
    7c38:	33706177 	cmncc	r0, #-1073741795	; 0xc000001d
    7c3c:	785f2832 	ldmdavc	pc, {r1, r4, r5, fp, sp}^	; <UNPREDICTABLE>
    7c40:	49530029 	ldmdbmi	r3, {r0, r3, r5}^
    7c44:	47525547 	ldrbmi	r5, [r2, -r7, asr #10]
    7c48:	00363120 	eorseq	r3, r6, r0, lsr #2
    7c4c:	5359535f 	cmppl	r9, #2080374785	; 0x7c000001
    7c50:	5059545f 	subspl	r5, r9, pc, asr r4
    7c54:	485f5345 	ldmdami	pc, {r0, r2, r6, r8, r9, ip, lr}^	; <UNPREDICTABLE>
    7c58:	59420020 	stmdbpl	r2, {r5}^
    7c5c:	4f5f4554 	svcmi	0x005f4554
    7c60:	52454452 	subpl	r4, r5, #1375731712	; 0x52000000
    7c64:	59425f20 	stmdbpl	r2, {r5, r8, r9, sl, fp, ip, lr}^
    7c68:	4f5f4554 	svcmi	0x005f4554
    7c6c:	52454452 	subpl	r4, r5, #1375731712	; 0x52000000
    7c70:	495f5300 	ldmdbmi	pc, {r8, r9, ip, lr}^	; <UNPREDICTABLE>
    7c74:	46494653 			; <UNDEFINED> instruction: 0x46494653
    7c78:	296d284f 	stmdbcs	sp!, {r0, r1, r2, r3, r6, fp, sp}^
    7c7c:	28282820 	stmdacs	r8!, {r5, fp, sp}
    7c80:	5f26296d 	svcpl	0x0026296d
    7c84:	544d4649 	strbpl	r4, [sp], #-1609	; 0xfffff9b7
    7c88:	3d3d2029 	ldccc	0, cr2, [sp, #-164]!	; 0xffffff5c
    7c8c:	46495f20 	strbmi	r5, [r9], -r0, lsr #30
    7c90:	294f4649 	stmdbcs	pc, {r0, r3, r6, r9, sl, lr}^	; <UNPREDICTABLE>
    7c94:	4f4e4500 	svcmi	0x004e4500
    7c98:	4b4e494c 	blmi	139a1d0 <_Min_Stack_Size+0x1399dd0>
    7c9c:	00373620 	eorseq	r3, r7, r0, lsr #12
    7ca0:	5f755f5f 	svcpl	0x00755f5f
    7ca4:	726f6873 	rsbvc	r6, pc, #7536640	; 0x730000
    7ca8:	65645f74 	strbvs	r5, [r4, #-3956]!	; 0xfffff08c
    7cac:	656e6966 	strbvs	r6, [lr, #-2406]!	; 0xfffff69a
    7cb0:	73002064 	movwvc	r2, #100	; 0x64
    7cb4:	746d5f74 	strbtvc	r5, [sp], #-3956	; 0xfffff08c
    7cb8:	20656d69 	rsbcs	r6, r5, r9, ror #26
    7cbc:	6d5f7473 	cfldrdvs	mvd7, [pc, #-460]	; 7af8 <_Min_Stack_Size+0x76f8>
    7cc0:	2e6d6974 			; <UNDEFINED> instruction: 0x2e6d6974
    7cc4:	735f7674 	cmpvc	pc, #116, 12	; 0x7400000
    7cc8:	74006365 	strvc	r6, [r0], #-869	; 0xfffffc9b
    7ccc:	735f736d 	cmpvc	pc, #-1275068415	; 0xb4000001
    7cd0:	656d6974 	strbvs	r6, [sp, #-2420]!	; 0xfffff68c
    7cd4:	544e4900 	strbpl	r4, [lr], #-2304	; 0xfffff700
    7cd8:	41454c5f 	cmpmi	r5, pc, asr ip
    7cdc:	32335453 	eorscc	r5, r3, #1392508928	; 0x53000000
    7ce0:	4e494d5f 	mcrmi	13, 2, r4, cr9, cr15, {2}
    7ce4:	5f2d2820 	svcpl	0x002d2820
    7ce8:	544e495f 	strbpl	r4, [lr], #-2399	; 0xfffff6a1
    7cec:	41454c5f 	cmpmi	r5, pc, asr ip
    7cf0:	32335453 	eorscc	r5, r3, #1392508928	; 0x53000000
    7cf4:	58414d5f 	stmdapl	r1, {r0, r1, r2, r3, r4, r6, r8, sl, fp, lr}^
    7cf8:	2d205f5f 	stccs	15, cr5, [r0, #-380]!	; 0xfffffe84
    7cfc:	00293120 	eoreq	r3, r9, r0, lsr #2
    7d00:	5f544253 	svcpl	0x00544253
    7d04:	28205331 	stmdacs	r0!, {r0, r4, r5, r8, r9, ip, lr}
    7d08:	69627328 	stmdbvs	r2!, {r3, r5, r8, r9, ip, sp, lr}^
    7d0c:	6d69746e 	cfstrdvs	mvd7, [r9, #-440]!	; 0xfffffe48
    7d10:	29745f65 	ldmdbcs	r4!, {r0, r2, r5, r6, r8, r9, sl, fp, ip, lr}^
    7d14:	3c3c2031 	ldccc	0, cr2, [ip], #-196	; 0xffffff3c
    7d18:	29323320 	ldmdbcs	r2!, {r5, r8, r9, ip, sp}
    7d1c:	495f5300 	ldmdbmi	pc, {r8, r9, ip, lr}^	; <UNPREDICTABLE>
    7d20:	52484346 	subpl	r4, r8, #402653185	; 0x18000001
    7d24:	46495f20 	strbmi	r5, [r9], -r0, lsr #30
    7d28:	00524843 	subseq	r4, r2, r3, asr #16
    7d2c:	5359535f 	cmppl	r9, #2080374785	; 0x7c000001
    7d30:	49545f5f 	ldmdbmi	r4, {r0, r1, r2, r3, r4, r6, r8, r9, sl, fp, ip, lr}^
    7d34:	4156454d 	cmpmi	r6, sp, asr #10
    7d38:	5f485f4c 	svcpl	0x00485f4c
    7d3c:	53450020 	movtpl	r0, #20512	; 0x5020
    7d40:	20484352 	subcs	r4, r8, r2, asr r3
    7d44:	4e490033 	mcrmi	0, 2, r0, cr9, cr3, {1}
    7d48:	454c5f54 	strbmi	r5, [ip, #-3924]	; 0xfffff0ac
    7d4c:	31545341 	cmpcc	r4, r1, asr #6
    7d50:	494d5f36 	stmdbmi	sp, {r1, r2, r4, r5, r8, r9, sl, fp, ip, lr}^
    7d54:	2d28204e 	stccs	0, cr2, [r8, #-312]!	; 0xfffffec8
    7d58:	4e495f5f 	mcrmi	15, 2, r5, cr9, cr15, {2}
    7d5c:	454c5f54 	strbmi	r5, [ip, #-3924]	; 0xfffff0ac
    7d60:	31545341 	cmpcc	r4, r1, asr #6
    7d64:	414d5f36 	cmpmi	sp, r6, lsr pc
    7d68:	205f5f58 	subscs	r5, pc, r8, asr pc	; <UNPREDICTABLE>
    7d6c:	2931202d 	ldmdbcs	r1!, {r0, r2, r3, r5, sp}
    7d70:	5f444600 	svcpl	0x00444600
    7d74:	28544553 	ldmdacs	r4, {r0, r1, r4, r6, r8, sl, lr}^
    7d78:	29702c6e 	ldmdbcs	r0!, {r1, r2, r3, r5, r6, sl, fp, sp}^
    7d7c:	70282820 	eorvc	r2, r8, r0, lsr #16
    7d80:	5f3e2d29 	svcpl	0x003e2d29
    7d84:	7364665f 	cmnvc	r4, #99614720	; 0x5f00000
    7d88:	7469625f 	strbtvc	r6, [r9], #-607	; 0xfffffda1
    7d8c:	6e285b73 	vmovvs.16	d8[3], r5
    7d90:	4e5f2f29 	cdpmi	15, 5, cr2, cr15, cr9, {1}
    7d94:	49424446 	stmdbmi	r2, {r1, r2, r6, sl, lr}^
    7d98:	205d5354 	subscs	r5, sp, r4, asr r3
    7d9c:	5f203d7c 	svcpl	0x00203d7c
    7da0:	7364665f 	cmnvc	r4, #99614720	; 0x5f00000
    7da4:	6d5f7465 	cfldrdvs	mvd7, [pc, #-404]	; 7c18 <_Min_Stack_Size+0x7818>
    7da8:	286b7361 	stmdacs	fp!, {r0, r5, r6, r8, r9, ip, sp, lr}^
    7dac:	0029296e 	eoreq	r2, r9, lr, ror #18
    7db0:	46495f53 			; <UNDEFINED> instruction: 0x46495f53
    7db4:	204f4649 	subcs	r4, pc, r9, asr #12
    7db8:	4946495f 	stmdbmi	r6, {r0, r1, r2, r3, r4, r6, r8, fp, lr}^
    7dbc:	5f004f46 	svcpl	0x00004f46
    7dc0:	6461635f 	strbtvs	r6, [r1], #-863	; 0xfffffca1
    7dc4:	745f7264 	ldrbvc	r7, [pc], #-612	; 7dcc <_Min_Stack_Size+0x79cc>
    7dc8:	6665645f 			; <UNDEFINED> instruction: 0x6665645f
    7dcc:	64656e69 	strbtvs	r6, [r5], #-3689	; 0xfffff197
    7dd0:	6d740020 	ldclvs	0, cr0, [r4, #-128]!	; 0xffffff80
    7dd4:	74755f73 	ldrbtvc	r5, [r5], #-3955	; 0xfffff08d
    7dd8:	00656d69 	rsbeq	r6, r5, r9, ror #26
    7ddc:	656c6966 	strbvs	r6, [ip, #-2406]!	; 0xfffff69a
    7de0:	46495f00 	strbmi	r5, [r9], -r0, lsl #30
    7de4:	4b434f53 	blmi	10dbb38 <_Min_Stack_Size+0x10db738>
    7de8:	34313020 	ldrtcc	r3, [r1], #-32	; 0xffffffe0
    7dec:	30303030 	eorscc	r3, r0, r0, lsr r0
    7df0:	4e495500 	cdpmi	5, 4, cr5, cr9, cr0, {0}
    7df4:	41465f54 	cmpmi	r6, r4, asr pc
    7df8:	34365453 	ldrtcc	r5, [r6], #-1107	; 0xfffffbad
    7dfc:	58414d5f 	stmdapl	r1, {r0, r1, r2, r3, r4, r6, r8, sl, fp, lr}^
    7e00:	5f5f2820 	svcpl	0x005f2820
    7e04:	544e4955 	strbpl	r4, [lr], #-2389	; 0xfffff6ab
    7e08:	5341465f 	movtpl	r4, #5727	; 0x165f
    7e0c:	5f343654 	svcpl	0x00343654
    7e10:	5f58414d 	svcpl	0x0058414d
    7e14:	4900295f 	stmdbmi	r0, {r0, r1, r2, r3, r4, r6, r8, fp, sp}
    7e18:	454d4954 	strbmi	r4, [sp, #-2388]	; 0xfffff6ac
    7e1c:	45525f52 	ldrbmi	r5, [r2, #-3922]	; 0xfffff0ae
    7e20:	30204c41 	eorcc	r4, r0, r1, asr #24
    7e24:	4d495400 	cfstrdmi	mvd5, [r9, #-0]
    7e28:	415f5245 	cmpmi	pc, r5, asr #4
    7e2c:	49545342 	ldmdbmi	r4, {r1, r6, r8, r9, ip, lr}^
    7e30:	3420454d 	strtcc	r4, [r0], #-1357	; 0xfffffab3
    7e34:	495f5300 	ldmdbmi	pc, {r8, r9, ip, lr}^	; <UNPREDICTABLE>
    7e38:	44495553 	strbmi	r5, [r9], #-1363	; 0xfffffaad
    7e3c:	30303020 	eorscc	r3, r0, r0, lsr #32
    7e40:	30303034 	eorscc	r3, r0, r4, lsr r0
    7e44:	47414500 	strbmi	r4, [r1, -r0, lsl #10]
    7e48:	204e4941 	subcs	r4, lr, r1, asr #18
    7e4c:	49003131 	stmdbmi	r0, {r0, r4, r5, r8, ip, sp}
    7e50:	4c5f544e 	cfldrdmi	mvd5, [pc], {78}	; 0x4e
    7e54:	54534145 	ldrbpl	r4, [r3], #-325	; 0xfffffebb
    7e58:	4d5f3631 	ldclmi	6, cr3, [pc, #-196]	; 7d9c <_Min_Stack_Size+0x799c>
    7e5c:	28205841 	stmdacs	r0!, {r0, r6, fp, ip, lr}
    7e60:	4e495f5f 	mcrmi	15, 2, r5, cr9, cr15, {2}
    7e64:	454c5f54 	strbmi	r5, [ip, #-3924]	; 0xfffff0ac
    7e68:	31545341 	cmpcc	r4, r1, asr #6
    7e6c:	414d5f36 	cmpmi	sp, r6, lsr pc
    7e70:	295f5f58 	ldmdbcs	pc, {r3, r4, r6, r8, r9, sl, fp, ip, lr}^	; <UNPREDICTABLE>
    7e74:	4c425f00 	mcrrmi	15, 0, r5, r2, cr0
    7e78:	5a49534b 	bpl	125cbac <_Min_Stack_Size+0x125c7ac>
    7e7c:	5f545f45 	svcpl	0x00545f45
    7e80:	4c434544 	cfstr64mi	mvdx4, [r3], {68}	; 0x44
    7e84:	44455241 	strbmi	r5, [r5], #-577	; 0xfffffdbf
    7e88:	4c410020 	mcrrmi	0, 2, r0, r1, cr0
    7e8c:	5245504c 	subpl	r5, r5, #76	; 0x4c
    7e90:	2820534d 	stmdacs	r0!, {r0, r2, r3, r6, r8, r9, ip, lr}
    7e94:	53495f53 	movtpl	r5, #40787	; 0x9f53
    7e98:	20444955 	subcs	r4, r4, r5, asr r9
    7e9c:	5f53207c 	svcpl	0x0053207c
    7ea0:	49475349 	stmdbmi	r7, {r0, r3, r6, r8, r9, ip, lr}^
    7ea4:	207c2044 	rsbscs	r2, ip, r4, asr #32
    7ea8:	53495f53 	movtpl	r5, #40787	; 0x9f53
    7eac:	20585456 	subscs	r5, r8, r6, asr r4
    7eb0:	5f53207c 	svcpl	0x0053207c
    7eb4:	58575249 	ldmdapl	r7, {r0, r3, r6, r9, ip, lr}^
    7eb8:	207c2055 	rsbscs	r2, ip, r5, asr r0
    7ebc:	52495f53 	subpl	r5, r9, #332	; 0x14c
    7ec0:	20475857 	subcs	r5, r7, r7, asr r8
    7ec4:	5f53207c 	svcpl	0x0053207c
    7ec8:	58575249 	ldmdapl	r7, {r0, r3, r6, r9, ip, lr}^
    7ecc:	5500294f 	strpl	r2, [r0, #-2383]	; 0xfffff6b1
    7ed0:	31544e49 	cmpcc	r4, r9, asr #28
    7ed4:	28435f36 	stmdacs	r3, {r1, r2, r4, r5, r8, r9, sl, fp, ip, lr}^
    7ed8:	5f202978 	svcpl	0x00202978
    7edc:	4e49555f 	mcrmi	5, 2, r5, cr9, cr15, {2}
    7ee0:	5f363154 	svcpl	0x00363154
    7ee4:	29782843 	ldmdbcs	r8!, {r0, r1, r6, fp, sp}^
    7ee8:	4e495f00 	cdpmi	15, 4, cr5, cr9, cr0, {0}
    7eec:	5f363154 	svcpl	0x00363154
    7ef0:	45445f54 	strbmi	r5, [r4, #-3924]	; 0xfffff0ac
    7ef4:	52414c43 	subpl	r4, r1, #17152	; 0x4300
    7ef8:	00204445 	eoreq	r4, r0, r5, asr #8
    7efc:	44414245 	strbmi	r4, [r1], #-581	; 0xfffffdbb
    7f00:	00392046 	eorseq	r2, r9, r6, asr #32
    7f04:	4253465f 	subsmi	r4, r3, #99614720	; 0x5f00000
    7f08:	4e434b4c 	vmlsmi.f64	d20, d3, d12
    7f0c:	5f545f54 	svcpl	0x00545f54
    7f10:	4c434544 	cfstr64mi	mvdx4, [r3], {68}	; 0x44
    7f14:	44455241 	strbmi	r5, [r5], #-577	; 0xfffffdbf
    7f18:	49570020 	ldmdbmi	r7, {r5}^
    7f1c:	4d5f544e 	cfldrdmi	mvd5, [pc, #-312]	; 7dec <_Min_Stack_Size+0x79ec>
    7f20:	28204e49 	stmdacs	r0!, {r0, r3, r6, r9, sl, fp, lr}
    7f24:	49575f5f 	ldmdbmi	r7, {r0, r1, r2, r3, r4, r6, r8, r9, sl, fp, ip, lr}^
    7f28:	4d5f544e 	cfldrdmi	mvd5, [pc, #-312]	; 7df8 <_Min_Stack_Size+0x79f8>
    7f2c:	5f5f4e49 	svcpl	0x005f4e49
    7f30:	5f5f0029 	svcpl	0x005f0029
    7f34:	5f66666f 	svcpl	0x0066666f
    7f38:	48450074 	stmdami	r5, {r2, r4, r5, r6}^
    7f3c:	5554534f 	ldrbpl	r5, [r4, #-847]	; 0xfffffcb1
    7f40:	4145524e 	cmpmi	r5, lr, asr #4
    7f44:	31204843 			; <UNDEFINED> instruction: 0x31204843
    7f48:	5f003831 	svcpl	0x00003831
    7f4c:	4e4c4649 	cdpmi	6, 4, cr4, cr12, cr9, {2}
    7f50:	3130204b 	teqcc	r0, fp, asr #32
    7f54:	30303032 	eorscc	r3, r0, r2, lsr r0
    7f58:	50450030 	subpl	r0, r5, r0, lsr r0
    7f5c:	4f544f52 	svcmi	0x00544f52
    7f60:	55534f4e 	ldrbpl	r4, [r3, #-3918]	; 0xfffff0b2
    7f64:	524f5050 	subpl	r5, pc, #80	; 0x50
    7f68:	32312054 	eorscc	r2, r1, #84	; 0x54
    7f6c:	4e490033 	mcrmi	0, 2, r0, cr9, cr3, {1}
    7f70:	5f343654 	svcpl	0x00343654
    7f74:	29782843 	ldmdbcs	r8!, {r0, r1, r6, fp, sp}^
    7f78:	495f5f20 	ldmdbmi	pc, {r5, r8, r9, sl, fp, ip, lr}^	; <UNPREDICTABLE>
    7f7c:	3436544e 	ldrtcc	r5, [r6], #-1102	; 0xfffffbb2
    7f80:	7828435f 	stmdavc	r8!, {r0, r1, r2, r3, r4, r6, r8, r9, lr}
    7f84:	53450029 	movtpl	r0, #20521	; 0x5029
    7f88:	45504950 	ldrbmi	r4, [r0, #-2384]	; 0xfffff6b0
    7f8c:	00393220 	eorseq	r3, r9, r0, lsr #4
    7f90:	5044505f 	subpl	r5, r4, pc, asr r0
    7f94:	444e455f 	strbmi	r4, [lr], #-1375	; 0xfffffaa1
    7f98:	204e4149 	subcs	r4, lr, r9, asr #2
    7f9c:	32313433 	eorscc	r3, r1, #855638016	; 0x33000000
    7fa0:	59535f00 	ldmdbpl	r3, {r8, r9, sl, fp, ip, lr}^
    7fa4:	52455f53 	subpl	r5, r5, #332	; 0x14c
    7fa8:	5f4f4e52 	svcpl	0x004f4e52
    7fac:	00205f48 	eoreq	r5, r0, r8, asr #30
    7fb0:	38544e49 	ldmdacc	r4, {r0, r3, r6, r9, sl, fp, lr}^
    7fb4:	4e494d5f 	mcrmi	13, 2, r4, cr9, cr15, {2}
    7fb8:	5f2d2820 	svcpl	0x002d2820
    7fbc:	544e495f 	strbpl	r4, [lr], #-2399	; 0xfffff6a1
    7fc0:	414d5f38 	cmpmi	sp, r8, lsr pc
    7fc4:	205f5f58 	subscs	r5, pc, r8, asr pc	; <UNPREDICTABLE>
    7fc8:	2931202d 	ldmdbcs	r1!, {r0, r2, r3, r5, sp}
    7fcc:	5f747300 	svcpl	0x00747300
    7fd0:	00646967 	rsbeq	r6, r4, r7, ror #18
    7fd4:	4e495f5f 	mcrmi	15, 2, r5, cr9, cr15, {2}
    7fd8:	20363154 	eorscs	r3, r6, r4, asr r1
    7fdc:	00226822 	eoreq	r6, r2, r2, lsr #16
    7fe0:	6e695f5f 	mcrvs	15, 3, r5, cr9, cr15, {2}
    7fe4:	61665f74 	smcvs	26100	; 0x65f4
    7fe8:	5f387473 	svcpl	0x00387473
    7fec:	65645f74 	strbvs	r5, [r4, #-3956]!	; 0xfffff08c
    7ff0:	656e6966 	strbvs	r6, [lr, #-2406]!	; 0xfffff69a
    7ff4:	00312064 	eorseq	r2, r1, r4, rrx
    7ff8:	544e495f 	strbpl	r4, [lr], #-2399	; 0xfffff6a1
    7ffc:	5f525450 	svcpl	0x00525450
    8000:	495f5145 	ldmdbmi	pc, {r0, r2, r6, r8, ip, lr}^	; <UNPREDICTABLE>
    8004:	0020544e 	eoreq	r5, r0, lr, asr #8
    8008:	545f4953 	ldrbpl	r4, [pc], #-2387	; 8010 <_Min_Stack_Size+0x7c10>
    800c:	52454d49 	subpl	r4, r5, #4672	; 0x1240
    8010:	53003320 	movwpl	r3, #800	; 0x320
    8014:	53555f49 	cmppl	r5, #292	; 0x124
    8018:	31205245 			; <UNDEFINED> instruction: 0x31205245
    801c:	49584500 	ldmdbmi	r8, {r8, sl, lr}^
    8020:	41465f54 	cmpmi	r6, r4, asr pc
    8024:	52554c49 	subspl	r4, r5, #18688	; 0x4900
    8028:	00312045 	eorseq	r2, r1, r5, asr #32
    802c:	776f685f 			; <UNDEFINED> instruction: 0x776f685f
    8030:	796e616d 	stmdbvc	lr!, {r0, r2, r3, r5, r6, r8, sp, lr}^
    8034:	792c7828 	stmdbvc	ip!, {r3, r5, fp, ip, sp, lr}
    8038:	28282029 	stmdacs	r8!, {r0, r3, r5, sp}
    803c:	20297828 	eorcs	r7, r9, r8, lsr #16
    8040:	2828202b 	stmdacs	r8!, {r0, r1, r3, r5, sp}
    8044:	2d202979 			; <UNDEFINED> instruction: 0x2d202979
    8048:	29293120 	stmdbcs	r9!, {r5, r8, ip, sp}
    804c:	28202f20 	stmdacs	r0!, {r5, r8, r9, sl, fp, sp}
    8050:	00292979 	eoreq	r2, r9, r9, ror r9
    8054:	4446495f 	strbmi	r4, [r6], #-2399	; 0xfffff6a1
    8058:	30205249 	eorcc	r5, r0, r9, asr #4
    805c:	30303430 	eorscc	r3, r0, r0, lsr r4
    8060:	5f003030 	svcpl	0x00003030
    8064:	6e69755f 	mcrvs	5, 3, r7, cr9, cr15, {2}
    8068:	5f323374 	svcpl	0x00323374
    806c:	74730074 	ldrbtvc	r0, [r3], #-116	; 0xffffff8c
    8070:	73757461 	cmnvc	r5, #1627389952	; 0x61000000
    8074:	4f434500 	svcmi	0x00434500
    8078:	42414e4e 	submi	r4, r1, #1248	; 0x4e0
    807c:	4554524f 	ldrbmi	r5, [r4, #-591]	; 0xfffffdb1
    8080:	31312044 	teqcc	r1, r4, asr #32
    8084:	54490033 	strbpl	r0, [r9], #-51	; 0xffffffcd
    8088:	65535f4d 	ldrbvs	r5, [r3, #-3917]	; 0xfffff0b3
    808c:	6843646e 	stmdavs	r3, {r1, r2, r3, r5, r6, sl, sp, lr}^
    8090:	74007261 	strvc	r7, [r0], #-609	; 0xfffffd9f
    8094:	6d616e7a 	stclvs	14, cr6, [r1, #-488]!	; 0xfffffe18
    8098:	745f2065 	ldrbvc	r2, [pc], #-101	; 80a0 <_Min_Stack_Size+0x7ca0>
    809c:	6d616e7a 	stclvs	14, cr6, [r1, #-488]!	; 0xfffffe18
    80a0:	4e490065 	cdpmi	0, 4, cr0, cr9, cr5, {3}
    80a4:	435f3854 	cmpmi	pc, #84, 16	; 0x540000
    80a8:	20297828 	eorcs	r7, r9, r8, lsr #16
    80ac:	4e495f5f 	mcrmi	15, 2, r5, cr9, cr15, {2}
    80b0:	435f3854 	cmpmi	pc, #84, 16	; 0x540000
    80b4:	00297828 	eoreq	r7, r9, r8, lsr #16
    80b8:	5359535f 	cmppl	r9, #2080374785	; 0x7c000001
    80bc:	54535f5f 	ldrbpl	r5, [r3], #-3935	; 0xfffff0a1
    80c0:	544e4944 	strbpl	r4, [lr], #-2372	; 0xfffff6bc
    80c4:	0020485f 	eoreq	r4, r0, pc, asr r8
    80c8:	53474953 	movtpl	r4, #31059	; 0x7953
    80cc:	5a534b54 	bpl	14dae24 <_Min_Stack_Size+0x14daa24>
    80d0:	39313820 	ldmdbcc	r1!, {r5, fp, ip, sp}
    80d4:	5f530032 	svcpl	0x00530032
    80d8:	544f5749 	strbpl	r5, [pc], #-1865	; 80e0 <_Min_Stack_Size+0x7ce0>
    80dc:	30302048 	eorscc	r2, r0, r8, asr #32
    80e0:	30303030 	eorscc	r3, r0, r0, lsr r0
    80e4:	4e450032 	mcrmi	0, 2, r0, cr5, cr2, {1}
    80e8:	4f52504f 	svcmi	0x0052504f
    80ec:	504f4f54 	subpl	r4, pc, r4, asr pc	; <UNPREDICTABLE>
    80f0:	30312054 	eorscc	r2, r1, r4, asr r0
    80f4:	535f0039 	cmppl	pc, #57	; 0x39
    80f8:	5f5f5359 	svcpl	0x005f5359
    80fc:	53544e49 	cmppl	r4, #1168	; 0x490
    8100:	485f5055 	ldmdami	pc, {r0, r2, r4, r6, ip, lr}^	; <UNPREDICTABLE>
    8104:	5f5f0020 	svcpl	0x005f0020
    8108:	54534146 	ldrbpl	r4, [r3], #-326	; 0xfffffeba
    810c:	22203436 	eorcs	r3, r0, #905969664	; 0x36000000
    8110:	00226c6c 	eoreq	r6, r2, ip, ror #24
    8114:	69736e75 	ldmdbvs	r3!, {r0, r2, r4, r5, r6, r9, sl, fp, sp, lr}^
    8118:	64656e67 	strbtvs	r6, [r5], #-3687	; 0xfffff199
    811c:	00302b20 	eorseq	r2, r0, r0, lsr #22
    8120:	52455f5f 	subpl	r5, r5, #380	; 0x17c
    8124:	5f4f4e52 	svcpl	0x004f4e52
    8128:	205f5f48 	subscs	r5, pc, r8, asr #30
    812c:	746e6900 	strbtvc	r6, [lr], #-2304	; 0xfffff700
    8130:	00322b20 	eorseq	r2, r2, r0, lsr #22
    8134:	544e4955 	strbpl	r4, [lr], #-2389	; 0xfffff6ab
    8138:	5f58414d 	svcpl	0x0058414d
    813c:	2058414d 	subscs	r4, r8, sp, asr #2
    8140:	555f5f28 	ldrbpl	r5, [pc, #-3880]	; 7220 <_Min_Stack_Size+0x6e20>
    8144:	4d544e49 	ldclmi	14, cr4, [r4, #-292]	; 0xfffffedc
    8148:	4d5f5841 	ldclmi	8, cr5, [pc, #-260]	; 804c <_Min_Stack_Size+0x7c4c>
    814c:	5f5f5841 	svcpl	0x005f5841
    8150:	4e490029 	cdpmi	0, 4, cr0, cr9, cr9, {1}
    8154:	41465f54 	cmpmi	r6, r4, asr pc
    8158:	32335453 	eorscc	r5, r3, #1392508928	; 0x53000000
    815c:	4e494d5f 	mcrmi	13, 2, r4, cr9, cr15, {2}
    8160:	5f2d2820 	svcpl	0x002d2820
    8164:	544e495f 	strbpl	r4, [lr], #-2399	; 0xfffff6a1
    8168:	5341465f 	movtpl	r4, #5727	; 0x165f
    816c:	5f323354 	svcpl	0x00323354
    8170:	5f58414d 	svcpl	0x0058414d
    8174:	202d205f 	eorcs	r2, sp, pc, asr r0
    8178:	52002931 	andpl	r2, r0, #802816	; 0xc4000
    817c:	5f444e41 	svcpl	0x00444e41
    8180:	2058414d 	subscs	r4, r8, sp, asr #2
    8184:	41525f5f 	cmpmi	r2, pc, asr pc
    8188:	4d5f444e 	cfldrdmi	mvd4, [pc, #-312]	; 8058 <_Min_Stack_Size+0x7c58>
    818c:	5f005841 	svcpl	0x00005841
    8190:	7773625f 			; <UNDEFINED> instruction: 0x7773625f
    8194:	36317061 	ldrtcc	r7, [r1], -r1, rrx
    8198:	29785f28 	ldmdbcs	r8!, {r3, r5, r8, r9, sl, fp, ip, lr}^
    819c:	625f5f20 	subsvs	r5, pc, #32, 30	; 0x80
    81a0:	746c6975 	strbtvc	r6, [ip], #-2421	; 0xfffff68b
    81a4:	625f6e69 	subsvs	r6, pc, #1680	; 0x690
    81a8:	70617773 	rsbvc	r7, r1, r3, ror r7
    81ac:	5f283631 	svcpl	0x00283631
    81b0:	45002978 	strmi	r2, [r0, #-2424]	; 0xfffff688
    81b4:	52444441 	subpl	r4, r4, #1090519040	; 0x41000000
    81b8:	53554e49 	cmppl	r5, #1168	; 0x490
    81bc:	31312045 	teqcc	r1, r5, asr #32
    81c0:	69740032 	ldmdbvs	r4!, {r1, r4, r5}^
    81c4:	7073656d 	rsbsvc	r6, r3, sp, ror #10
    81c8:	75736365 	ldrbvc	r6, [r3, #-869]!	; 0xfffffc9b
    81cc:	73742862 	cmnvc	r4, #6422528	; 0x620000
    81d0:	73752c70 	cmnvc	r5, #112, 24	; 0x7000
    81d4:	73762c70 	cmnvc	r6, #112, 24	; 0x7000
    81d8:	64202970 	strtvs	r2, [r0], #-2416	; 0xfffff690
    81dc:	207b206f 	rsbscs	r2, fp, pc, rrx
    81e0:	70737628 	rsbsvc	r7, r3, r8, lsr #12
    81e4:	743e2d29 	ldrtvc	r2, [lr], #-3369	; 0xfffff2d7
    81e8:	65735f76 	ldrbvs	r5, [r3, #-3958]!	; 0xfffff08a
    81ec:	203d2063 	eorscs	r2, sp, r3, rrx
    81f0:	70737428 	rsbsvc	r7, r3, r8, lsr #8
    81f4:	743e2d29 	ldrtvc	r2, [lr], #-3369	; 0xfffff2d7
    81f8:	65735f76 	ldrbvs	r5, [r3, #-3958]!	; 0xfffff08a
    81fc:	202d2063 	eorcs	r2, sp, r3, rrx
    8200:	70737528 	rsbsvc	r7, r3, r8, lsr #10
    8204:	743e2d29 	ldrtvc	r2, [lr], #-3369	; 0xfffff2d7
    8208:	65735f76 	ldrbvs	r5, [r3, #-3958]!	; 0xfffff08a
    820c:	28203b63 	stmdacs	r0!, {r0, r1, r5, r6, r8, r9, fp, ip, sp}
    8210:	29707376 	ldmdbcs	r0!, {r1, r2, r4, r5, r6, r8, r9, ip, sp, lr}^
    8214:	76743e2d 	ldrbtvc	r3, [r4], -sp, lsr #28
    8218:	65736e5f 	ldrbvs	r6, [r3, #-3679]!	; 0xfffff1a1
    821c:	203d2063 	eorscs	r2, sp, r3, rrx
    8220:	70737428 	rsbsvc	r7, r3, r8, lsr #8
    8224:	743e2d29 	ldrtvc	r2, [lr], #-3369	; 0xfffff2d7
    8228:	736e5f76 	cmnvc	lr, #472	; 0x1d8
    822c:	2d206365 	stccs	3, cr6, [r0, #-404]!	; 0xfffffe6c
    8230:	73752820 	cmnvc	r5, #32, 16	; 0x200000
    8234:	3e2d2970 			; <UNDEFINED> instruction: 0x3e2d2970
    8238:	6e5f7674 	mrcvs	6, 2, r7, cr15, cr4, {3}
    823c:	3b636573 	blcc	18e1810 <_Min_Stack_Size+0x18e1410>
    8240:	20666920 	rsbcs	r6, r6, r0, lsr #18
    8244:	73762828 	cmnvc	r6, #40, 16	; 0x280000
    8248:	3e2d2970 			; <UNDEFINED> instruction: 0x3e2d2970
    824c:	6e5f7674 	mrcvs	6, 2, r7, cr15, cr4, {3}
    8250:	20636573 	rsbcs	r6, r3, r3, ror r5
    8254:	2930203c 	ldmdbcs	r0!, {r2, r3, r4, r5, sp}
    8258:	28207b20 	stmdacs	r0!, {r5, r8, r9, fp, ip, sp, lr}
    825c:	29707376 	ldmdbcs	r0!, {r1, r2, r4, r5, r6, r8, r9, ip, sp, lr}^
    8260:	76743e2d 	ldrbtvc	r3, [r4], -sp, lsr #28
    8264:	6365735f 	cmnvs	r5, #2080374785	; 0x7c000001
    8268:	203b2d2d 	eorscs	r2, fp, sp, lsr #26
    826c:	70737628 	rsbsvc	r7, r3, r8, lsr #12
    8270:	743e2d29 	ldrtvc	r2, [lr], #-3369	; 0xfffff2d7
    8274:	736e5f76 	cmnvc	lr, #472	; 0x1d8
    8278:	2b206365 	blcs	821014 <_Min_Stack_Size+0x820c14>
    827c:	3031203d 	eorscc	r2, r1, sp, lsr r0
    8280:	30303030 	eorscc	r3, r0, r0, lsr r0
    8284:	30303030 	eorscc	r3, r0, r0, lsr r0
    8288:	7d203b4c 	vstmdbvc	r0!, {d3-<overflow reg d40>}
    828c:	77207d20 	strvc	r7, [r0, -r0, lsr #26]!
    8290:	656c6968 	strbvs	r6, [ip, #-2408]!	; 0xfffff698
    8294:	29302820 	ldmdbcs	r0!, {r5, fp, sp}
    8298:	48435300 	stmdami	r3, {r8, r9, ip, lr}^
    829c:	465f4445 	ldrbmi	r4, [pc], -r5, asr #8
    82a0:	204f4649 	subcs	r4, pc, r9, asr #12
    82a4:	72610031 	rsbvc	r0, r1, #49	; 0x31
    82a8:	5f007667 	svcpl	0x00007667
    82ac:	6b6c625f 	blvs	1b20c30 <_Min_Stack_Size+0x1b20830>
    82b0:	5f746e63 	svcpl	0x00746e63
    82b4:	49530074 	ldmdbmi	r3, {r2, r4, r5, r6}^
    82b8:	4f545347 	svcmi	0x00545347
    82bc:	37312050 			; <UNDEFINED> instruction: 0x37312050
    82c0:	494c5f00 	stmdbmi	ip, {r8, r9, sl, fp, ip, lr}^
    82c4:	454c5454 	strbmi	r5, [ip, #-1108]	; 0xfffffbac
    82c8:	444e455f 	strbmi	r4, [lr], #-1375	; 0xfffffaa1
    82cc:	204e4149 	subcs	r4, lr, r9, asr #2
    82d0:	34333231 	ldrtcc	r3, [r3], #-561	; 0xfffffdcf
    82d4:	47495300 	strbmi	r5, [r9, -r0, lsl #6]
    82d8:	54534f4c 	ldrbpl	r4, [r3], #-3916	; 0xfffff0b4
    82dc:	00393220 	eorseq	r3, r9, r0, lsr #4
    82e0:	4d4f4e45 	stclmi	14, cr4, [pc, #-276]	; 81d4 <_Min_Stack_Size+0x7dd4>
    82e4:	31204d45 			; <UNDEFINED> instruction: 0x31204d45
    82e8:	5f5f0032 	svcpl	0x005f0032
    82ec:	5f6f6e69 	svcpl	0x006f6e69
    82f0:	32450074 	subcc	r0, r5, #116	; 0x74
    82f4:	20474942 	subcs	r4, r7, r2, asr #18
    82f8:	69730037 	ldmdbvs	r3!, {r0, r1, r2, r4, r5}^
    82fc:	706d6567 	rsbvc	r6, sp, r7, ror #10
    8300:	65737974 	ldrbvs	r7, [r3, #-2420]!	; 0xfffff68c
    8304:	68772874 	ldmdavs	r7!, {r2, r4, r5, r6, fp, sp}^
    8308:	20297461 	eorcs	r7, r9, r1, ror #8
    830c:	77282a28 	strvc	r2, [r8, -r8, lsr #20]!
    8310:	29746168 	ldmdbcs	r4!, {r3, r5, r6, r8, sp, lr}^
    8314:	30203d20 	eorcc	r3, r0, r0, lsr #26
    8318:	2930202c 	ldmdbcs	r0!, {r2, r3, r5, sp}
    831c:	544e4900 	strbpl	r4, [lr], #-2304	; 0xfffff700
    8320:	4d5f3436 	cfldrdmi	mvd3, [pc, #-216]	; 8250 <_Min_Stack_Size+0x7e50>
    8324:	28205841 	stmdacs	r0!, {r0, r6, fp, ip, lr}
    8328:	4e495f5f 	mcrmi	15, 2, r5, cr9, cr15, {2}
    832c:	5f343654 	svcpl	0x00343654
    8330:	5f58414d 	svcpl	0x0058414d
    8334:	5500295f 	strpl	r2, [r0, #-2399]	; 0xfffff6a1
    8338:	33544e49 	cmpcc	r4, #1168	; 0x490
    833c:	414d5f32 	cmpmi	sp, r2, lsr pc
    8340:	5f282058 	svcpl	0x00282058
    8344:	4e49555f 	mcrmi	5, 2, r5, cr9, cr15, {2}
    8348:	5f323354 	svcpl	0x00323354
    834c:	5f58414d 	svcpl	0x0058414d
    8350:	5300295f 	movwpl	r2, #2399	; 0x95f
    8354:	5257495f 	subspl	r4, r7, #1556480	; 0x17c000
    8358:	20455449 	subcs	r5, r5, r9, asr #8
    835c:	30303030 	eorscc	r3, r0, r0, lsr r0
    8360:	00303032 	eorseq	r3, r0, r2, lsr r0
    8364:	544f4e45 	strbpl	r4, [pc], #-3653	; 836c <_Min_Stack_Size+0x7f6c>
    8368:	4e4e4f43 	cdpmi	15, 4, cr4, cr14, cr3, {2}
    836c:	38323120 	ldmdacc	r2!, {r5, r8, ip, sp}
    8370:	4e495700 	cdpmi	7, 4, cr5, cr9, cr0, {0}
    8374:	414d5f54 	cmpmi	sp, r4, asr pc
    8378:	5f282058 	svcpl	0x00282058
    837c:	4e49575f 	mcrmi	7, 2, r5, cr9, cr15, {2}
    8380:	414d5f54 	cmpmi	sp, r4, asr pc
    8384:	295f5f58 	ldmdbcs	pc, {r3, r4, r6, r8, r9, sl, fp, ip, lr}^	; <UNPREDICTABLE>
    8388:	5f535300 	svcpl	0x00535300
    838c:	54534e4f 	ldrbpl	r4, [r3], #-3663	; 0xfffff1b1
    8390:	204b4341 	subcs	r4, fp, r1, asr #6
    8394:	00317830 	eorseq	r7, r1, r0, lsr r8
    8398:	5f545344 	svcpl	0x00545344
    839c:	20415355 	subcs	r5, r1, r5, asr r3
    83a0:	46450031 			; <UNDEFINED> instruction: 0x46450031
    83a4:	20474942 	subcs	r4, r7, r2, asr #18
    83a8:	53003732 	movwpl	r3, #1842	; 0x732
    83ac:	45534749 	ldrbmi	r4, [r3, #-1865]	; 0xfffff8b7
    83b0:	31205647 			; <UNDEFINED> instruction: 0x31205647
    83b4:	4e450031 	mcrmi	0, 2, r0, cr5, cr1, {1}
    83b8:	45525445 	ldrbmi	r5, [r2, #-1093]	; 0xfffffbbb
    83bc:	20544553 	subscs	r4, r4, r3, asr r5
    83c0:	00363231 	eorseq	r3, r6, r1, lsr r2
    83c4:	4d495445 	cfstrdmi	mvd5, [r9, #-276]	; 0xfffffeec
    83c8:	32362045 	eorscc	r2, r6, #69	; 0x45
    83cc:	655f5f00 	ldrbvs	r5, [pc, #-3840]	; 74d4 <_Min_Stack_Size+0x70d4>
    83d0:	6f6e7272 	svcvs	0x006e7272
    83d4:	7028725f 	eorvc	r7, r8, pc, asr r2
    83d8:	20297274 	eorcs	r7, r9, r4, ror r2
    83dc:	4545525f 	strbmi	r5, [r5, #-607]	; 0xfffffda1
    83e0:	455f544e 	ldrbmi	r5, [pc, #-1102]	; 7f9a <_Min_Stack_Size+0x7b9a>
    83e4:	4f4e5252 	svcmi	0x004e5252
    83e8:	72747028 	rsbsvc	r7, r4, #40	; 0x28
    83ec:	424d0029 	submi	r0, sp, #41	; 0x29
    83f0:	5255435f 	subspl	r4, r5, #2080374785	; 0x7c000001
    83f4:	58414d5f 	stmdapl	r1, {r0, r1, r2, r3, r4, r6, r8, sl, fp, lr}^
    83f8:	6c5f5f20 	mrrcvs	15, 2, r5, pc, cr0	; <UNPREDICTABLE>
    83fc:	6c61636f 	stclvs	3, cr6, [r1], #-444	; 0xfffffe44
    8400:	626d5f65 	rsbvs	r5, sp, #404	; 0x194
    8404:	7275635f 	rsbsvc	r6, r5, #2080374785	; 0x7c000001
    8408:	78616d5f 	stmdavc	r1!, {r0, r1, r2, r3, r4, r6, r8, sl, fp, sp, lr}^
    840c:	45002928 	strmi	r2, [r0, #-2344]	; 0xfffff6d8
    8410:	534d4f4e 	movtpl	r4, #57166	; 0xdf4e
    8414:	35332047 	ldrcc	r2, [r3, #-71]!	; 0xffffffb9
    8418:	55515f00 	ldrbpl	r5, [r1, #-3840]	; 0xfffff100
    841c:	4c5f4441 	cfldrdmi	mvd4, [pc], {65}	; 0x41
    8420:	4f57574f 	svcmi	0x0057574f
    8424:	30204452 	eorcc	r4, r0, r2, asr r4
    8428:	534d4500 	movtpl	r4, #54528	; 0xd500
    842c:	5a495347 	bpl	125d150 <_Min_Stack_Size+0x125cd50>
    8430:	32312045 	eorscc	r2, r1, #69	; 0x45
    8434:	49450032 	stmdbmi	r5, {r1, r4, r5}^
    8438:	5145534c 	cmppl	r5, ip, asr #6
    843c:	38333120 	ldmdacc	r3!, {r5, r8, ip, sp}
    8440:	49545f00 	ldmdbmi	r4, {r8, r9, sl, fp, ip, lr}^
    8444:	545f454d 	ldrbpl	r4, [pc], #-1357	; 844c <_Min_Stack_Size+0x804c>
    8448:	4345445f 	movtmi	r4, #21599	; 0x545f
    844c:	4552414c 	ldrbmi	r4, [r2, #-332]	; 0xfffffeb4
    8450:	5f002044 	svcpl	0x00002044
    8454:	6b726f66 	blvs	1ca41f4 <_Min_Stack_Size+0x1ca3df4>
    8458:	4f4e4500 	svcmi	0x004e4500
    845c:	20595454 	subscs	r5, r9, r4, asr r4
    8460:	53003532 	movwpl	r3, #1330	; 0x532
    8464:	4757495f 			; <UNDEFINED> instruction: 0x4757495f
    8468:	30205052 	eorcc	r5, r0, r2, asr r0
    846c:	30303030 	eorscc	r3, r0, r0, lsr r0
    8470:	43003032 	movwmi	r3, #50	; 0x32
    8474:	4b434f4c 	blmi	10dc1ac <_Min_Stack_Size+0x10dbdac>
    8478:	45505f53 	ldrbmi	r5, [r0, #-3923]	; 0xfffff0ad
    847c:	45535f52 	ldrbmi	r5, [r3, #-3922]	; 0xfffff0ae
    8480:	435f2043 	cmpmi	pc, #67	; 0x43
    8484:	4b434f4c 	blmi	10dc1bc <_Min_Stack_Size+0x10dbdbc>
    8488:	45505f53 	ldrbmi	r5, [r0, #-3923]	; 0xfffff0ad
    848c:	45535f52 	ldrbmi	r5, [r3, #-3922]	; 0xfffff0ae
    8490:	74005f43 	strvc	r5, [r0], #-3907	; 0xfffff0bd
    8494:	72656d69 	rsbvc	r6, r5, #6720	; 0x1a40
    8498:	28627573 	stmdacs	r2!, {r0, r1, r4, r5, r6, r8, sl, ip, sp, lr}^
    849c:	2c707674 	ldclcs	6, cr7, [r0], #-464	; 0xfffffe30
    84a0:	2c707675 	ldclcs	6, cr7, [r0], #-468	; 0xfffffe2c
    84a4:	29707676 	ldmdbcs	r0!, {r1, r2, r4, r5, r6, r9, sl, ip, sp, lr}^
    84a8:	206f6420 	rsbcs	r6, pc, r0, lsr #8
    84ac:	7628207b 			; <UNDEFINED> instruction: 0x7628207b
    84b0:	2d297076 	stccs	0, cr7, [r9, #-472]!	; 0xfffffe28
    84b4:	5f76743e 	svcpl	0x0076743e
    84b8:	20636573 	rsbcs	r6, r3, r3, ror r5
    84bc:	7428203d 	strtvc	r2, [r8], #-61	; 0xffffffc3
    84c0:	2d297076 	stccs	0, cr7, [r9, #-472]!	; 0xfffffe28
    84c4:	5f76743e 	svcpl	0x0076743e
    84c8:	20636573 	rsbcs	r6, r3, r3, ror r5
    84cc:	7528202d 	strvc	r2, [r8, #-45]!	; 0xffffffd3
    84d0:	2d297076 	stccs	0, cr7, [r9, #-472]!	; 0xfffffe28
    84d4:	5f76743e 	svcpl	0x0076743e
    84d8:	3b636573 	blcc	18e1aac <_Min_Stack_Size+0x18e16ac>
    84dc:	76762820 	ldrbtvc	r2, [r6], -r0, lsr #16
    84e0:	3e2d2970 			; <UNDEFINED> instruction: 0x3e2d2970
    84e4:	755f7674 	ldrbvc	r7, [pc, #-1652]	; 7e78 <_Min_Stack_Size+0x7a78>
    84e8:	20636573 	rsbcs	r6, r3, r3, ror r5
    84ec:	7428203d 	strtvc	r2, [r8], #-61	; 0xffffffc3
    84f0:	2d297076 	stccs	0, cr7, [r9, #-472]!	; 0xfffffe28
    84f4:	5f76743e 	svcpl	0x0076743e
    84f8:	63657375 	cmnvs	r5, #-738197503	; 0xd4000001
    84fc:	28202d20 	stmdacs	r0!, {r5, r8, sl, fp, sp}
    8500:	29707675 	ldmdbcs	r0!, {r0, r2, r4, r5, r6, r9, sl, ip, sp, lr}^
    8504:	76743e2d 	ldrbtvc	r3, [r4], -sp, lsr #28
    8508:	6573755f 	ldrbvs	r7, [r3, #-1375]!	; 0xfffffaa1
    850c:	69203b63 	stmdbvs	r0!, {r0, r1, r5, r6, r8, r9, fp, ip, sp}
    8510:	28282066 	stmdacs	r8!, {r1, r2, r5, r6, sp}
    8514:	29707676 	ldmdbcs	r0!, {r1, r2, r4, r5, r6, r9, sl, ip, sp, lr}^
    8518:	76743e2d 	ldrbtvc	r3, [r4], -sp, lsr #28
    851c:	6573755f 	ldrbvs	r7, [r3, #-1375]!	; 0xfffffaa1
    8520:	203c2063 	eorscs	r2, ip, r3, rrx
    8524:	7b202930 	blvc	8129ec <_Min_Stack_Size+0x8125ec>
    8528:	76762820 	ldrbtvc	r2, [r6], -r0, lsr #16
    852c:	3e2d2970 			; <UNDEFINED> instruction: 0x3e2d2970
    8530:	735f7674 	cmpvc	pc, #116, 12	; 0x7400000
    8534:	2d2d6365 	stccs	3, cr6, [sp, #-404]!	; 0xfffffe6c
    8538:	7628203b 			; <UNDEFINED> instruction: 0x7628203b
    853c:	2d297076 	stccs	0, cr7, [r9, #-472]!	; 0xfffffe28
    8540:	5f76743e 	svcpl	0x0076743e
    8544:	63657375 	cmnvs	r5, #-738197503	; 0xd4000001
    8548:	203d2b20 	eorscs	r2, sp, r0, lsr #22
    854c:	30303031 	eorscc	r3, r0, r1, lsr r0
    8550:	3b303030 	blcc	c14618 <_Min_Stack_Size+0xc14218>
    8554:	7d207d20 	stcvc	13, cr7, [r0, #-128]!	; 0xffffff80
    8558:	69687720 	stmdbvs	r8!, {r5, r8, r9, sl, ip, sp, lr}^
    855c:	2820656c 	stmdacs	r0!, {r2, r3, r5, r6, r8, sl, sp, lr}
    8560:	45002930 	strmi	r2, [r0, #-2352]	; 0xfffff6d0
    8564:	45434341 	strbmi	r4, [r3, #-833]	; 0xfffffcbf
    8568:	33312053 	teqcc	r1, #83	; 0x53
    856c:	49534e00 	ldmdbmi	r3, {r9, sl, fp, lr}^
    8570:	32332047 	eorscc	r2, r3, #71	; 0x47
    8574:	695f5f00 	ldmdbvs	pc, {r8, r9, sl, fp, ip, lr}^	; <UNPREDICTABLE>
    8578:	3032746e 	eorscc	r7, r2, lr, ror #8
    857c:	5f005f5f 	svcpl	0x00005f5f
    8580:	74697865 	strbtvc	r7, [r9], #-2149	; 0xfffff79b
    8584:	49555f00 	ldmdbmi	r5, {r8, r9, sl, fp, ip, lr}^
    8588:	3436544e 	ldrtcc	r5, [r6], #-1102	; 0xfffffbb2
    858c:	445f545f 	ldrbmi	r5, [pc], #-1119	; 8594 <_Min_Stack_Size+0x8194>
    8590:	414c4345 	cmpmi	ip, r5, asr #6
    8594:	20444552 	subcs	r4, r4, r2, asr r5
    8598:	4e495f00 	cdpmi	15, 4, cr5, cr9, cr0, {0}
    859c:	5f545f4f 	svcpl	0x00545f4f
    85a0:	4c434544 	cfstr64mi	mvdx4, [r3], {68}	; 0x44
    85a4:	44455241 	strbmi	r5, [r5], #-577	; 0xfffffdbf
    85a8:	4e450020 	cdpmi	0, 4, cr0, cr5, cr0, {1}
    85ac:	5441444f 	strbpl	r4, [r1], #-1103	; 0xfffffbb1
    85b0:	31362041 	teqcc	r6, r1, asr #32
    85b4:	49555f00 	ldmdbmi	r5, {r8, r9, sl, fp, ip, lr}^
    85b8:	5f545f44 	svcpl	0x00545f44
    85bc:	4c434544 	cfstr64mi	mvdx4, [r3], {68}	; 0x44
    85c0:	44455241 	strbmi	r5, [r5], #-577	; 0xfffffdbf
    85c4:	5f530020 	svcpl	0x00530020
    85c8:	4e4c4649 	cdpmi	6, 4, cr4, cr12, cr9, {2}
    85cc:	495f204b 	ldmdbmi	pc, {r0, r1, r3, r6, sp}^	; <UNPREDICTABLE>
    85d0:	4b4e4c46 	blmi	139b6f0 <_Min_Stack_Size+0x139b2f0>
    85d4:	47495300 	strbmi	r5, [r9, -r0, lsl #6]
    85d8:	20544e49 	subscs	r4, r4, r9, asr #28
    85dc:	42530032 	subsmi	r0, r3, #50	; 0x32
    85e0:	55315f54 	ldrpl	r5, [r1, #-3924]!	; 0xfffff0ac
    85e4:	53282053 			; <UNDEFINED> instruction: 0x53282053
    85e8:	315f5442 	cmpcc	pc, r2, asr #8
    85ec:	202f2053 	eorcs	r2, pc, r3, asr r0	; <UNPREDICTABLE>
    85f0:	30303031 	eorscc	r3, r0, r1, lsr r0
    85f4:	29303030 	ldmdbcs	r0!, {r4, r5, ip, sp}
    85f8:	544e4900 	strbpl	r4, [lr], #-2304	; 0xfffff700
    85fc:	5341465f 	movtpl	r4, #5727	; 0x165f
    8600:	5f363154 	svcpl	0x00363154
    8604:	2058414d 	subscs	r4, r8, sp, asr #2
    8608:	495f5f28 	ldmdbmi	pc, {r3, r5, r8, r9, sl, fp, ip, lr}^	; <UNPREDICTABLE>
    860c:	465f544e 	ldrbmi	r5, [pc], -lr, asr #8
    8610:	31545341 	cmpcc	r4, r1, asr #6
    8614:	414d5f36 	cmpmi	sp, r6, lsr pc
    8618:	295f5f58 	ldmdbcs	pc, {r3, r4, r6, r8, r9, sl, fp, ip, lr}^	; <UNPREDICTABLE>
    861c:	4e495500 	cdpmi	5, 4, cr5, cr9, cr0, {0}
    8620:	41465f54 	cmpmi	r6, r4, asr pc
    8624:	36315453 			; <UNDEFINED> instruction: 0x36315453
    8628:	58414d5f 	stmdapl	r1, {r0, r1, r2, r3, r4, r6, r8, sl, fp, lr}^
    862c:	5f5f2820 	svcpl	0x005f2820
    8630:	544e4955 	strbpl	r4, [lr], #-2389	; 0xfffff6ab
    8634:	5341465f 	movtpl	r4, #5727	; 0x165f
    8638:	5f363154 	svcpl	0x00363154
    863c:	5f58414d 	svcpl	0x0058414d
    8640:	5300295f 	movwpl	r2, #2399	; 0x95f
    8644:	315f5442 	cmpcc	pc, r2, asr #8
    8648:	5328204d 			; <UNDEFINED> instruction: 0x5328204d
    864c:	315f5442 	cmpcc	pc, r2, asr #8
    8650:	202a2053 	eorcs	r2, sl, r3, asr r0
    8654:	00293036 	eoreq	r3, r9, r6, lsr r0
    8658:	6e695f5f 	mcrvs	15, 3, r5, cr9, cr15, {2}
    865c:	61665f74 	smcvs	26100	; 0x65f4
    8660:	36317473 			; <UNDEFINED> instruction: 0x36317473
    8664:	645f745f 	ldrbvs	r7, [pc], #-1119	; 866c <_Min_Stack_Size+0x826c>
    8668:	6e696665 	cdpvs	6, 6, cr6, cr9, cr5, {3}
    866c:	31206465 			; <UNDEFINED> instruction: 0x31206465
    8670:	495f5300 	ldmdbmi	pc, {r8, r9, ip, lr}^	; <UNPREDICTABLE>
    8674:	4b4e4c53 	blmi	139b7c8 <_Min_Stack_Size+0x139b3c8>
    8678:	20296d28 	eorcs	r6, r9, r8, lsr #26
    867c:	6d282828 	stcvs	8, cr2, [r8, #-160]!	; 0xffffff60
    8680:	495f2629 	ldmdbmi	pc, {r0, r3, r5, r9, sl, sp}^	; <UNPREDICTABLE>
    8684:	29544d46 	ldmdbcs	r4, {r1, r2, r6, r8, sl, fp, lr}^
    8688:	203d3d20 	eorscs	r3, sp, r0, lsr #26
    868c:	4c46495f 	mcrrmi	9, 5, r4, r6, cr15	; <UNPREDICTABLE>
    8690:	00294b4e 	eoreq	r4, r9, lr, asr #22
    8694:	6e655f5f 	mcrvs	15, 3, r5, cr5, cr15, {2}
    8698:	49550076 	ldmdbmi	r5, {r1, r2, r4, r5, r6}^
    869c:	414d544e 	cmpmi	sp, lr, asr #8
    86a0:	28435f58 	stmdacs	r3, {r3, r4, r6, r8, r9, sl, fp, ip, lr}^
    86a4:	5f202978 	svcpl	0x00202978
    86a8:	4e49555f 	mcrmi	5, 2, r5, cr9, cr15, {2}
    86ac:	58414d54 	stmdapl	r1, {r2, r4, r6, r8, sl, fp, lr}^
    86b0:	7828435f 	stmdavc	r8!, {r0, r1, r2, r3, r4, r6, r8, r9, lr}
    86b4:	68630029 	stmdavs	r3!, {r0, r3, r5}^
    86b8:	2b207261 	blcs	825044 <_Min_Stack_Size+0x824c44>
    86bc:	6c610030 	stclvs	0, cr0, [r1], #-192	; 0xffffff40
    86c0:	61636f6c 	cmnvs	r3, ip, ror #30
    86c4:	495f5300 	ldmdbmi	pc, {r8, r9, ip, lr}^	; <UNPREDICTABLE>
    86c8:	47585752 			; <UNDEFINED> instruction: 0x47585752
    86cc:	5f532820 	svcpl	0x00532820
    86d0:	52475249 	subpl	r5, r7, #-1879048188	; 0x90000004
    86d4:	207c2050 	rsbscs	r2, ip, r0, asr r0
    86d8:	57495f53 	smlsldpl	r5, r9, r3, pc	; <UNPREDICTABLE>
    86dc:	20505247 	subscs	r5, r0, r7, asr #4
    86e0:	5f53207c 	svcpl	0x0053207c
    86e4:	52475849 	subpl	r5, r7, #4784128	; 0x490000
    86e8:	5f002950 	svcpl	0x00002950
    86ec:	5f535953 	svcpl	0x00535953
    86f0:	454c4553 	strbmi	r4, [ip, #-1363]	; 0xfffffaad
    86f4:	485f5443 	ldmdami	pc, {r0, r1, r6, sl, ip, lr}^	; <UNPREDICTABLE>
    86f8:	49530020 	ldmdbmi	r3, {r5}^
    86fc:	52535547 	subspl	r5, r3, #297795584	; 0x11c00000
    8700:	31332032 	teqcc	r3, r2, lsr r0
    8704:	4f4c4300 	svcmi	0x004c4300
    8708:	445f4b43 	ldrbmi	r4, [pc], #-2883	; 8710 <_Min_Stack_Size+0x8310>
    870c:	42415349 	submi	r5, r1, #603979777	; 0x24000001
    8710:	2044454c 	subcs	r4, r4, ip, asr #10
    8714:	5f530030 	svcpl	0x00530030
    8718:	58575249 	ldmdapl	r7, {r0, r3, r6, r9, ip, lr}^
    871c:	5328204f 			; <UNDEFINED> instruction: 0x5328204f
    8720:	4f52495f 	svcmi	0x0052495f
    8724:	7c204854 	stcvc	8, cr4, [r0], #-336	; 0xfffffeb0
    8728:	495f5320 	ldmdbmi	pc, {r5, r8, r9, ip, lr}^	; <UNPREDICTABLE>
    872c:	48544f57 	ldmdami	r4, {r0, r1, r2, r4, r6, r8, r9, sl, fp, lr}^
    8730:	53207c20 			; <UNDEFINED> instruction: 0x53207c20
    8734:	4f58495f 	svcmi	0x0058495f
    8738:	00294854 	eoreq	r4, r9, r4, asr r8
    873c:	544f4e45 	strbpl	r4, [pc], #-3653	; 8744 <_Min_Stack_Size+0x8344>
    8740:	20524944 	subscs	r4, r2, r4, asr #18
    8744:	45003032 	strmi	r3, [r0, #-50]	; 0xffffffce
    8748:	4c554f57 	mrrcmi	15, 5, r4, r5, cr7
    874c:	4f4c4244 	svcmi	0x004c4244
    8750:	45204b43 	strmi	r4, [r0, #-2883]!	; 0xfffff4bd
    8754:	49414741 	stmdbmi	r1, {r0, r6, r8, r9, sl, lr}^
    8758:	4954004e 	ldmdbmi	r4, {r1, r2, r3, r6}^
    875c:	4156454d 	cmpmi	r6, sp, asr #10
    8760:	4f545f4c 	svcmi	0x00545f4c
    8764:	4d49545f 	cfstrdmi	mvd5, [r9, #-380]	; 0xfffffe84
    8768:	45505345 	ldrbmi	r5, [r0, #-837]	; 0xfffffcbb
    876c:	76742843 	ldrbtvc	r2, [r4], -r3, asr #16
    8770:	2973742c 	ldmdbcs	r3!, {r2, r3, r5, sl, ip, sp, lr}^
    8774:	206f6420 	rsbcs	r6, pc, r0, lsr #8
    8778:	7428207b 	strtvc	r2, [r8], #-123	; 0xffffff85
    877c:	3e2d2973 			; <UNDEFINED> instruction: 0x3e2d2973
    8780:	735f7674 	cmpvc	pc, #116, 12	; 0x7400000
    8784:	3d206365 	stccc	3, cr6, [r0, #-404]!	; 0xfffffe6c
    8788:	76742820 	ldrbtvc	r2, [r4], -r0, lsr #16
    878c:	743e2d29 	ldrtvc	r2, [lr], #-3369	; 0xfffff2d7
    8790:	65735f76 	ldrbvs	r5, [r3, #-3958]!	; 0xfffff08a
    8794:	28203b63 	stmdacs	r0!, {r0, r1, r5, r6, r8, r9, fp, ip, sp}
    8798:	2d297374 	stccs	3, cr7, [r9, #-464]!	; 0xfffffe30
    879c:	5f76743e 	svcpl	0x0076743e
    87a0:	6365736e 	cmnvs	r5, #-1207959551	; 0xb8000001
    87a4:	28203d20 	stmdacs	r0!, {r5, r8, sl, fp, ip, sp}
    87a8:	2d297674 	stccs	6, cr7, [r9, #-464]!	; 0xfffffe30
    87ac:	5f76743e 	svcpl	0x0076743e
    87b0:	63657375 	cmnvs	r5, #-738197503	; 0xd4000001
    87b4:	31202a20 			; <UNDEFINED> instruction: 0x31202a20
    87b8:	3b303030 	blcc	c14880 <_Min_Stack_Size+0xc14480>
    87bc:	77207d20 	strvc	r7, [r0, -r0, lsr #26]!
    87c0:	656c6968 	strbvs	r6, [ip, #-2408]!	; 0xfffff698
    87c4:	29302820 	ldmdbcs	r0!, {r5, fp, sp}
    87c8:	4f544500 	svcmi	0x00544500
    87cc:	4e414d4f 	cdpmi	13, 4, cr4, cr1, cr15, {2}
    87d0:	46455259 			; <UNDEFINED> instruction: 0x46455259
    87d4:	32312053 	eorscc	r2, r1, #83	; 0x53
    87d8:	4e490039 	mcrmi	0, 2, r0, cr9, cr9, {1}
    87dc:	52545054 	subspl	r5, r4, #84	; 0x54
    87e0:	58414d5f 	stmdapl	r1, {r0, r1, r2, r3, r4, r6, r8, sl, fp, lr}^
    87e4:	5f5f2820 	svcpl	0x005f2820
    87e8:	50544e49 	subspl	r4, r4, r9, asr #28
    87ec:	4d5f5254 	lfmmi	f5, 2, [pc, #-336]	; 86a4 <_Min_Stack_Size+0x82a4>
    87f0:	5f5f5841 	svcpl	0x005f5841
    87f4:	54490029 	strbpl	r0, [r9], #-41	; 0xffffffd7
    87f8:	52454d49 	subpl	r4, r5, #4672	; 0x1240
    87fc:	5249565f 	subpl	r5, r9, #99614720	; 0x5f00000
    8800:	4c415554 	cfstr64mi	mvdx5, [r1], {84}	; 0x54
    8804:	53003120 	movwpl	r3, #288	; 0x120
    8808:	53415f49 	movtpl	r5, #8009	; 0x1f49
    880c:	49434e59 	stmdbmi	r3, {r0, r3, r4, r6, r9, sl, fp, lr}^
    8810:	0034204f 	eorseq	r2, r4, pc, asr #32
    8814:	46474953 			; <UNDEFINED> instruction: 0x46474953
    8818:	38204550 	stmdacc	r0!, {r4, r6, r8, sl, lr}
    881c:	52504500 	subspl	r4, r0, #0, 10
    8820:	204f544f 	subcs	r5, pc, pc, asr #8
    8824:	53003137 	movwpl	r3, #311	; 0x137
    8828:	5346495f 	movtpl	r4, #26975	; 0x695f
    882c:	204b434f 	subcs	r4, fp, pc, asr #6
    8830:	5346495f 	movtpl	r4, #26975	; 0x695f
    8834:	004b434f 	subeq	r4, fp, pc, asr #6
    8838:	4749535f 	smlsldmi	r5, r9, pc, r3	; <UNPREDICTABLE>
    883c:	5f544553 	svcpl	0x00544553
    8840:	45445f54 	strbmi	r5, [r4, #-3924]	; 0xfffff0ac
    8844:	52414c43 	subpl	r4, r1, #17152	; 0x4300
    8848:	00204445 	eoreq	r4, r0, r5, asr #8
    884c:	69745f5f 	ldmdbvs	r4!, {r0, r1, r2, r3, r4, r6, r8, r9, sl, fp, ip, lr}^
    8850:	5f72656d 	svcpl	0x0072656d
    8854:	65645f74 	strbvs	r5, [r4, #-3956]!	; 0xfffff08c
    8858:	656e6966 	strbvs	r6, [lr, #-2406]!	; 0xfffff69a
    885c:	73002064 	movwvc	r2, #100	; 0x64
    8860:	6c6e5f74 	stclvs	15, cr5, [lr], #-464	; 0xfffffe30
    8864:	006b6e69 	rsbeq	r6, fp, r9, ror #28
    8868:	49584e45 	ldmdbmi	r8, {r0, r2, r6, r9, sl, fp, lr}^
    886c:	0036204f 	eorseq	r2, r6, pc, asr #32
    8870:	746e5f5f 	strbtvc	r5, [lr], #-3935	; 0xfffff0a1
    8874:	2873686f 	ldmdacs	r3!, {r0, r1, r2, r3, r5, r6, fp, sp, lr}^
    8878:	2029785f 	eorcs	r7, r9, pc, asr r8
    887c:	73625f5f 	cmnvc	r2, #380	; 0x17c
    8880:	31706177 	cmncc	r0, r7, ror r1
    8884:	785f2836 	ldmdavc	pc, {r1, r2, r4, r5, fp, sp}^	; <UNPREDICTABLE>
    8888:	42450029 	submi	r0, r5, #41	; 0x29
    888c:	20595355 	subscs	r5, r9, r5, asr r3
    8890:	5f003631 	svcpl	0x00003631
    8894:	5f535953 	svcpl	0x00535953
    8898:	454d4954 	strbmi	r4, [sp, #-2388]	; 0xfffff6ac
    889c:	43455053 	movtmi	r5, #20563	; 0x5053
    88a0:	205f485f 	subscs	r4, pc, pc, asr r8	; <UNPREDICTABLE>
    88a4:	54534400 	ldrbpl	r4, [r3], #-1024	; 0xfffffc00
    88a8:	5445575f 	strbpl	r5, [r5], #-1887	; 0xfffff8a1
    88ac:	53003320 	movwpl	r3, #800	; 0x320
    88b0:	535f4749 	cmppl	pc, #19136512	; 0x1240000
    88b4:	414d5445 	cmpmi	sp, r5, asr #8
    88b8:	30204b53 	eorcc	r4, r0, r3, asr fp
    88bc:	4f4e4500 	svcmi	0x004e4500
    88c0:	50555354 	subspl	r5, r5, r4, asr r3
    88c4:	34333120 	ldrtcc	r3, [r3], #-288	; 0xfffffee0
    88c8:	745f5f00 	ldrbvc	r5, [pc], #-3840	; 88d0 <_Min_Stack_Size+0x84d0>
    88cc:	5f656d69 	svcpl	0x00656d69
    88d0:	65645f74 	strbvs	r5, [r4, #-3956]!	; 0xfffff08c
    88d4:	656e6966 	strbvs	r6, [lr, #-2406]!	; 0xfffff69a
    88d8:	5f002064 	svcpl	0x00002064
    88dc:	5341465f 	movtpl	r4, #5727	; 0x165f
    88e0:	20323354 	eorscs	r3, r2, r4, asr r3
    88e4:	495f5300 	ldmdbmi	pc, {r8, r9, ip, lr}^	; <UNPREDICTABLE>
    88e8:	44494753 	strbmi	r4, [r9], #-1875	; 0xfffff8ad
    88ec:	30303020 	eorscc	r3, r0, r0, lsr #32
    88f0:	30303032 	eorscc	r3, r0, r2, lsr r0
    88f4:	4c435f00 	mcrrmi	15, 0, r5, r3, cr0
    88f8:	5f4b434f 	svcpl	0x004b434f
    88fc:	45445f54 	strbmi	r5, [r4, #-3924]	; 0xfffff0ac
    8900:	52414c43 	subpl	r4, r1, #17152	; 0x4300
    8904:	00204445 	eoreq	r4, r0, r5, asr #8
    8908:	564e4945 	strbpl	r4, [lr], -r5, asr #18
    890c:	32204c41 	eorcc	r4, r0, #16640	; 0x4100
    8910:	68730032 	ldmdavs	r3!, {r1, r4, r5}^
    8914:	0074726f 	rsbseq	r7, r4, pc, ror #4
    8918:	6165725f 	cmnvs	r5, pc, asr r2
    891c:	49530064 	ldmdbmi	r3, {r2, r5, r6}^
    8920:	54535447 	ldrbpl	r5, [r3], #-1095	; 0xfffffbb9
    8924:	38312050 	ldmdacc	r1!, {r4, r6, sp}
    8928:	47495300 	strbmi	r5, [r9, -r0, lsl #6]
    892c:	4f54415f 	svcmi	0x0054415f
    8930:	5f43494d 	svcpl	0x0043494d
    8934:	2058414d 	subscs	r4, r8, sp, asr #2
    8938:	535f5f28 	cmppl	pc, #40, 30	; 0xa0
    893c:	4e494454 	mcrmi	4, 2, r4, cr9, cr4, {2}
    8940:	58455f54 	stmdapl	r5, {r2, r4, r6, r8, r9, sl, fp, ip, lr}^
    8944:	4e492850 	mcrmi	8, 2, r2, cr9, cr0, {2}
    8948:	414d5f54 	cmpmi	sp, r4, asr pc
    894c:	00292958 	eoreq	r2, r9, r8, asr r9
    8950:	656d6974 	strbvs	r6, [sp, #-2420]!	; 0xfffff68c
    8954:	63657073 	cmnvs	r5, #115	; 0x73
    8958:	65737369 	ldrbvs	r7, [r3, #-873]!	; 0xfffffc97
    895c:	76742874 			; <UNDEFINED> instruction: 0x76742874
    8960:	28202970 	stmdacs	r0!, {r4, r5, r6, r8, fp, sp}
    8964:	70767428 	rsbsvc	r7, r6, r8, lsr #8
    8968:	743e2d29 	ldrtvc	r2, [lr], #-3369	; 0xfffff2d7
    896c:	65735f76 	ldrbvs	r5, [r3, #-3958]!	; 0xfffff08a
    8970:	7c7c2063 	ldclvc	0, cr2, [ip], #-396	; 0xfffffe74
    8974:	76742820 	ldrbtvc	r2, [r4], -r0, lsr #16
    8978:	3e2d2970 			; <UNDEFINED> instruction: 0x3e2d2970
    897c:	6e5f7674 	mrcvs	6, 2, r7, cr15, cr4, {3}
    8980:	29636573 	stmdbcs	r3!, {r0, r1, r4, r5, r6, r8, sl, sp, lr}^
    8984:	696b5f00 	stmdbvs	fp!, {r8, r9, sl, fp, ip, lr}^
    8988:	5f006c6c 	svcpl	0x00006c6c
    898c:	5341465f 	movtpl	r4, #5727	; 0x165f
    8990:	20363154 	eorscs	r3, r6, r4, asr r1
    8994:	47495300 	strbmi	r5, [r9, -r0, lsl #6]
    8998:	55504358 	ldrbpl	r4, [r0, #-856]	; 0xfffffca8
    899c:	00343220 	eorseq	r3, r4, r0, lsr #4
    89a0:	4e415245 	cdpmi	2, 4, cr5, cr1, cr5, {2}
    89a4:	33204547 			; <UNDEFINED> instruction: 0x33204547
    89a8:	74730034 	ldrbtvc	r0, [r3], #-52	; 0xffffffcc
    89ac:	7665645f 			; <UNDEFINED> instruction: 0x7665645f
    89b0:	4c5f5f00 	mrrcmi	15, 0, r5, pc, cr0	; <UNPREDICTABLE>
    89b4:	54534145 	ldrbpl	r4, [r3], #-325	; 0xfffffebb
    89b8:	22203436 	eorcs	r3, r0, #905969664	; 0x36000000
    89bc:	00226c6c 	eoreq	r6, r2, ip, ror #24
    89c0:	6f635f5f 	svcvs	0x00635f5f
    89c4:	7261706d 	rsbvc	r7, r1, #109	; 0x6d
    89c8:	5f6e665f 	svcpl	0x006e665f
    89cc:	65645f74 	strbvs	r5, [r4, #-3956]!	; 0xfffff08c
    89d0:	656e6966 	strbvs	r6, [lr, #-2406]!	; 0xfffff69a
    89d4:	74002064 	strvc	r2, [r0], #-100	; 0xffffff9c
    89d8:	73656d69 	cmnvc	r5, #6720	; 0x1a40
    89dc:	00636570 	rsbeq	r6, r3, r0, ror r5
    89e0:	435f4446 	cmpmi	pc, #1174405120	; 0x46000000
    89e4:	6e28524c 	cdpvs	2, 2, cr5, cr8, cr12, {2}
    89e8:	2029702c 	eorcs	r7, r9, ip, lsr #32
    89ec:	29702828 	ldmdbcs	r0!, {r3, r5, fp, sp}^
    89f0:	5f5f3e2d 	svcpl	0x005f3e2d
    89f4:	5f736466 	svcpl	0x00736466
    89f8:	73746962 	cmnvc	r4, #1605632	; 0x188000
    89fc:	296e285b 	stmdbcs	lr!, {r0, r1, r3, r4, r6, fp, sp}^
    8a00:	464e5f2f 	strbmi	r5, [lr], -pc, lsr #30
    8a04:	54494244 	strbpl	r4, [r9], #-580	; 0xfffffdbc
    8a08:	26205d53 			; <UNDEFINED> instruction: 0x26205d53
    8a0c:	5f7e203d 	svcpl	0x007e203d
    8a10:	7364665f 	cmnvc	r4, #99614720	; 0x5f00000
    8a14:	6d5f7465 	cfldrdvs	mvd7, [pc, #-404]	; 8888 <_Min_Stack_Size+0x8488>
    8a18:	286b7361 	stmdacs	fp!, {r0, r5, r6, r8, r9, ip, sp, lr}^
    8a1c:	0029296e 	eoreq	r2, r9, lr, ror #18
    8a20:	52485450 	subpl	r5, r8, #80, 8	; 0x50000000
    8a24:	5f444145 	svcpl	0x00444145
    8a28:	504f4353 	subpl	r4, pc, r3, asr r3	; <UNPREDICTABLE>
    8a2c:	59535f45 	ldmdbpl	r3, {r0, r2, r6, r8, r9, sl, fp, ip, lr}^
    8a30:	4d455453 	cfstrdmi	mvd5, [r5, #-332]	; 0xfffffeb4
    8a34:	53003120 	movwpl	r3, #288	; 0x120
    8a38:	52544749 	subspl	r4, r4, #19136512	; 0x1240000
    8a3c:	35205041 	strcc	r5, [r0, #-65]!	; 0xffffffbf
    8a40:	5f444600 	svcpl	0x00444600
    8a44:	59504f43 	ldmdbpl	r0, {r0, r1, r6, r8, r9, sl, fp, lr}^
    8a48:	742c6628 	strtvc	r6, [ip], #-1576	; 0xfffff9d8
    8a4c:	76282029 	strtvc	r2, [r8], -r9, lsr #32
    8a50:	2964696f 	stmdbcs	r4!, {r0, r1, r2, r3, r5, r6, r8, fp, sp, lr}^
    8a54:	74282a28 	strtvc	r2, [r8], #-2600	; 0xfffff5d8
    8a58:	203d2029 	eorscs	r2, sp, r9, lsr #32
    8a5c:	2966282a 	stmdbcs	r6!, {r1, r3, r5, fp, sp}^
    8a60:	49530029 	ldmdbmi	r3, {r0, r3, r5}^
    8a64:	4e555f47 	cdpmi	15, 5, cr5, cr5, cr7, {2}
    8a68:	434f4c42 	movtmi	r4, #64578	; 0xfc42
    8a6c:	0032204b 	eorseq	r2, r2, fp, asr #32
    8a70:	636f6c63 	cmnvs	pc, #25344	; 0x6300
    8a74:	00745f6b 	rsbseq	r5, r4, fp, ror #30
    8a78:	74696e69 	strbtvc	r6, [r9], #-3689	; 0xfffff197
    8a7c:	696c6169 	stmdbvs	ip!, {r0, r3, r5, r6, r8, sp, lr}^
    8a80:	6d5f6573 	cfldr64vs	mvdx6, [pc, #-460]	; 88bc <_Min_Stack_Size+0x84bc>
    8a84:	74696e6f 	strbtvc	r6, [r9], #-3695	; 0xfffff191
    8a88:	685f726f 	ldmdavs	pc, {r0, r1, r2, r3, r5, r6, r9, ip, sp, lr}^	; <UNPREDICTABLE>
    8a8c:	6c646e61 	stclvs	14, cr6, [r4], #-388	; 0xfffffe7c
    8a90:	53007365 	movwpl	r7, #869	; 0x365
    8a94:	54544749 	ldrbpl	r4, [r4], #-1865	; 0xfffff8b7
    8a98:	3220554f 	eorcc	r5, r0, #331350016	; 0x13c00000
    8a9c:	68700032 	ldmdavs	r0!, {r1, r4, r5}^
    8aa0:	64617379 	strbtvs	r7, [r1], #-889	; 0xfffffc87
    8aa4:	68702072 	ldmdavs	r0!, {r1, r4, r5, r6, sp}^
    8aa8:	64617379 	strbtvs	r7, [r1], #-889	; 0xfffffc87
    8aac:	00745f72 	rsbseq	r5, r4, r2, ror pc
    8ab0:	4e49555f 	mcrmi	5, 2, r5, cr9, cr15, {2}
    8ab4:	58414d54 	stmdapl	r1, {r2, r4, r6, r8, sl, fp, lr}^
    8ab8:	445f545f 	ldrbmi	r5, [pc], #-1119	; 8ac0 <_Min_Stack_Size+0x86c0>
    8abc:	414c4345 	cmpmi	ip, r5, asr #6
    8ac0:	20444552 	subcs	r4, r4, r2, asr r5
    8ac4:	44495f00 	strbmi	r5, [r9], #-3840	; 0xfffff100
    8ac8:	445f545f 	ldrbmi	r5, [pc], #-1119	; 8ad0 <_Min_Stack_Size+0x86d0>
    8acc:	414c4345 	cmpmi	ip, r5, asr #6
    8ad0:	20444552 	subcs	r4, r4, r2, asr r5
    8ad4:	4e495f00 	cdpmi	15, 4, cr5, cr9, cr0, {0}
    8ad8:	58414d54 	stmdapl	r1, {r2, r4, r6, r8, sl, fp, lr}^
    8adc:	445f545f 	ldrbmi	r5, [pc], #-1119	; 8ae4 <_Min_Stack_Size+0x86e4>
    8ae0:	414c4345 	cmpmi	ip, r5, asr #6
    8ae4:	20444552 	subcs	r4, r4, r2, asr r5
    8ae8:	4e495500 	cdpmi	5, 4, cr5, cr9, cr0, {0}
    8aec:	454c5f54 	strbmi	r5, [ip, #-3924]	; 0xfffff0ac
    8af0:	31545341 	cmpcc	r4, r1, asr #6
    8af4:	414d5f36 	cmpmi	sp, r6, lsr pc
    8af8:	5f282058 	svcpl	0x00282058
    8afc:	4e49555f 	mcrmi	5, 2, r5, cr9, cr15, {2}
    8b00:	454c5f54 	strbmi	r5, [ip, #-3924]	; 0xfffff0ac
    8b04:	31545341 	cmpcc	r4, r1, asr #6
    8b08:	414d5f36 	cmpmi	sp, r6, lsr pc
    8b0c:	295f5f58 	ldmdbcs	pc, {r3, r4, r6, r8, r9, sl, fp, ip, lr}^	; <UNPREDICTABLE>
    8b10:	4c425f00 	mcrrmi	15, 0, r5, r2, cr0
    8b14:	544e434b 	strbpl	r4, [lr], #-843	; 0xfffffcb5
    8b18:	445f545f 	ldrbmi	r5, [pc], #-1119	; 8b20 <_Min_Stack_Size+0x8720>
    8b1c:	414c4345 	cmpmi	ip, r5, asr #6
    8b20:	20444552 	subcs	r4, r4, r2, asr r5
    8b24:	54534400 	ldrbpl	r4, [r3], #-1024	; 0xfffffc00
    8b28:	4e4f4e5f 	mcrmi	14, 2, r4, cr15, cr15, {2}
    8b2c:	00302045 	eorseq	r2, r0, r5, asr #32
    8b30:	4e49555f 	mcrmi	5, 2, r5, cr9, cr15, {2}
    8b34:	545f3854 	ldrbpl	r3, [pc], #-2132	; 8b3c <_Min_Stack_Size+0x873c>
    8b38:	4345445f 	movtmi	r4, #21599	; 0x545f
    8b3c:	4552414c 	ldrbmi	r4, [r2, #-332]	; 0xfffffeb4
    8b40:	5f002044 	svcpl	0x00002044
    8b44:	6f6c635f 	svcvs	0x006c635f
    8b48:	745f6b63 	ldrbvc	r6, [pc], #-2915	; 8b50 <_Min_Stack_Size+0x8750>
    8b4c:	6665645f 			; <UNDEFINED> instruction: 0x6665645f
    8b50:	64656e69 	strbtvs	r6, [r5], #-3689	; 0xfffff197
    8b54:	555f0020 	ldrbpl	r0, [pc, #-32]	; 8b3c <_Min_Stack_Size+0x873c>
    8b58:	50544e49 	subspl	r4, r4, r9, asr #28
    8b5c:	545f5254 	ldrbpl	r5, [pc], #-596	; 8b64 <_Min_Stack_Size+0x8764>
    8b60:	4345445f 	movtmi	r4, #21599	; 0x545f
    8b64:	4552414c 	ldrbmi	r4, [r2, #-332]	; 0xfffffeb4
    8b68:	43002044 	movwmi	r2, #68	; 0x44
    8b6c:	4b434f4c 	blmi	10dc8a4 <_Min_Stack_Size+0x10dc4a4>
    8b70:	4145525f 	cmpmi	r5, pc, asr r2
    8b74:	4d49544c 	cfstrdmi	mvd5, [r9, #-304]	; 0xfffffed0
    8b78:	28282045 	stmdacs	r8!, {r0, r2, r6, sp}
    8b7c:	636f6c63 	cmnvs	pc, #25344	; 0x6300
    8b80:	5f64696b 	svcpl	0x0064696b
    8b84:	31202974 			; <UNDEFINED> instruction: 0x31202974
    8b88:	54500029 	ldrbpl	r0, [r0], #-41	; 0xffffffd7
    8b8c:	41455248 	cmpmi	r5, r8, asr #4
    8b90:	52435f44 	subpl	r5, r3, #68, 30	; 0x110
    8b94:	45544145 	ldrbmi	r4, [r4, #-325]	; 0xfffffebb
    8b98:	494f4a5f 	stmdbmi	pc, {r0, r1, r2, r3, r4, r6, r9, fp, lr}^	; <UNPREDICTABLE>
    8b9c:	4c42414e 	stfmie	f4, [r2], {78}	; 0x4e
    8ba0:	00312045 	eorseq	r2, r1, r5, asr #32
    8ba4:	74685f5f 	strbtvc	r5, [r8], #-3935	; 0xfffff0a1
    8ba8:	28736e6f 	ldmdacs	r3!, {r0, r1, r2, r3, r5, r6, r9, sl, fp, sp, lr}^
    8bac:	2029785f 	eorcs	r7, r9, pc, asr r8
    8bb0:	73625f5f 	cmnvc	r2, #380	; 0x17c
    8bb4:	31706177 	cmncc	r0, r7, ror r1
    8bb8:	785f2836 	ldmdavc	pc, {r1, r2, r4, r5, fp, sp}^	; <UNPREDICTABLE>
    8bbc:	49530029 	ldmdbmi	r3, {r0, r3, r5}^
    8bc0:	4e4f4347 	cdpmi	3, 4, cr4, cr15, cr7, {2}
    8bc4:	39312054 	ldmdbcc	r1!, {r2, r4, r6, sp}
    8bc8:	4f4c4300 	svcmi	0x004c4300
    8bcc:	415f4b43 	cmpmi	pc, r3, asr #22
    8bd0:	574f4c4c 	strbpl	r4, [pc, -ip, asr #24]
    8bd4:	31204445 			; <UNDEFINED> instruction: 0x31204445
    8bd8:	46495f00 	strbmi	r5, [r9], -r0, lsl #30
    8bdc:	204b4c42 	subcs	r4, fp, r2, asr #24
    8be0:	30363030 	eorscc	r3, r6, r0, lsr r0
    8be4:	00303030 	eorseq	r3, r0, r0, lsr r0
    8be8:	455a4953 	ldrbmi	r4, [sl, #-2387]	; 0xfffff6ad
    8bec:	58414d5f 	stmdapl	r1, {r0, r1, r2, r3, r4, r6, r8, sl, fp, lr}^
    8bf0:	5f5f2820 	svcpl	0x005f2820
    8bf4:	455a4953 	ldrbmi	r4, [sl, #-2387]	; 0xfffff6ad
    8bf8:	58414d5f 	stmdapl	r1, {r0, r1, r2, r3, r4, r6, r8, sl, fp, lr}^
    8bfc:	00295f5f 	eoreq	r5, r9, pc, asr pc
    8c00:	4e5f4153 	mrcmi	1, 2, r4, cr15, cr3, {2}
    8c04:	444c434f 	strbmi	r4, [ip], #-847	; 0xfffffcb1
    8c08:	504f5453 	subpl	r5, pc, r3, asr r4	; <UNPREDICTABLE>
    8c0c:	5f003120 	svcpl	0x00003120
    8c10:	36544e49 	ldrbcc	r4, [r4], -r9, asr #28
    8c14:	5f545f34 	svcpl	0x00545f34
    8c18:	4c434544 	cfstr64mi	mvdx4, [r3], {68}	; 0x44
    8c1c:	44455241 	strbmi	r5, [r5], #-577	; 0xfffffdbf
    8c20:	49530020 	ldmdbmi	r3, {r5}^
    8c24:	53595347 	cmppl	r9, #469762049	; 0x1c000001
    8c28:	00323120 	eorseq	r3, r2, r0, lsr #2
    8c2c:	656d6974 	strbvs	r6, [sp, #-2420]!	; 0xfffff68c
    8c30:	706d6372 	rsbvc	r6, sp, r2, ror r3
    8c34:	70767428 	rsbsvc	r7, r6, r8, lsr #8
    8c38:	7076752c 	rsbsvc	r7, r6, ip, lsr #10
    8c3c:	706d632c 	rsbvc	r6, sp, ip, lsr #6
    8c40:	28282029 	stmdacs	r8!, {r0, r3, r5, sp}
    8c44:	70767428 	rsbsvc	r7, r6, r8, lsr #8
    8c48:	743e2d29 	ldrtvc	r2, [lr], #-3369	; 0xfffff2d7
    8c4c:	65735f76 	ldrbvs	r5, [r3, #-3958]!	; 0xfffff08a
    8c50:	3d3d2063 	ldccc	0, cr2, [sp, #-396]!	; 0xfffffe74
    8c54:	76752820 	ldrbtvc	r2, [r5], -r0, lsr #16
    8c58:	3e2d2970 			; <UNDEFINED> instruction: 0x3e2d2970
    8c5c:	735f7674 	cmpvc	pc, #116, 12	; 0x7400000
    8c60:	20296365 	eorcs	r6, r9, r5, ror #6
    8c64:	2828203f 	stmdacs	r8!, {r0, r1, r2, r3, r4, r5, sp}
    8c68:	29707674 	ldmdbcs	r0!, {r2, r4, r5, r6, r9, sl, ip, sp, lr}^
    8c6c:	76743e2d 	ldrbtvc	r3, [r4], -sp, lsr #28
    8c70:	6573755f 	ldrbvs	r7, [r3, #-1375]!	; 0xfffffaa1
    8c74:	6d632063 	stclvs	0, cr2, [r3, #-396]!	; 0xfffffe74
    8c78:	75282070 	strvc	r2, [r8, #-112]!	; 0xffffff90
    8c7c:	2d297076 	stccs	0, cr7, [r9, #-472]!	; 0xfffffe28
    8c80:	5f76743e 	svcpl	0x0076743e
    8c84:	63657375 	cmnvs	r5, #-738197503	; 0xd4000001
    8c88:	203a2029 	eorscs	r2, sl, r9, lsr #32
    8c8c:	76742828 	ldrbtvc	r2, [r4], -r8, lsr #16
    8c90:	3e2d2970 			; <UNDEFINED> instruction: 0x3e2d2970
    8c94:	735f7674 	cmpvc	pc, #116, 12	; 0x7400000
    8c98:	63206365 			; <UNDEFINED> instruction: 0x63206365
    8c9c:	2820706d 	stmdacs	r0!, {r0, r2, r3, r5, r6, ip, sp, lr}
    8ca0:	29707675 	ldmdbcs	r0!, {r0, r2, r4, r5, r6, r9, sl, ip, sp, lr}^
    8ca4:	76743e2d 	ldrbtvc	r3, [r4], -sp, lsr #28
    8ca8:	6365735f 	cmnvs	r5, #2080374785	; 0x7c000001
    8cac:	53002929 	movwpl	r2, #2345	; 0x929
    8cb0:	55514749 	ldrbpl	r4, [r1, #-1865]	; 0xfffff8b7
    8cb4:	33205449 			; <UNDEFINED> instruction: 0x33205449
    8cb8:	4f4e4500 	svcmi	0x004e4500
    8cbc:	434f5354 	movtmi	r5, #62292	; 0xf354
    8cc0:	3031204b 	eorscc	r2, r1, fp, asr #32
    8cc4:	53440038 	movtpl	r0, #16440	; 0x4038
    8cc8:	45455f54 	strbmi	r5, [r5, #-3924]	; 0xfffff0ac
    8ccc:	00352054 	eorseq	r2, r5, r4, asr r0
    8cd0:	52495f53 	subpl	r5, r9, #332	; 0x14c
    8cd4:	20505247 	subscs	r5, r0, r7, asr #4
    8cd8:	30303030 	eorscc	r3, r0, r0, lsr r0
    8cdc:	00303430 	eorseq	r3, r0, r0, lsr r4
    8ce0:	6f6c6c61 	svcvs	0x006c6c61
    8ce4:	73286163 			; <UNDEFINED> instruction: 0x73286163
    8ce8:	29657a69 	stmdbcs	r5!, {r0, r3, r5, r6, r9, fp, ip, sp, lr}^
    8cec:	625f5f20 	subsvs	r5, pc, #32, 30	; 0x80
    8cf0:	746c6975 	strbtvc	r6, [ip], #-2421	; 0xfffff68b
    8cf4:	615f6e69 	cmpvs	pc, r9, ror #28
    8cf8:	636f6c6c 	cmnvs	pc, #108, 24	; 0x6c00
    8cfc:	69732861 	ldmdbvs	r3!, {r0, r5, r6, fp, sp}^
    8d00:	0029657a 	eoreq	r6, r9, sl, ror r5
    8d04:	5359535f 	cmppl	r9, #2080374785	; 0x7c000001
    8d08:	4d49545f 	cfstrdmi	mvd5, [r9, #-380]	; 0xfffffe84
    8d0c:	5f485f45 	svcpl	0x00485f45
    8d10:	475f0020 	ldrbmi	r0, [pc, -r0, lsr #32]
    8d14:	545f4449 	ldrbpl	r4, [pc], #-1097	; 8d1c <_Min_Stack_Size+0x891c>
    8d18:	4345445f 	movtmi	r4, #21599	; 0x545f
    8d1c:	4552414c 	ldrbmi	r4, [r2, #-332]	; 0xfffffeb4
    8d20:	49002044 	stmdbmi	r0, {r2, r6, sp}
    8d24:	4c5f544e 	cfldrdmi	mvd5, [pc], {78}	; 0x4e
    8d28:	54534145 	ldrbpl	r4, [r3], #-325	; 0xfffffebb
    8d2c:	494d5f38 	stmdbmi	sp, {r3, r4, r5, r8, r9, sl, fp, ip, lr}^
    8d30:	2d28204e 	stccs	0, cr2, [r8, #-312]!	; 0xfffffec8
    8d34:	4e495f5f 	mcrmi	15, 2, r5, cr9, cr15, {2}
    8d38:	454c5f54 	strbmi	r5, [ip, #-3924]	; 0xfffff0ac
    8d3c:	38545341 	ldmdacc	r4, {r0, r6, r8, r9, ip, lr}^
    8d40:	58414d5f 	stmdapl	r1, {r0, r1, r2, r3, r4, r6, r8, sl, fp, lr}^
    8d44:	2d205f5f 	stccs	15, cr5, [r0, #-380]!	; 0xfffffe84
    8d48:	00293120 	eoreq	r3, r9, r0, lsr #2
    8d4c:	41484357 	cmpmi	r8, r7, asr r3
    8d50:	414d5f52 	cmpmi	sp, r2, asr pc
    8d54:	5f282058 	svcpl	0x00282058
    8d58:	4843575f 	stmdami	r3, {r0, r1, r2, r3, r4, r6, r8, r9, sl, ip, lr}^
    8d5c:	4d5f5241 	lfmmi	f5, 2, [pc, #-260]	; 8c60 <_Min_Stack_Size+0x8860>
    8d60:	5f5f5841 	svcpl	0x005f5841
    8d64:	4e490029 	cdpmi	0, 4, cr0, cr9, cr9, {1}
    8d68:	5f323354 	svcpl	0x00323354
    8d6c:	204e494d 	subcs	r4, lr, sp, asr #18
    8d70:	5f5f2d28 	svcpl	0x005f2d28
    8d74:	33544e49 	cmpcc	r4, #1168	; 0x490
    8d78:	414d5f32 	cmpmi	sp, r2, lsr pc
    8d7c:	205f5f58 	subscs	r5, pc, r8, asr pc	; <UNPREDICTABLE>
    8d80:	2931202d 	ldmdbcs	r1!, {r0, r2, r3, r5, sp}
    8d84:	755f5f00 	ldrbvc	r5, [pc, #-3840]	; 7e8c <_Min_Stack_Size+0x7a8c>
    8d88:	6e6f6c5f 	mcrvs	12, 3, r6, cr15, cr15, {2}
    8d8c:	65645f67 	strbvs	r5, [r4, #-3943]!	; 0xfffff099
    8d90:	656e6966 	strbvs	r6, [lr, #-2406]!	; 0xfffff69a
    8d94:	5f002064 	svcpl	0x00002064
    8d98:	414c455f 	cmpmi	ip, pc, asr r5
    8d9c:	52455453 	subpl	r5, r5, #1392508928	; 0x53000000
    8da0:	20524f52 	subscs	r4, r2, r2, asr pc
    8da4:	30303032 	eorscc	r3, r0, r2, lsr r0
    8da8:	4f444500 	svcmi	0x00444500
    8dac:	3333204d 	teqcc	r3, #77	; 0x4d
    8db0:	495f5300 	ldmdbmi	pc, {r8, r9, ip, lr}^	; <UNPREDICTABLE>
    8db4:	50524758 	subspl	r4, r2, r8, asr r7
    8db8:	30303020 	eorscc	r3, r0, r0, lsr #32
    8dbc:	30313030 	eorscc	r3, r1, r0, lsr r0
    8dc0:	6d697400 	cfstrdvs	mvd7, [r9, #-0]
    8dc4:	65707365 	ldrbvs	r7, [r0, #-869]!	; 0xfffffc9b
    8dc8:	64646163 	strbtvs	r6, [r4], #-355	; 0xfffffe9d
    8dcc:	70737428 	rsbsvc	r7, r3, r8, lsr #8
    8dd0:	7073752c 	rsbsvc	r7, r3, ip, lsr #10
    8dd4:	7073762c 	rsbsvc	r7, r3, ip, lsr #12
    8dd8:	6f642029 	svcvs	0x00642029
    8ddc:	28207b20 	stmdacs	r0!, {r5, r8, r9, fp, ip, sp, lr}
    8de0:	29707376 	ldmdbcs	r0!, {r1, r2, r4, r5, r6, r8, r9, ip, sp, lr}^
    8de4:	76743e2d 	ldrbtvc	r3, [r4], -sp, lsr #28
    8de8:	6365735f 	cmnvs	r5, #2080374785	; 0x7c000001
    8dec:	28203d20 	stmdacs	r0!, {r5, r8, sl, fp, ip, sp}
    8df0:	29707374 	ldmdbcs	r0!, {r2, r4, r5, r6, r8, r9, ip, sp, lr}^
    8df4:	76743e2d 	ldrbtvc	r3, [r4], -sp, lsr #28
    8df8:	6365735f 	cmnvs	r5, #2080374785	; 0x7c000001
    8dfc:	28202b20 	stmdacs	r0!, {r5, r8, r9, fp, sp}
    8e00:	29707375 	ldmdbcs	r0!, {r0, r2, r4, r5, r6, r8, r9, ip, sp, lr}^
    8e04:	76743e2d 	ldrbtvc	r3, [r4], -sp, lsr #28
    8e08:	6365735f 	cmnvs	r5, #2080374785	; 0x7c000001
    8e0c:	7628203b 			; <UNDEFINED> instruction: 0x7628203b
    8e10:	2d297073 	stccs	0, cr7, [r9, #-460]!	; 0xfffffe34
    8e14:	5f76743e 	svcpl	0x0076743e
    8e18:	6365736e 	cmnvs	r5, #-1207959551	; 0xb8000001
    8e1c:	28203d20 	stmdacs	r0!, {r5, r8, sl, fp, ip, sp}
    8e20:	29707374 	ldmdbcs	r0!, {r2, r4, r5, r6, r8, r9, ip, sp, lr}^
    8e24:	76743e2d 	ldrbtvc	r3, [r4], -sp, lsr #28
    8e28:	65736e5f 	ldrbvs	r6, [r3, #-3679]!	; 0xfffff1a1
    8e2c:	202b2063 	eorcs	r2, fp, r3, rrx
    8e30:	70737528 	rsbsvc	r7, r3, r8, lsr #10
    8e34:	743e2d29 	ldrtvc	r2, [lr], #-3369	; 0xfffff2d7
    8e38:	736e5f76 	cmnvc	lr, #472	; 0x1d8
    8e3c:	203b6365 	eorscs	r6, fp, r5, ror #6
    8e40:	28206669 	stmdacs	r0!, {r0, r3, r5, r6, r9, sl, sp, lr}
    8e44:	70737628 	rsbsvc	r7, r3, r8, lsr #12
    8e48:	743e2d29 	ldrtvc	r2, [lr], #-3369	; 0xfffff2d7
    8e4c:	736e5f76 	cmnvc	lr, #472	; 0x1d8
    8e50:	3e206365 	cdpcc	3, 2, cr6, cr0, cr5, {3}
    8e54:	3031203d 	eorscc	r2, r1, sp, lsr r0
    8e58:	30303030 	eorscc	r3, r0, r0, lsr r0
    8e5c:	30303030 	eorscc	r3, r0, r0, lsr r0
    8e60:	7b20294c 	blvc	813398 <_Min_Stack_Size+0x812f98>
    8e64:	73762820 	cmnvc	r6, #32, 16	; 0x200000
    8e68:	3e2d2970 			; <UNDEFINED> instruction: 0x3e2d2970
    8e6c:	735f7674 	cmpvc	pc, #116, 12	; 0x7400000
    8e70:	2b2b6365 	blcs	ae1c0c <_Min_Stack_Size+0xae180c>
    8e74:	7628203b 			; <UNDEFINED> instruction: 0x7628203b
    8e78:	2d297073 	stccs	0, cr7, [r9, #-460]!	; 0xfffffe34
    8e7c:	5f76743e 	svcpl	0x0076743e
    8e80:	6365736e 	cmnvs	r5, #-1207959551	; 0xb8000001
    8e84:	203d2d20 	eorscs	r2, sp, r0, lsr #26
    8e88:	30303031 	eorscc	r3, r0, r1, lsr r0
    8e8c:	30303030 	eorscc	r3, r0, r0, lsr r0
    8e90:	3b4c3030 	blcc	1314f58 <_Min_Stack_Size+0x1314b58>
    8e94:	7d207d20 	stcvc	13, cr7, [r0, #-128]!	; 0xffffff80
    8e98:	69687720 	stmdbvs	r8!, {r5, r8, r9, sl, ip, sp, lr}^
    8e9c:	2820656c 	stmdacs	r0!, {r2, r3, r5, r6, r8, sl, sp, lr}
    8ea0:	41002930 	tstmi	r0, r0, lsr r9
    8ea4:	53454343 	movtpl	r4, #21315	; 0x5343
    8ea8:	52455053 	subpl	r5, r5, #83	; 0x53
    8eac:	2820534d 	stmdacs	r0!, {r0, r2, r3, r6, r8, r9, ip, lr}
    8eb0:	52495f53 	subpl	r5, r9, #332	; 0x14c
    8eb4:	20555857 	subscs	r5, r5, r7, asr r8
    8eb8:	5f53207c 	svcpl	0x0053207c
    8ebc:	58575249 	ldmdapl	r7, {r0, r3, r6, r9, ip, lr}^
    8ec0:	207c2047 	rsbscs	r2, ip, r7, asr #32
    8ec4:	52495f53 	subpl	r5, r9, #332	; 0x14c
    8ec8:	294f5857 	stmdbcs	pc, {r0, r1, r2, r4, r6, fp, ip, lr}^	; <UNPREDICTABLE>
    8ecc:	47495300 	strbmi	r5, [r9, -r0, lsl #6]
    8ed0:	5252455f 	subspl	r4, r2, #398458880	; 0x17c00000
    8ed4:	5f282820 	svcpl	0x00282820
    8ed8:	5f676973 	svcpl	0x00676973
    8edc:	636e7566 	cmnvs	lr, #427819008	; 0x19800000
    8ee0:	7274705f 	rsbsvc	r7, r4, #95	; 0x5f
    8ee4:	29312d29 	ldmdbcs	r1!, {r0, r3, r5, r8, sl, fp, sp}
    8ee8:	6d697400 	cfstrdvs	mvd7, [r9, #-0]
    8eec:	73697265 	cmnvc	r9, #1342177286	; 0x50000006
    8ef0:	28746573 	ldmdacs	r4!, {r0, r1, r4, r5, r6, r8, sl, sp, lr}^
    8ef4:	29707674 	ldmdbcs	r0!, {r2, r4, r5, r6, r9, sl, ip, sp, lr}^
    8ef8:	74282820 	strtvc	r2, [r8], #-2080	; 0xfffff7e0
    8efc:	2d297076 	stccs	0, cr7, [r9, #-472]!	; 0xfffffe28
    8f00:	5f76743e 	svcpl	0x0076743e
    8f04:	20636573 	rsbcs	r6, r3, r3, ror r5
    8f08:	28207c7c 	stmdacs	r0!, {r2, r3, r4, r5, r6, sl, fp, ip, sp, lr}
    8f0c:	29707674 	ldmdbcs	r0!, {r2, r4, r5, r6, r9, sl, ip, sp, lr}^
    8f10:	76743e2d 	ldrbtvc	r3, [r4], -sp, lsr #28
    8f14:	6573755f 	ldrbvs	r7, [r3, #-1375]!	; 0xfffffaa1
    8f18:	65002963 	strvs	r2, [r0, #-2403]	; 0xfffff69d
    8f1c:	6f6e7272 	svcvs	0x006e7272
    8f20:	5f2a2820 	svcpl	0x002a2820
    8f24:	7272655f 	rsbsvc	r6, r2, #398458880	; 0x17c00000
    8f28:	29286f6e 	stmdbcs	r8!, {r1, r2, r3, r5, r6, r8, r9, sl, fp, sp, lr}
    8f2c:	49550029 	ldmdbmi	r5, {r0, r3, r5}^
    8f30:	4c5f544e 	cfldrdmi	mvd5, [pc], {78}	; 0x4e
    8f34:	54534145 	ldrbpl	r4, [r3], #-325	; 0xfffffebb
    8f38:	414d5f38 	cmpmi	sp, r8, lsr pc
    8f3c:	5f282058 	svcpl	0x00282058
    8f40:	4e49555f 	mcrmi	5, 2, r5, cr9, cr15, {2}
    8f44:	454c5f54 	strbmi	r5, [ip, #-3924]	; 0xfffff0ac
    8f48:	38545341 	ldmdacc	r4, {r0, r6, r8, r9, ip, lr}^
    8f4c:	58414d5f 	stmdapl	r1, {r0, r1, r2, r3, r4, r6, r8, sl, fp, lr}^
    8f50:	00295f5f 	eoreq	r5, r9, pc, asr pc
    8f54:	5359535f 	cmppl	r9, #2080374785	; 0x7c000001
    8f58:	4843535f 	stmdami	r3, {r0, r1, r2, r3, r4, r6, r8, r9, ip, lr}^
    8f5c:	485f4445 	ldmdami	pc, {r0, r2, r6, sl, lr}^	; <UNPREDICTABLE>
    8f60:	5f00205f 	svcpl	0x0000205f
    8f64:	61747366 	cmnvs	r4, r6, ror #6
    8f68:	49550074 	ldmdbmi	r5, {r2, r4, r5, r6}^
    8f6c:	465f544e 	ldrbmi	r5, [pc], -lr, asr #8
    8f70:	33545341 	cmpcc	r4, #67108865	; 0x4000001
    8f74:	414d5f32 	cmpmi	sp, r2, lsr pc
    8f78:	5f282058 	svcpl	0x00282058
    8f7c:	4e49555f 	mcrmi	5, 2, r5, cr9, cr15, {2}
    8f80:	41465f54 	cmpmi	r6, r4, asr pc
    8f84:	32335453 	eorscc	r5, r3, #1392508928	; 0x53000000
    8f88:	58414d5f 	stmdapl	r1, {r0, r1, r2, r3, r4, r6, r8, sl, fp, lr}^
    8f8c:	00295f5f 	eoreq	r5, r9, pc, asr pc
    8f90:	50474953 	subpl	r4, r7, r3, asr r9
    8f94:	204c4c4f 	subcs	r4, ip, pc, asr #24
    8f98:	49474953 	stmdbmi	r7, {r0, r1, r4, r6, r8, fp, lr}^
    8f9c:	4e45004f 	cdpmi	0, 4, cr0, cr5, cr15, {2}
    8fa0:	544e454f 	strbpl	r4, [lr], #-1359	; 0xfffffab1
    8fa4:	49003220 	stmdbmi	r0, {r5, r9, ip, sp}
    8fa8:	414d544e 	cmpmi	sp, lr, asr #8
    8fac:	28435f58 	stmdacs	r3, {r3, r4, r6, r8, r9, sl, fp, ip, lr}^
    8fb0:	5f202978 	svcpl	0x00202978
    8fb4:	544e495f 	strbpl	r4, [lr], #-2399	; 0xfffff6a1
    8fb8:	5f58414d 	svcpl	0x0058414d
    8fbc:	29782843 	ldmdbcs	r8!, {r0, r1, r6, fp, sp}^
    8fc0:	544e4900 	strbpl	r4, [lr], #-2304	; 0xfffff700
    8fc4:	435f3233 	cmpmi	pc, #805306371	; 0x30000003
    8fc8:	20297828 	eorcs	r7, r9, r8, lsr #16
    8fcc:	4e495f5f 	mcrmi	15, 2, r5, cr9, cr15, {2}
    8fd0:	5f323354 	svcpl	0x00323354
    8fd4:	29782843 	ldmdbcs	r8!, {r0, r1, r6, fp, sp}^
    8fd8:	4e495500 	cdpmi	5, 4, cr5, cr9, cr0, {0}
    8fdc:	454c5f54 	strbmi	r5, [ip, #-3924]	; 0xfffff0ac
    8fe0:	33545341 	cmpcc	r4, #67108865	; 0x4000001
    8fe4:	414d5f32 	cmpmi	sp, r2, lsr pc
    8fe8:	5f282058 	svcpl	0x00282058
    8fec:	4e49555f 	mcrmi	5, 2, r5, cr9, cr15, {2}
    8ff0:	454c5f54 	strbmi	r5, [ip, #-3924]	; 0xfffff0ac
    8ff4:	33545341 	cmpcc	r4, #67108865	; 0x4000001
    8ff8:	414d5f32 	cmpmi	sp, r2, lsr pc
    8ffc:	295f5f58 	ldmdbcs	pc, {r3, r4, r6, r8, r9, sl, fp, ip, lr}^	; <UNPREDICTABLE>
    9000:	55535f00 	ldrbpl	r5, [r3, #-3840]	; 0xfffff100
    9004:	4f434553 	svcmi	0x00434553
    9008:	5f53444e 	svcpl	0x0053444e
    900c:	45445f54 	strbmi	r5, [r4, #-3924]	; 0xfffff0ac
    9010:	52414c43 	subpl	r4, r1, #17152	; 0x4300
    9014:	00204445 	eoreq	r4, r0, r5, asr #8
    9018:	41545345 	cmpmi	r4, r5, asr #6
    901c:	3120454c 			; <UNDEFINED> instruction: 0x3120454c
    9020:	5f003333 	svcpl	0x00003333
    9024:	696c6e75 	stmdbvs	ip!, {r0, r2, r4, r5, r6, r9, sl, fp, sp, lr}^
    9028:	5f006b6e 	svcpl	0x00006b6e
    902c:	5f535953 	svcpl	0x00535953
    9030:	4749535f 	smlsldmi	r5, r9, pc, r3	; <UNPREDICTABLE>
    9034:	5f544553 	svcpl	0x00544553
    9038:	00205f48 	eoreq	r5, r0, r8, asr #30
    903c:	5359535f 	cmppl	r9, #2080374785	; 0x7c000001
    9040:	54505f5f 	ldrbpl	r5, [r0], #-3935	; 0xfffff0a1
    9044:	41455248 	cmpmi	r5, r8, asr #4
    9048:	50595444 	subspl	r5, r9, r4, asr #8
    904c:	485f5345 	ldmdami	pc, {r0, r2, r6, r8, r9, ip, lr}^	; <UNPREDICTABLE>
    9050:	5f00205f 	svcpl	0x0000205f
    9054:	5f434347 	svcpl	0x00434347
    9058:	50415257 	subpl	r5, r1, r7, asr r2
    905c:	4454535f 	ldrbmi	r5, [r4], #-863	; 0xfffffca1
    9060:	5f544e49 	svcpl	0x00544e49
    9064:	5f002048 	svcpl	0x00002048
    9068:	43414d5f 	movtmi	r4, #7519	; 0x1d5f
    906c:	454e4948 	strbmi	r4, [lr, #-2376]	; 0xfffff6b8
    9070:	444e455f 	strbmi	r4, [lr], #-1375	; 0xfffffaa1
    9074:	5f4e4149 	svcpl	0x004e4149
    9078:	205f5f48 	subscs	r5, pc, r8, asr #30
    907c:	47495300 	strbmi	r5, [r9, -r0, lsl #6]
    9080:	535f5645 	cmppl	pc, #72351744	; 0x4500000
    9084:	414e4749 	cmpmi	lr, r9, asr #14
    9088:	0032204c 	eorseq	r2, r2, ip, asr #32
    908c:	73625f5f 	cmnvc	r2, #380	; 0x17c
    9090:	36706177 			; <UNDEFINED> instruction: 0x36706177
    9094:	785f2834 	ldmdavc	pc, {r2, r4, r5, fp, sp}^	; <UNPREDICTABLE>
    9098:	5f5f2029 	svcpl	0x005f2029
    909c:	6c697562 	cfstr64vs	mvdx7, [r9], #-392	; 0xfffffe78
    90a0:	5f6e6974 	svcpl	0x006e6974
    90a4:	61777362 	cmnvs	r7, r2, ror #6
    90a8:	28343670 	ldmdacs	r4!, {r4, r5, r6, r9, sl, ip, sp}
    90ac:	0029785f 	eoreq	r7, r9, pc, asr r8
    90b0:	4d49545f 	cfstrdmi	mvd5, [r9, #-380]	; 0xfffffe84
    90b4:	4c415645 	mcrrmi	6, 4, r5, r1, cr5
    90b8:	4645445f 			; <UNDEFINED> instruction: 0x4645445f
    90bc:	44454e49 	strbmi	r4, [r5], #-3657	; 0xfffff1b7
    90c0:	69730020 	ldmdbvs	r3!, {r5}^
    90c4:	64646167 	strbtvs	r6, [r4], #-359	; 0xfffffe99
    90c8:	28746573 	ldmdacs	r4!, {r0, r1, r4, r5, r6, r8, sl, sp, lr}^
    90cc:	74616877 	strbtvc	r6, [r1], #-2167	; 0xfffff789
    90d0:	6769732c 	strbvs	r7, [r9, -ip, lsr #6]!
    90d4:	2a282029 	bcs	a11180 <_Min_Stack_Size+0xa10d80>
    90d8:	61687728 	cmnvs	r8, r8, lsr #14
    90dc:	7c202974 			; <UNDEFINED> instruction: 0x7c202974
    90e0:	3128203d 			; <UNDEFINED> instruction: 0x3128203d
    90e4:	73283c3c 			; <UNDEFINED> instruction: 0x73283c3c
    90e8:	29296769 	stmdbcs	r9!, {r0, r3, r5, r6, r8, r9, sl, sp, lr}
    90ec:	2930202c 	ldmdbcs	r0!, {r2, r3, r5, sp}
    90f0:	54534400 	ldrbpl	r4, [r3], #-1024	; 0xfffffc00
    90f4:	54454d5f 	strbpl	r4, [r5], #-3423	; 0xfffff2a1
    90f8:	5f003420 	svcpl	0x00003420
    90fc:	41454c5f 	cmpmi	r5, pc, asr ip
    9100:	36315453 			; <UNDEFINED> instruction: 0x36315453
    9104:	22682220 	rsbcs	r2, r8, #32, 4
    9108:	5f495300 	svcpl	0x00495300
    910c:	4753454d 	ldrbmi	r4, [r3, -sp, asr #10]
    9110:	00352051 	eorseq	r2, r5, r1, asr r0
    9114:	535f4446 	cmppl	pc, #1174405120	; 0x46000000
    9118:	49535445 	ldmdbmi	r3, {r0, r2, r6, sl, ip, lr}^
    911c:	3620455a 			; <UNDEFINED> instruction: 0x3620455a
    9120:	5f530034 	svcpl	0x00530034
    9124:	58575249 	ldmdapl	r7, {r0, r3, r6, r9, ip, lr}^
    9128:	53282055 			; <UNDEFINED> instruction: 0x53282055
    912c:	5552495f 	ldrbpl	r4, [r2, #-2399]	; 0xfffff6a1
    9130:	7c205253 	sfmvc	f5, 4, [r0], #-332	; 0xfffffeb4
    9134:	495f5320 	ldmdbmi	pc, {r5, r8, r9, ip, lr}^	; <UNPREDICTABLE>
    9138:	52535557 	subspl	r5, r3, #364904448	; 0x15c00000
    913c:	53207c20 			; <UNDEFINED> instruction: 0x53207c20
    9140:	5558495f 	ldrbpl	r4, [r8, #-2399]	; 0xfffff6a1
    9144:	00295253 	eoreq	r5, r9, r3, asr r2
    9148:	41465f5f 	cmpmi	r6, pc, asr pc
    914c:	20385453 	eorscs	r5, r8, r3, asr r4
    9150:	5f767400 	svcpl	0x00767400
    9154:	6365736e 	cmnvs	r5, #-1207959551	; 0xb8000001
    9158:	464e4500 	strbmi	r4, [lr], -r0, lsl #10
    915c:	20454c49 	subcs	r4, r5, r9, asr #24
    9160:	45003332 	strmi	r3, [r0, #-818]	; 0xfffffcce
    9164:	52544e49 	subspl	r4, r4, #1168	; 0x490
    9168:	4d003420 	cfstrsmi	mvf3, [r0, #-128]	; 0xffffff80
    916c:	49534e49 	ldmdbmi	r3, {r0, r3, r6, r9, sl, fp, lr}^
    9170:	4b545347 	blmi	151de94 <_Min_Stack_Size+0x151da94>
    9174:	32205a53 	eorcc	r5, r0, #339968	; 0x53000
    9178:	00383430 	eorseq	r3, r8, r0, lsr r4
    917c:	4946495f 	stmdbmi	r6, {r0, r1, r2, r3, r4, r6, r8, fp, lr}^
    9180:	30204f46 	eorcc	r4, r0, r6, asr #30
    9184:	30303130 	eorscc	r3, r0, r0, lsr r1
    9188:	53003030 	movwpl	r3, #48	; 0x30
    918c:	4b4c425f 	blmi	1319b10 <_Min_Stack_Size+0x1319710>
    9190:	455a4953 	ldrbmi	r4, [sl, #-2387]	; 0xfffff6ad
    9194:	32303120 	eorscc	r3, r0, #32, 2
    9198:	505f0034 	subspl	r0, pc, r4, lsr r0	; <UNPREDICTABLE>
    919c:	45524854 	ldrbmi	r4, [r2, #-2132]	; 0xfffff7ac
    91a0:	4d5f4441 	cfldrdmi	mvd4, [pc, #-260]	; 90a4 <_Min_Stack_Size+0x8ca4>
    91a4:	58455455 	stmdapl	r5, {r0, r2, r4, r6, sl, ip, lr}^
    91a8:	494e495f 	stmdbmi	lr, {r0, r1, r2, r3, r4, r6, r8, fp, lr}^
    91ac:	4c414954 	mcrrmi	9, 5, r4, r1, cr4	; <UNPREDICTABLE>
    91b0:	52455a49 	subpl	r5, r5, #299008	; 0x49000
    91b4:	70282820 	eorvc	r2, r8, r0, lsr #16
    91b8:	65726874 	ldrbvs	r6, [r2, #-2164]!	; 0xfffff78c
    91bc:	6d5f6461 	cfldrdvs	mvd6, [pc, #-388]	; 9040 <_Min_Stack_Size+0x8c40>
    91c0:	78657475 	stmdavc	r5!, {r0, r2, r4, r5, r6, sl, ip, sp, lr}^
    91c4:	2029745f 	eorcs	r7, r9, pc, asr r4
    91c8:	46467830 			; <UNDEFINED> instruction: 0x46467830
    91cc:	46464646 	strbmi	r4, [r6], -r6, asr #12
    91d0:	00294646 	eoreq	r4, r9, r6, asr #12
    91d4:	5f736d74 	svcpl	0x00736d74
    91d8:	69747363 	ldmdbvs	r4!, {r0, r1, r5, r6, r8, r9, ip, sp, lr}^
    91dc:	4500656d 	strmi	r6, [r0, #-1389]	; 0xfffffa93
    91e0:	52544f4e 	subspl	r4, r4, #312	; 0x138
    91e4:	564f4345 	strbpl	r4, [pc], -r5, asr #6
    91e8:	42415245 	submi	r5, r1, #1342177284	; 0x50000004
    91ec:	3120454c 			; <UNDEFINED> instruction: 0x3120454c
    91f0:	55003134 	strpl	r3, [r0, #-308]	; 0xfffffecc
    91f4:	36544e49 	ldrbcc	r4, [r4], -r9, asr #28
    91f8:	28435f34 	stmdacs	r3, {r2, r4, r5, r8, r9, sl, fp, ip, lr}^
    91fc:	5f202978 	svcpl	0x00202978
    9200:	4e49555f 	mcrmi	5, 2, r5, cr9, cr15, {2}
    9204:	5f343654 	svcpl	0x00343654
    9208:	29782843 	ldmdbcs	r8!, {r0, r1, r6, fp, sp}^
    920c:	4d544900 	vldrmi.16	s9, [r4, #-0]	; <UNPREDICTABLE>
    9210:	4954535f 	ldmdbmi	r4, {r0, r1, r2, r3, r4, r6, r8, r9, ip, lr}^
    9214:	554c554d 	strbpl	r5, [ip, #-1357]	; 0xfffffab3
    9218:	4f505f53 	svcmi	0x00505f53
    921c:	20305452 	eorscs	r5, r0, r2, asr r4
    9220:	7628282a 	strtvc	r2, [r8], -sl, lsr #16
    9224:	74616c6f 	strbtvc	r6, [r1], #-3183	; 0xfffff391
    9228:	20656c69 	rsbcs	r6, r5, r9, ror #24
    922c:	746e6975 	strbtvc	r6, [lr], #-2421	; 0xfffff68b
    9230:	745f3233 	ldrbvc	r3, [pc], #-563	; 9238 <_Min_Stack_Size+0x8e38>
    9234:	3020292a 	eorcc	r2, r0, sl, lsr #18
    9238:	30304578 	eorscc	r4, r0, r8, ror r5
    923c:	30303030 	eorscc	r3, r0, r0, lsr r0
    9240:	00292030 	eoreq	r2, r9, r0, lsr r0
    9244:	656d6974 	strbvs	r6, [sp, #-2420]!	; 0xfffff68c
    9248:	63657073 	cmnvs	r5, #115	; 0x73
    924c:	28706d63 	ldmdacs	r0!, {r0, r1, r5, r6, r8, sl, fp, sp, lr}^
    9250:	2c707674 	ldclcs	6, cr7, [r0], #-464	; 0xfffffe30
    9254:	2c707675 	ldclcs	6, cr7, [r0], #-468	; 0xfffffe2c
    9258:	29706d63 	ldmdbcs	r0!, {r0, r1, r5, r6, r8, sl, fp, sp, lr}^
    925c:	28282820 	stmdacs	r8!, {r5, fp, sp}
    9260:	29707674 	ldmdbcs	r0!, {r2, r4, r5, r6, r9, sl, ip, sp, lr}^
    9264:	76743e2d 	ldrbtvc	r3, [r4], -sp, lsr #28
    9268:	6365735f 	cmnvs	r5, #2080374785	; 0x7c000001
    926c:	203d3d20 	eorscs	r3, sp, r0, lsr #26
    9270:	70767528 	rsbsvc	r7, r6, r8, lsr #10
    9274:	743e2d29 	ldrtvc	r2, [lr], #-3369	; 0xfffff2d7
    9278:	65735f76 	ldrbvs	r5, [r3, #-3958]!	; 0xfffff08a
    927c:	3f202963 	svccc	0x00202963
    9280:	74282820 	strtvc	r2, [r8], #-2080	; 0xfffff7e0
    9284:	2d297076 	stccs	0, cr7, [r9, #-472]!	; 0xfffffe28
    9288:	5f76743e 	svcpl	0x0076743e
    928c:	6365736e 	cmnvs	r5, #-1207959551	; 0xb8000001
    9290:	706d6320 	rsbvc	r6, sp, r0, lsr #6
    9294:	76752820 	ldrbtvc	r2, [r5], -r0, lsr #16
    9298:	3e2d2970 			; <UNDEFINED> instruction: 0x3e2d2970
    929c:	6e5f7674 	mrcvs	6, 2, r7, cr15, cr4, {3}
    92a0:	29636573 	stmdbcs	r3!, {r0, r1, r4, r5, r6, r8, sl, sp, lr}^
    92a4:	28203a20 	stmdacs	r0!, {r5, r9, fp, ip, sp}
    92a8:	70767428 	rsbsvc	r7, r6, r8, lsr #8
    92ac:	743e2d29 	ldrtvc	r2, [lr], #-3369	; 0xfffff2d7
    92b0:	65735f76 	ldrbvs	r5, [r3, #-3958]!	; 0xfffff08a
    92b4:	6d632063 	stclvs	0, cr2, [r3, #-396]!	; 0xfffffe74
    92b8:	75282070 	strvc	r2, [r8, #-112]!	; 0xffffff90
    92bc:	2d297076 	stccs	0, cr7, [r9, #-472]!	; 0xfffffe28
    92c0:	5f76743e 	svcpl	0x0076743e
    92c4:	29636573 	stmdbcs	r3!, {r0, r1, r4, r5, r6, r8, sl, sp, lr}^
    92c8:	535f0029 	cmppl	pc, #41	; 0x29
    92cc:	494c4454 	stmdbmi	ip, {r2, r4, r6, sl, lr}^
    92d0:	5f485f42 	svcpl	0x00485f42
    92d4:	445f0020 	ldrbmi	r0, [pc], #-32	; 92dc <_Min_Stack_Size+0x8edc>
    92d8:	545f5645 	ldrbpl	r5, [pc], #-1605	; 92e0 <_Min_Stack_Size+0x8ee0>
    92dc:	4345445f 	movtmi	r4, #21599	; 0x545f
    92e0:	4552414c 	ldrbmi	r4, [r2, #-332]	; 0xfffffeb4
    92e4:	53002044 	movwpl	r2, #68	; 0x44
    92e8:	5653495f 			; <UNDEFINED> instruction: 0x5653495f
    92ec:	30205854 	eorcc	r5, r0, r4, asr r8
    92f0:	30313030 	eorscc	r3, r1, r0, lsr r0
    92f4:	5f003030 	svcpl	0x00003030
    92f8:	6e65706f 	cdpvs	0, 6, cr7, cr5, cr15, {3}
    92fc:	4e495500 	cdpmi	5, 4, cr5, cr9, cr0, {0}
    9300:	5f323354 	svcpl	0x00323354
    9304:	29782843 	ldmdbcs	r8!, {r0, r1, r6, fp, sp}^
    9308:	555f5f20 	ldrbpl	r5, [pc, #-3872]	; 83f0 <_Min_Stack_Size+0x7ff0>
    930c:	33544e49 	cmpcc	r4, #1168	; 0x490
    9310:	28435f32 	stmdacs	r3, {r1, r4, r5, r8, r9, sl, fp, ip, lr}^
    9314:	5f002978 	svcpl	0x00002978
    9318:	44415551 	strbmi	r5, [r1], #-1361	; 0xfffffaaf
    931c:	4749485f 	smlsldmi	r4, r9, pc, r8	; <UNPREDICTABLE>
    9320:	524f5748 	subpl	r5, pc, #72, 14	; 0x1200000
    9324:	00312044 	eorseq	r2, r1, r4, asr #32
    9328:	534f4e45 	movtpl	r4, #65093	; 0xfe45
    932c:	33362052 	teqcc	r6, #82	; 0x52
    9330:	5f747300 	svcpl	0x00747300
    9334:	6d697463 	cfstrdvs	mvd7, [r9, #-396]!	; 0xfffffe74
    9338:	74732065 	ldrbtvc	r2, [r3], #-101	; 0xffffff9b
    933c:	6974635f 	ldmdbvs	r4!, {r0, r1, r2, r3, r4, r6, r8, r9, sp, lr}^
    9340:	76742e6d 	ldrbtvc	r2, [r4], -sp, ror #28
    9344:	6365735f 	cmnvs	r5, #2080374785	; 0x7c000001
    9348:	47495300 	strbmi	r5, [r9, -r0, lsl #6]
    934c:	464f5250 			; <UNDEFINED> instruction: 0x464f5250
    9350:	00373220 	eorseq	r3, r7, r0, lsr #4
    9354:	5f474953 	svcpl	0x00474953
    9358:	4d4f5441 	cfstrdmi	mvd5, [pc, #-260]	; 925c <_Min_Stack_Size+0x8e5c>
    935c:	4d5f4349 	ldclmi	3, cr4, [pc, #-292]	; 9240 <_Min_Stack_Size+0x8e40>
    9360:	28204e49 	stmdacs	r0!, {r0, r3, r6, r9, sl, fp, lr}
    9364:	535f5f2d 	cmppl	pc, #45, 30	; 0xb4
    9368:	4e494454 	mcrmi	4, 2, r4, cr9, cr4, {2}
    936c:	58455f54 	stmdapl	r5, {r2, r4, r6, r8, r9, sl, fp, ip, lr}^
    9370:	4e492850 	mcrmi	8, 2, r2, cr9, cr0, {2}
    9374:	414d5f54 	cmpmi	sp, r4, asr pc
    9378:	2d202958 			; <UNDEFINED> instruction: 0x2d202958
    937c:	00293120 	eoreq	r3, r9, r0, lsr #2
    9380:	69675f5f 	stmdbvs	r7!, {r0, r1, r2, r3, r4, r6, r8, r9, sl, fp, ip, lr}^
    9384:	00745f64 	rsbseq	r5, r4, r4, ror #30
    9388:	6d5f7473 	cfldrdvs	mvd7, [pc, #-460]	; 91c4 <_Min_Stack_Size+0x8dc4>
    938c:	0065646f 	rsbeq	r6, r5, pc, ror #8
    9390:	69755f5f 	ldmdbvs	r5!, {r0, r1, r2, r3, r4, r6, r8, r9, sl, fp, ip, lr}^
    9394:	00745f64 	rsbseq	r5, r4, r4, ror #30
    9398:	57454e5f 	smlsldpl	r4, r5, pc, lr	; <UNPREDICTABLE>
    939c:	5f42494c 	svcpl	0x0042494c
    93a0:	4f4c4c41 	svcmi	0x004c4c41
    93a4:	485f4143 	ldmdami	pc, {r0, r1, r6, r8, lr}^	; <UNPREDICTABLE>
    93a8:	5f5f0020 	svcpl	0x005f0020
    93ac:	33544e49 	cmpcc	r4, #1168	; 0x490
    93b0:	6c222032 	stcvs	0, cr2, [r2], #-200	; 0xffffff38
    93b4:	5f530022 	svcpl	0x00530022
    93b8:	53555749 	cmppl	r5, #19136512	; 0x1240000
    93bc:	30302052 	eorscc	r2, r0, r2, asr r0
    93c0:	30323030 	eorscc	r3, r2, r0, lsr r0
    93c4:	74730030 	ldrbtvc	r0, [r3], #-48	; 0xffffffd0
    93c8:	646f7472 	strbtvs	r7, [pc], #-1138	; 93d0 <_Min_Stack_Size+0x8fd0>
    93cc:	74732066 	ldrbtvc	r2, [r3], #-102	; 0xffffff9a
    93d0:	666f7472 			; <UNDEFINED> instruction: 0x666f7472
    93d4:	544e4900 	strbpl	r4, [lr], #-2304	; 0xfffff700
    93d8:	5341465f 	movtpl	r4, #5727	; 0x165f
    93dc:	5f363154 	svcpl	0x00363154
    93e0:	204e494d 	subcs	r4, lr, sp, asr #18
    93e4:	5f5f2d28 	svcpl	0x005f2d28
    93e8:	5f544e49 	svcpl	0x00544e49
    93ec:	54534146 	ldrbpl	r4, [r3], #-326	; 0xfffffeba
    93f0:	4d5f3631 	ldclmi	6, cr3, [pc, #-196]	; 9334 <_Min_Stack_Size+0x8f34>
    93f4:	5f5f5841 	svcpl	0x005f5841
    93f8:	31202d20 			; <UNDEFINED> instruction: 0x31202d20
    93fc:	435f0029 	cmpmi	pc, #41	; 0x29
    9400:	4b434f4c 	blmi	10dd138 <_Min_Stack_Size+0x10dcd38>
    9404:	45505f53 	ldrbmi	r5, [r0, #-3923]	; 0xfffff0ad
    9408:	45535f52 	ldrbmi	r5, [r3, #-3922]	; 0xfffff0ae
    940c:	31205f43 			; <UNDEFINED> instruction: 0x31205f43
    9410:	53003030 	movwpl	r3, #48	; 0x30
    9414:	4f494749 	svcmi	0x00494749
    9418:	00333220 	eorseq	r3, r3, r0, lsr #4
    941c:	544e4955 	strbpl	r4, [lr], #-2389	; 0xfffff6ab
    9420:	4d5f3631 	ldclmi	6, cr3, [pc, #-196]	; 9364 <_Min_Stack_Size+0x8f64>
    9424:	28205841 	stmdacs	r0!, {r0, r6, fp, ip, lr}
    9428:	49555f5f 	ldmdbmi	r5, {r0, r1, r2, r3, r4, r6, r8, r9, sl, fp, ip, lr}^
    942c:	3631544e 	ldrtcc	r5, [r1], -lr, asr #8
    9430:	58414d5f 	stmdapl	r1, {r0, r1, r2, r3, r4, r6, r8, sl, fp, lr}^
    9434:	00295f5f 	eoreq	r5, r9, pc, asr pc
    9438:	726f6873 	rsbvc	r6, pc, #7536640	; 0x730000
    943c:	312b2074 			; <UNDEFINED> instruction: 0x312b2074
    9440:	53425f00 	movtpl	r5, #12032	; 0x2f00
    9444:	50595444 	subspl	r5, r9, r4, asr #8
    9448:	445f5345 	ldrbmi	r5, [pc], #-837	; 9450 <_Min_Stack_Size+0x9050>
    944c:	4e494645 	cdpmi	6, 4, cr4, cr9, cr5, {2}
    9450:	00204445 	eoreq	r4, r0, r5, asr #8
    9454:	4c554d45 	mrrcmi	13, 4, r4, r5, cr5
    9458:	4f484954 	svcmi	0x00484954
    945c:	34372050 	ldrtcc	r2, [r7], #-80	; 0xffffffb0
    9460:	4e495f00 	cdpmi	15, 4, cr5, cr9, cr0, {0}
    9464:	545f3854 	ldrbpl	r3, [pc], #-2132	; 946c <_Min_Stack_Size+0x906c>
    9468:	4345445f 	movtmi	r4, #21599	; 0x545f
    946c:	4552414c 	ldrbmi	r4, [r2, #-332]	; 0xfffffeb4
    9470:	5f002044 	svcpl	0x00002044
    9474:	33544e49 	cmpcc	r4, #1168	; 0x490
    9478:	5f545f32 	svcpl	0x00545f32
    947c:	4c434544 	cfstr64mi	mvdx4, [r3], {68}	; 0x44
    9480:	44455241 	strbmi	r5, [r5], #-577	; 0xfffffdbf
    9484:	5f5f0020 	svcpl	0x005f0020
    9488:	32746e69 	rsbscc	r6, r4, #1680	; 0x690
    948c:	735f0030 	cmpvc	pc, #48	; 0x30
    9490:	00746174 	rsbseq	r6, r4, r4, ror r1
    9494:	746e6962 	strbtvc	r6, [lr], #-2402	; 0xfffff69e
    9498:	5f656d69 	svcpl	0x00656d69
    949c:	61656c63 	cmnvs	r5, r3, ror #24
    94a0:	29612872 	stmdbcs	r1!, {r1, r4, r5, r6, fp, sp}^
    94a4:	61282820 			; <UNDEFINED> instruction: 0x61282820
    94a8:	733e2d29 	teqvc	lr, #2624	; 0xa40
    94ac:	3d206365 	stccc	3, cr6, [r0, #-404]!	; 0xfffffe6c
    94b0:	29612820 	stmdbcs	r1!, {r5, fp, sp}^
    94b4:	72663e2d 	rsbvc	r3, r6, #720	; 0x2d0
    94b8:	3d206361 	stccc	3, cr6, [r0, #-388]!	; 0xfffffe7c
    94bc:	00293020 	eoreq	r3, r9, r0, lsr #32
    94c0:	46495f53 			; <UNDEFINED> instruction: 0x46495f53
    94c4:	20524944 	subscs	r4, r2, r4, asr #18
    94c8:	4446495f 	strbmi	r4, [r6], #-2399	; 0xfffff6a1
    94cc:	45005249 	strmi	r5, [r0, #-585]	; 0xfffffdb7
    94d0:	4f4e4641 	svcmi	0x004e4641
    94d4:	50505553 	subspl	r5, r0, r3, asr r5
    94d8:	2054524f 	subscs	r5, r4, pc, asr #4
    94dc:	00363031 	eorseq	r3, r6, r1, lsr r0
    94e0:	55414645 	strbpl	r4, [r1, #-1605]	; 0xfffff9bb
    94e4:	3120544c 			; <UNDEFINED> instruction: 0x3120544c
    94e8:	44450034 	strbmi	r0, [r5], #-52	; 0xffffffcc
    94ec:	4c444145 	stfmie	f4, [r4], {69}	; 0x45
    94f0:	3534204b 	ldrcc	r2, [r4, #-75]!	; 0xffffffb5
    94f4:	535f5f00 	cmppl	pc, #0, 30
    94f8:	4e494454 	mcrmi	4, 2, r4, cr9, cr4, {2}
    94fc:	58455f54 	stmdapl	r5, {r2, r4, r6, r8, r9, sl, fp, ip, lr}^
    9500:	29782850 	ldmdbcs	r8!, {r4, r6, fp, sp}^
    9504:	205f5f20 	subscs	r5, pc, r0, lsr #30
    9508:	20782323 	rsbscs	r2, r8, r3, lsr #6
    950c:	5f5f2323 	svcpl	0x005f2323
    9510:	564f4500 	strbpl	r4, [pc], -r0, lsl #10
    9514:	4c465245 	sfmmi	f5, 2, [r6], {69}	; 0x45
    9518:	3120574f 			; <UNDEFINED> instruction: 0x3120574f
    951c:	5f003933 	svcpl	0x00003933
    9520:	746e695f 	strbtvc	r6, [lr], #-2399	; 0xfffff6a1
    9524:	5f5f3032 	svcpl	0x005f3032
    9528:	00322b20 	eorseq	r2, r2, r0, lsr #22
    952c:	5f736466 	svcpl	0x00736466
    9530:	73746962 	cmnvc	r4, #1605632	; 0x188000
    9534:	665f5f20 	ldrbvs	r5, [pc], -r0, lsr #30
    9538:	625f7364 	subsvs	r7, pc, #100, 6	; 0x90000001
    953c:	00737469 	rsbseq	r7, r3, r9, ror #8
    9540:	4d495445 	cfstrdmi	mvd5, [r9, #-276]	; 0xfffffeec
    9544:	554f4445 	strbpl	r4, [pc, #-1093]	; 9107 <_Min_Stack_Size+0x8d07>
    9548:	31312054 	teqcc	r1, r4, asr r0
    954c:	495f0036 	ldmdbmi	pc, {r1, r2, r4, r5}^	; <UNPREDICTABLE>
    9550:	3233544e 	eorscc	r5, r3, #1308622848	; 0x4e000000
    9554:	5f51455f 	svcpl	0x0051455f
    9558:	474e4f4c 	strbmi	r4, [lr, -ip, asr #30]
    955c:	435f0020 	cmpmi	pc, #32
    9560:	4b434f4c 	blmi	10dd298 <_Min_Stack_Size+0x10dce98>
    9564:	545f4449 	ldrbpl	r4, [pc], #-1097	; 956c <_Min_Stack_Size+0x916c>
    9568:	4345445f 	movtmi	r4, #21599	; 0x545f
    956c:	4552414c 	ldrbmi	r4, [r2, #-332]	; 0xfffffeb4
    9570:	53002044 	movwpl	r2, #68	; 0x44
    9574:	56454749 	strbpl	r4, [r5], -r9, asr #14
    9578:	5248545f 	subpl	r5, r8, #1593835520	; 0x5f000000
    957c:	20444145 	subcs	r4, r4, r5, asr #2
    9580:	535f0033 	cmppl	pc, #51	; 0x33
    9584:	545f5359 	ldrbpl	r5, [pc], #-857	; 958c <_Min_Stack_Size+0x918c>
    9588:	53454d49 	movtpl	r4, #23881	; 0x5d49
    958c:	0020485f 	eoreq	r4, r0, pc, asr r8
    9590:	4749425f 	smlsldmi	r4, r9, pc, r2	; <UNPREDICTABLE>
    9594:	444e455f 	strbmi	r4, [lr], #-1375	; 0xfffffaa1
    9598:	204e4149 	subcs	r4, lr, r9, asr #2
    959c:	31323334 	teqcc	r2, r4, lsr r3
    95a0:	4f4e4500 	svcmi	0x004e4500
    95a4:	20564544 	subscs	r4, r6, r4, asr #10
    95a8:	5f003931 	svcpl	0x00003931
    95ac:	41454c5f 	cmpmi	r5, pc, asr ip
    95b0:	20385453 	eorscs	r5, r8, r3, asr r4
    95b4:	22686822 	rsbcs	r6, r8, #2228224	; 0x220000
    95b8:	47495300 	strbmi	r5, [r9, -r0, lsl #6]
    95bc:	4e5f5645 	cdpmi	6, 5, cr5, cr15, cr5, {2}
    95c0:	20454e4f 	subcs	r4, r5, pc, asr #28
    95c4:	5f5f0031 	svcpl	0x005f0031
    95c8:	36544e49 	ldrbcc	r4, [r4], -r9, asr #28
    95cc:	6c222034 	stcvs	0, cr2, [r2], #-208	; 0xffffff30
    95d0:	5f00226c 	svcpl	0x0000226c
    95d4:	6565736c 	strbvs	r7, [r5, #-876]!	; 0xfffffc94
    95d8:	4e45006b 	cdpmi	0, 4, cr0, cr5, cr11, {3}
    95dc:	4b434c4f 	blmi	10dc720 <_Min_Stack_Size+0x10dc320>
    95e0:	00363420 	eorseq	r3, r6, r0, lsr #8
    95e4:	43474953 	movtmi	r4, #31059	; 0x7953
    95e8:	20444c48 	subcs	r4, r4, r8, asr #24
    95ec:	55003032 	strpl	r3, [r0, #-50]	; 0xffffffce
    95f0:	38544e49 	ldmdacc	r4, {r0, r3, r6, r9, sl, fp, lr}^
    95f4:	58414d5f 	stmdapl	r1, {r0, r1, r2, r3, r4, r6, r8, sl, fp, lr}^
    95f8:	5f5f2820 	svcpl	0x005f2820
    95fc:	544e4955 	strbpl	r4, [lr], #-2389	; 0xfffff6ab
    9600:	414d5f38 	cmpmi	sp, r8, lsr pc
    9604:	295f5f58 	ldmdbcs	pc, {r3, r4, r6, r8, r9, sl, fp, ip, lr}^	; <UNPREDICTABLE>
    9608:	4c414500 	cfstr64mi	mvdx4, [r1], {-0}
    960c:	44414552 	strbmi	r4, [r1], #-1362	; 0xfffffaae
    9610:	32312059 	eorscc	r2, r1, #89	; 0x59
    9614:	49550030 	ldmdbmi	r5, {r4, r5}^
    9618:	465f544e 	ldrbmi	r5, [pc], -lr, asr #8
    961c:	38545341 	ldmdacc	r4, {r0, r6, r8, r9, ip, lr}^
    9620:	58414d5f 	stmdapl	r1, {r0, r1, r2, r3, r4, r6, r8, sl, fp, lr}^
    9624:	5f5f2820 	svcpl	0x005f2820
    9628:	544e4955 	strbpl	r4, [lr], #-2389	; 0xfffff6ab
    962c:	5341465f 	movtpl	r4, #5727	; 0x165f
    9630:	4d5f3854 	ldclmi	8, cr3, [pc, #-336]	; 94e8 <_Min_Stack_Size+0x90e8>
    9634:	5f5f5841 	svcpl	0x005f5841
    9638:	5f530029 	svcpl	0x00530029
    963c:	45525349 	ldrbmi	r5, [r2, #-841]	; 0xfffffcb7
    9640:	296d2847 	stmdbcs	sp!, {r0, r1, r2, r6, fp, sp}^
    9644:	28282820 	stmdacs	r8!, {r5, fp, sp}
    9648:	5f26296d 	svcpl	0x0026296d
    964c:	544d4649 	strbpl	r4, [sp], #-1609	; 0xfffff9b7
    9650:	3d3d2029 	ldccc	0, cr2, [sp, #-164]!	; 0xffffff5c
    9654:	46495f20 	strbmi	r5, [r9], -r0, lsr #30
    9658:	29474552 	stmdbcs	r7, {r1, r4, r6, r8, sl, lr}^
    965c:	6e6f6c00 	cdpvs	12, 6, cr6, cr15, cr0, {0}
    9660:	342b2067 	strtcc	r2, [fp], #-103	; 0xffffff99
    9664:	6e5f5f00 	cdpvs	15, 5, cr5, cr15, cr0, {0}
    9668:	5f646565 	svcpl	0x00646565
    966c:	74746e69 	ldrbtvc	r6, [r4], #-3689	; 0xfffff197
    9670:	73657079 	cmnvc	r5, #121	; 0x79
    9674:	47495300 	strbmi	r5, [r9, -r0, lsl #6]
    9678:	54524241 	ldrbpl	r4, [r2], #-577	; 0xfffffdbf
    967c:	50003620 	andpl	r3, r0, r0, lsr #12
    9680:	455f5044 	ldrbmi	r5, [pc, #-68]	; 9644 <_Min_Stack_Size+0x9244>
    9684:	4149444e 	cmpmi	r9, lr, asr #8
    9688:	505f204e 	subspl	r2, pc, lr, asr #32
    968c:	455f5044 	ldrbmi	r5, [pc, #-68]	; 9650 <_Min_Stack_Size+0x9250>
    9690:	4149444e 	cmpmi	r9, lr, asr #8
    9694:	535f004e 	cmppl	pc, #78	; 0x4e
    9698:	414e4749 	cmpmi	lr, r9, asr #14
    969c:	5f485f4c 	svcpl	0x00485f4c
    96a0:	43530020 	cmpmi	r3, #32
    96a4:	5f444548 	svcpl	0x00444548
    96a8:	32205252 	eorcc	r5, r0, #536870917	; 0x20000005
    96ac:	5f747300 	svcpl	0x00747300
    96b0:	006f6e69 	rsbeq	r6, pc, r9, ror #28
    96b4:	5454494c 	ldrbpl	r4, [r4], #-2380	; 0xfffff6b4
    96b8:	455f454c 	ldrbmi	r4, [pc, #-1356]	; 9174 <_Min_Stack_Size+0x8d74>
    96bc:	4149444e 	cmpmi	r9, lr, asr #8
    96c0:	4c5f204e 	mrrcmi	0, 4, r2, pc, cr14	; <UNPREDICTABLE>
    96c4:	4c545449 	cfldrdmi	mvd5, [r4], {73}	; 0x49
    96c8:	4e455f45 	cdpmi	15, 4, cr5, cr5, cr5, {2}
    96cc:	4e414944 	vmlsmi.f16	s9, s2, s8	; <UNPREDICTABLE>
    96d0:	44414500 	strbmi	r4, [r1], #-1280	; 0xfffffb00
    96d4:	4f4e5244 	svcmi	0x004e5244
    96d8:	41564154 	cmpmi	r6, r4, asr r1
    96dc:	31204c49 			; <UNDEFINED> instruction: 0x31204c49
    96e0:	53003532 	movwpl	r3, #1330	; 0x532
    96e4:	55484749 	strbpl	r4, [r8, #-1865]	; 0xfffff8b7
    96e8:	00312050 	eorseq	r2, r1, r0, asr r0
    96ec:	5f544253 	svcpl	0x00544253
    96f0:	20534e31 	subscs	r4, r3, r1, lsr lr
    96f4:	54425328 	strbpl	r5, [r2], #-808	; 0xfffffcd8
    96f8:	2053315f 	subscs	r3, r3, pc, asr r1
    96fc:	3031202f 	eorscc	r2, r1, pc, lsr #32
    9700:	30303030 	eorscc	r3, r0, r0, lsr r0
    9704:	30303030 	eorscc	r3, r0, r0, lsr r0
    9708:	5f5f0029 	svcpl	0x005f0029
    970c:	6e696c6e 	cdpvs	12, 6, cr6, cr9, cr14, {3}
    9710:	00745f6b 	rsbseq	r5, r4, fp, ror #30
    9714:	4449505f 	strbmi	r5, [r9], #-95	; 0xffffffa1
    9718:	445f545f 	ldrbmi	r5, [pc], #-1119	; 9720 <_Min_Stack_Size+0x9320>
    971c:	414c4345 	cmpmi	ip, r5, asr #6
    9720:	20444552 	subcs	r4, r4, r2, asr r5
    9724:	455f5300 	ldrbmi	r5, [pc, #-768]	; 942c <_Min_Stack_Size+0x902c>
    9728:	544d464e 	strbpl	r4, [sp], #-1614	; 0xfffff9b2
    972c:	30303020 	eorscc	r3, r0, r0, lsr #32
    9730:	30303032 	eorscc	r3, r0, r2, lsr r0
    9734:	495f5300 	ldmdbmi	pc, {r8, r9, ip, lr}^	; <UNPREDICTABLE>
    9738:	52535552 	subspl	r5, r3, #343932928	; 0x14800000
    973c:	30303020 	eorscc	r3, r0, r0, lsr #32
    9740:	30303430 	eorscc	r3, r0, r0, lsr r4
    9744:	5f444600 	svcpl	0x00444600
    9748:	4f52455a 	svcmi	0x0052455a
    974c:	20297028 	eorcs	r7, r9, r8, lsr #32
    9750:	7b206f64 	blvc	8254e8 <_Min_Stack_Size+0x8250e8>
    9754:	5f646620 	svcpl	0x00646620
    9758:	20746573 	rsbscs	r6, r4, r3, ror r5
    975c:	3b705f2a 	blcc	1c2140c <_Min_Stack_Size+0x1c2100c>
    9760:	735f5f20 	cmpvc	pc, #32, 30	; 0x80
    9764:	5f657a69 	svcpl	0x00657a69
    9768:	6e5f2074 	mrcvs	0, 2, r2, cr15, cr4, {3}
    976c:	705f203b 	subsvc	r2, pc, fp, lsr r0	; <UNPREDICTABLE>
    9770:	28203d20 	stmdacs	r0!, {r5, r8, sl, fp, ip, sp}
    9774:	203b2970 	eorscs	r2, fp, r0, ror r9
    9778:	3d206e5f 	stccc	14, cr6, [r0, #-380]!	; 0xfffffe84
    977c:	6f685f20 	svcvs	0x00685f20
    9780:	6e616d77 	mcrvs	13, 3, r6, cr1, cr7, {3}
    9784:	44462879 	strbmi	r2, [r6], #-2169	; 0xfffff787
    9788:	5445535f 	strbpl	r5, [r5], #-863	; 0xfffffca1
    978c:	455a4953 	ldrbmi	r4, [sl, #-2387]	; 0xfffff6ad
    9790:	4e5f202c 	cdpmi	0, 5, cr2, cr15, cr12, {1}
    9794:	49424446 	stmdbmi	r2, {r1, r2, r6, sl, lr}^
    9798:	3b295354 	blcc	a5e4f0 <_Min_Stack_Size+0xa5e0f0>
    979c:	69687720 	stmdbvs	r8!, {r5, r8, r9, sl, ip, sp, lr}^
    97a0:	2820656c 	stmdacs	r0!, {r2, r3, r5, r6, r8, sl, sp, lr}
    97a4:	3e206e5f 	mcrcc	14, 1, r6, cr0, cr15, {2}
    97a8:	20293020 	eorcs	r3, r9, r0, lsr #32
    97ac:	3e2d705f 	mcrcc	0, 1, r7, cr13, cr15, {2}
    97b0:	64665f5f 	strbtvs	r5, [r6], #-3935	; 0xfffff0a1
    97b4:	69625f73 	stmdbvs	r2!, {r0, r1, r4, r5, r6, r8, r9, sl, fp, ip, lr}^
    97b8:	2d5b7374 	ldclcs	3, cr7, [fp, #-464]	; 0xfffffe30
    97bc:	5d6e5f2d 	stclpl	15, cr5, [lr, #-180]!	; 0xffffff4c
    97c0:	30203d20 	eorcc	r3, r0, r0, lsr #26
    97c4:	207d203b 	rsbscs	r2, sp, fp, lsr r0
    97c8:	6c696877 	stclvs	8, cr6, [r9], #-476	; 0xfffffe24
    97cc:	30282065 	eorcc	r2, r8, r5, rrx
    97d0:	4e490029 	cdpmi	0, 4, cr0, cr9, cr9, {1}
    97d4:	41465f54 	cmpmi	r6, r4, asr pc
    97d8:	32335453 	eorscc	r5, r3, #1392508928	; 0x53000000
    97dc:	58414d5f 	stmdapl	r1, {r0, r1, r2, r3, r4, r6, r8, sl, fp, lr}^
    97e0:	5f5f2820 	svcpl	0x005f2820
    97e4:	5f544e49 	svcpl	0x00544e49
    97e8:	54534146 	ldrbpl	r4, [r3], #-326	; 0xfffffeba
    97ec:	4d5f3233 	lfmmi	f3, 2, [pc, #-204]	; 9728 <_Min_Stack_Size+0x9328>
    97f0:	5f5f5841 	svcpl	0x005f5841
    97f4:	4e490029 	cdpmi	0, 4, cr0, cr9, cr9, {1}
    97f8:	52545054 	subspl	r5, r4, #84	; 0x54
    97fc:	4e494d5f 	mcrmi	13, 2, r4, cr9, cr15, {2}
    9800:	5f2d2820 	svcpl	0x002d2820
    9804:	544e495f 	strbpl	r4, [lr], #-2399	; 0xfffff6a1
    9808:	5f525450 	svcpl	0x00525450
    980c:	5f58414d 	svcpl	0x0058414d
    9810:	202d205f 	eorcs	r2, sp, pc, asr r0
    9814:	5f002931 	svcpl	0x00002931
    9818:	6f6c635f 	svcvs	0x006c635f
    981c:	64696b63 	strbtvs	r6, [r9], #-2915	; 0xfffff49d
    9820:	645f745f 	ldrbvs	r7, [pc], #-1119	; 9828 <_Min_Stack_Size+0x9428>
    9824:	6e696665 	cdpvs	6, 6, cr6, cr9, cr5, {3}
    9828:	00206465 	eoreq	r6, r0, r5, ror #8
    982c:	204f4945 	subcs	r4, pc, r5, asr #18
    9830:	4e490035 	mcrmi	0, 2, r0, cr9, cr5, {1}
    9834:	41465f54 	cmpmi	r6, r4, asr pc
    9838:	34365453 	ldrtcc	r5, [r6], #-1107	; 0xfffffbad
    983c:	58414d5f 	stmdapl	r1, {r0, r1, r2, r3, r4, r6, r8, sl, fp, lr}^
    9840:	5f5f2820 	svcpl	0x005f2820
    9844:	5f544e49 	svcpl	0x00544e49
    9848:	54534146 	ldrbpl	r4, [r3], #-326	; 0xfffffeba
    984c:	4d5f3436 	cfldrdmi	mvd3, [pc, #-216]	; 977c <_Min_Stack_Size+0x937c>
    9850:	5f5f5841 	svcpl	0x005f5841
    9854:	53530029 	cmppl	r3, #41	; 0x29
    9858:	5349445f 	movtpl	r4, #37983	; 0x945f
    985c:	454c4241 	strbmi	r4, [ip, #-577]	; 0xfffffdbf
    9860:	32783020 	rsbscc	r3, r8, #32
    9864:	59535f00 	ldmdbpl	r3, {r8, r9, sl, fp, ip, lr}^
    9868:	54535f53 	ldrbpl	r5, [r3], #-3923	; 0xfffff0ad
    986c:	485f5441 	ldmdami	pc, {r0, r6, sl, ip, lr}^	; <UNPREDICTABLE>
    9870:	49530020 	ldmdbmi	r3, {r5}^
    9874:	524c4147 	subpl	r4, ip, #-1073741807	; 0xc0000011
    9878:	3431204d 	ldrtcc	r2, [r1], #-77	; 0xffffffb3
    987c:	5f747300 	svcpl	0x00747300
    9880:	6d697461 	cfstrdvs	mvd7, [r9, #-388]!	; 0xfffffe7c
    9884:	495f5f00 	ldmdbmi	pc, {r8, r9, sl, fp, ip, lr}^	; <UNPREDICTABLE>
    9888:	2038544e 	eorscs	r5, r8, lr, asr #8
    988c:	22686822 	rsbcs	r6, r8, #2228224	; 0x220000
    9890:	2f2e2e00 	svccs	0x002e2e00
    9894:	2f637253 	svccs	0x00637253
    9898:	6d737973 			; <UNDEFINED> instruction: 0x6d737973
    989c:	632e6d65 			; <UNDEFINED> instruction: 0x632e6d65
    98a0:	694d5f00 	stmdbvs	sp, {r8, r9, sl, fp, ip, lr}^
    98a4:	74535f6e 	ldrbvc	r5, [r3], #-3950	; 0xfffff092
    98a8:	5f6b6361 	svcpl	0x006b6361
    98ac:	657a6953 	ldrbvs	r6, [sl, #-2387]!	; 0xfffff6ad
    98b0:	78616d00 	stmdavc	r1!, {r8, sl, fp, sp, lr}^
    98b4:	6165685f 	cmnvs	r5, pc, asr r8
    98b8:	735f0070 	cmpvc	pc, #112	; 0x70
    98bc:	006b7262 	rsbeq	r7, fp, r2, ror #4
    98c0:	62735f5f 	rsbsvs	r5, r3, #380	; 0x17c
    98c4:	685f6b72 	ldmdavs	pc, {r1, r4, r5, r6, r8, r9, fp, sp, lr}^	; <UNPREDICTABLE>
    98c8:	5f706165 	svcpl	0x00706165
    98cc:	00646e65 	rsbeq	r6, r4, r5, ror #28
    98d0:	72636e69 	rsbvc	r6, r3, #1680	; 0x690
    98d4:	73655f00 	cmnvc	r5, #0, 30
    98d8:	6b636174 	blvs	18e1eb0 <_Min_Stack_Size+0x18e1ab0>
    98dc:	61747300 	cmnvs	r4, r0, lsl #6
    98e0:	6c5f6b63 	mrrcvs	11, 6, r6, pc, cr3	; <UNPREDICTABLE>
    98e4:	74696d69 	strbtvc	r6, [r9], #-3433	; 0xfffff297
    98e8:	65727000 	ldrbvs	r7, [r2, #-0]!
    98ec:	65685f76 	strbvs	r5, [r8, #-3958]!	; 0xfffff08a
    98f0:	655f7061 	ldrbvs	r7, [pc, #-97]	; 9897 <_Min_Stack_Size+0x9497>
    98f4:	2e00646e 	cdpcs	4, 0, cr6, cr0, cr14, {3}
    98f8:	74532f2e 	ldrbvc	r2, [r3], #-3886	; 0xfffff0d2
    98fc:	75747261 	ldrbvc	r7, [r4, #-609]!	; 0xfffffd9f
    9900:	74732f70 	ldrbtvc	r2, [r3], #-3952	; 0xfffff090
    9904:	75747261 	ldrbvc	r7, [r4, #-609]!	; 0xfffffd9f
    9908:	74735f70 	ldrbtvc	r5, [r3], #-3952	; 0xfffff090
    990c:	6632336d 	ldrtvs	r3, [r2], -sp, ror #6
    9910:	76373034 			; <UNDEFINED> instruction: 0x76373034
    9914:	2e787467 	cdpcs	4, 7, cr7, cr8, cr7, {3}
    9918:	4e470073 	mcrmi	0, 2, r0, cr7, cr3, {3}
    991c:	53412055 	movtpl	r2, #4181	; 0x1055
    9920:	342e3220 	strtcc	r3, [lr], #-544	; 0xfffffde0
    9924:	00302e32 	eorseq	r2, r0, r2, lsr lr
    9928:	65736552 	ldrbvs	r6, [r3, #-1362]!	; 0xfffffaae
    992c:	61485f74 	hvcvs	34292	; 0x85f4
    9930:	656c646e 	strbvs	r6, [ip, #-1134]!	; 0xfffffb92
    9934:	Address 0x0000000000009934 is out of bounds.


Disassembly of section .comment:

00000000 <.comment>:
   0:	3a434347 	bcc	10d0d24 <_Min_Stack_Size+0x10d0924>
   4:	4e472820 	cdpmi	8, 4, cr2, cr7, cr0, {1}
   8:	6f542055 	svcvs	0x00542055
   c:	20736c6f 	rsbscs	r6, r3, pc, ror #24
  10:	20726f66 	rsbscs	r6, r2, r6, ror #30
  14:	334d5453 	movtcc	r5, #54355	; 0xd453
  18:	33312032 	teqcc	r1, #50	; 0x32
  1c:	722e332e 	eorvc	r3, lr, #-1207959552	; 0xb8000000
  20:	2e316c65 	cdpcs	12, 3, cr6, cr1, cr5, {3}
  24:	34323032 	ldrtcc	r3, [r2], #-50	; 0xffffffce
  28:	36323930 			; <UNDEFINED> instruction: 0x36323930
  2c:	3137312d 	teqcc	r7, sp, lsr #2
  30:	31202935 			; <UNDEFINED> instruction: 0x31202935
  34:	2e332e33 	mrccs	14, 1, r2, cr3, cr3, {1}
  38:	30322031 	eorscc	r2, r2, r1, lsr r0
  3c:	36303432 			; <UNDEFINED> instruction: 0x36303432
  40:	Address 0x0000000000000040 is out of bounds.


Disassembly of section .debug_frame:

00000000 <.debug_frame>:
   0:	0000000c 	andeq	r0, r0, ip
   4:	ffffffff 			; <UNDEFINED> instruction: 0xffffffff
   8:	7c020001 	stcvc	0, cr0, [r2], {1}
   c:	000d0c0e 	andeq	r0, sp, lr, lsl #24
  10:	00000018 	andeq	r0, r0, r8, lsl r0
  14:	00000000 	andeq	r0, r0, r0
  18:	08000270 	stmdaeq	r0, {r4, r5, r6, r9}
  1c:	00000034 	andeq	r0, r0, r4, lsr r0
  20:	87080e41 	strhi	r0, [r8, -r1, asr #28]
  24:	41018e02 	tstmi	r1, r2, lsl #28
  28:	0000070d 	andeq	r0, r0, sp, lsl #14
  2c:	0000000c 	andeq	r0, r0, ip
  30:	ffffffff 			; <UNDEFINED> instruction: 0xffffffff
  34:	7c020001 	stcvc	0, cr0, [r2], {1}
  38:	000d0c0e 	andeq	r0, sp, lr, lsl #24
  3c:	00000024 	andeq	r0, r0, r4, lsr #32
  40:	0000002c 	andeq	r0, r0, ip, lsr #32
  44:	080002a4 	stmdaeq	r0, {r2, r5, r7, r9}
  48:	00000050 	andeq	r0, r0, r0, asr r0
  4c:	87040e41 	strhi	r0, [r4, -r1, asr #28]
  50:	100e4101 	andne	r4, lr, r1, lsl #2
  54:	5c070d41 	stcpl	13, cr0, [r7], {65}	; 0x41
  58:	0d41040e 	cfstrdeq	mvd0, [r1, #-56]	; 0xffffffc8
  5c:	0ec7420d 	cdpeq	2, 12, cr4, cr7, cr13, {0}
  60:	00000000 	andeq	r0, r0, r0
  64:	0000001c 	andeq	r0, r0, ip, lsl r0
  68:	0000002c 	andeq	r0, r0, ip, lsr #32
  6c:	00000000 	andeq	r0, r0, r0
  70:	0000000e 	andeq	r0, r0, lr
  74:	87040e41 	strhi	r0, [r4, -r1, asr #28]
  78:	070d4101 	streq	r4, [sp, -r1, lsl #2]
  7c:	420d0d42 	andmi	r0, sp, #4224	; 0x1080
  80:	00000ec7 	andeq	r0, r0, r7, asr #29
  84:	0000001c 	andeq	r0, r0, ip, lsl r0
  88:	0000002c 	andeq	r0, r0, ip, lsr #32
  8c:	00000000 	andeq	r0, r0, r0
  90:	00000010 	andeq	r0, r0, r0, lsl r0
  94:	87040e41 	strhi	r0, [r4, -r1, asr #28]
  98:	070d4101 	streq	r4, [sp, -r1, lsl #2]
  9c:	420d0d43 	andmi	r0, sp, #4288	; 0x10c0
  a0:	00000ec7 	andeq	r0, r0, r7, asr #29
  a4:	00000020 	andeq	r0, r0, r0, lsr #32
  a8:	0000002c 	andeq	r0, r0, ip, lsr #32
  ac:	00000000 	andeq	r0, r0, r0
  b0:	00000020 	andeq	r0, r0, r0, lsr #32
  b4:	87080e41 	strhi	r0, [r8, -r1, asr #28]
  b8:	41018e02 	tstmi	r1, r2, lsl #28
  bc:	0d41100e 	stcleq	0, cr1, [r1, #-56]	; 0xffffffc8
  c0:	080e4b07 	stmdaeq	lr, {r0, r1, r2, r8, r9, fp, lr}
  c4:	000d0d41 	andeq	r0, sp, r1, asr #26
  c8:	0000001c 	andeq	r0, r0, ip, lsl r0
  cc:	0000002c 	andeq	r0, r0, ip, lsr #32
  d0:	00000000 	andeq	r0, r0, r0
  d4:	00000016 	andeq	r0, r0, r6, lsl r0
  d8:	87080e41 	strhi	r0, [r8, -r1, asr #28]
  dc:	41018e02 	tstmi	r1, r2, lsl #28
  e0:	0d41100e 	stcleq	0, cr1, [r1, #-56]	; 0xffffffc8
  e4:	00000007 	andeq	r0, r0, r7
  e8:	00000020 	andeq	r0, r0, r0, lsr #32
  ec:	0000002c 	andeq	r0, r0, ip, lsr #32
  f0:	080002f4 	stmdaeq	r0, {r2, r4, r5, r6, r7, r9}
  f4:	0000003a 	andeq	r0, r0, sl, lsr r0
  f8:	87080e41 	strhi	r0, [r8, -r1, asr #28]
  fc:	41018e02 	tstmi	r1, r2, lsl #28
 100:	0d41200e 	stcleq	0, cr2, [r1, #-56]	; 0xffffffc8
 104:	080e5807 	stmdaeq	lr, {r0, r1, r2, fp, ip, lr}
 108:	000d0d41 	andeq	r0, sp, r1, asr #26
 10c:	00000020 	andeq	r0, r0, r0, lsr #32
 110:	0000002c 	andeq	r0, r0, ip, lsr #32
 114:	0800032e 	stmdaeq	r0, {r1, r2, r3, r5, r8, r9}
 118:	00000038 	andeq	r0, r0, r8, lsr r0
 11c:	87080e41 	strhi	r0, [r8, -r1, asr #28]
 120:	41018e02 	tstmi	r1, r2, lsl #28
 124:	0d41200e 	stcleq	0, cr2, [r1, #-56]	; 0xffffffc8
 128:	080e5707 	stmdaeq	lr, {r0, r1, r2, r8, r9, sl, ip, lr}
 12c:	000d0d41 	andeq	r0, sp, r1, asr #26
 130:	00000024 	andeq	r0, r0, r4, lsr #32
 134:	0000002c 	andeq	r0, r0, ip, lsr #32
 138:	08000366 	stmdaeq	r0, {r1, r2, r5, r6, r8, r9}
 13c:	00000018 	andeq	r0, r0, r8, lsl r0
 140:	87040e41 	strhi	r0, [r4, -r1, asr #28]
 144:	100e4101 	andne	r4, lr, r1, lsl #2
 148:	45070d41 	strmi	r0, [r7, #-3393]	; 0xfffff2bf
 14c:	0d41040e 	cfstrdeq	mvd0, [r1, #-56]	; 0xffffffc8
 150:	0ec7420d 	cdpeq	2, 12, cr4, cr7, cr13, {0}
 154:	00000000 	andeq	r0, r0, r0
 158:	00000024 	andeq	r0, r0, r4, lsr #32
 15c:	0000002c 	andeq	r0, r0, ip, lsr #32
 160:	0800037e 	stmdaeq	r0, {r1, r2, r3, r4, r5, r6, r8, r9}
 164:	00000020 	andeq	r0, r0, r0, lsr #32
 168:	87040e41 	strhi	r0, [r4, -r1, asr #28]
 16c:	100e4101 	andne	r4, lr, r1, lsl #2
 170:	49070d41 	stmdbmi	r7, {r0, r6, r8, sl, fp}
 174:	0d41040e 	cfstrdeq	mvd0, [r1, #-56]	; 0xffffffc8
 178:	0ec7420d 	cdpeq	2, 12, cr4, cr7, cr13, {0}
 17c:	00000000 	andeq	r0, r0, r0
 180:	00000024 	andeq	r0, r0, r4, lsr #32
 184:	0000002c 	andeq	r0, r0, ip, lsr #32
 188:	0800039e 	stmdaeq	r0, {r1, r2, r3, r4, r7, r8, r9}
 18c:	00000016 	andeq	r0, r0, r6, lsl r0
 190:	87040e41 	strhi	r0, [r4, -r1, asr #28]
 194:	100e4101 	andne	r4, lr, r1, lsl #2
 198:	44070d41 	strmi	r0, [r7], #-3393	; 0xfffff2bf
 19c:	0d41040e 	cfstrdeq	mvd0, [r1, #-56]	; 0xffffffc8
 1a0:	0ec7420d 	cdpeq	2, 12, cr4, cr7, cr13, {0}
 1a4:	00000000 	andeq	r0, r0, r0
 1a8:	00000024 	andeq	r0, r0, r4, lsr #32
 1ac:	0000002c 	andeq	r0, r0, ip, lsr #32
 1b0:	080003b4 	stmdaeq	r0, {r2, r4, r5, r7, r8, r9}
 1b4:	0000001a 	andeq	r0, r0, sl, lsl r0
 1b8:	87040e41 	strhi	r0, [r4, -r1, asr #28]
 1bc:	180e4101 	stmdane	lr, {r0, r8, lr}
 1c0:	46070d41 	strmi	r0, [r7], -r1, asr #26
 1c4:	0d41040e 	cfstrdeq	mvd0, [r1, #-56]	; 0xffffffc8
 1c8:	0ec7420d 	cdpeq	2, 12, cr4, cr7, cr13, {0}
 1cc:	00000000 	andeq	r0, r0, r0
 1d0:	00000030 	andeq	r0, r0, r0, lsr r0
 1d4:	0000002c 	andeq	r0, r0, ip, lsr #32
 1d8:	00000000 	andeq	r0, r0, r0
 1dc:	0000001c 	andeq	r0, r0, ip, lsl r0
 1e0:	810c0e41 	tsthi	ip, r1, asr #28
 1e4:	83028203 	movwhi	r8, #8707	; 0x2203
 1e8:	100e4101 	andne	r4, lr, r1, lsl #2
 1ec:	0e410487 	cdpeq	4, 4, cr0, cr1, cr7, {4}
 1f0:	070d4118 	smladeq	sp, r8, r1, r4
 1f4:	41100e45 	tstmi	r0, r5, asr #28
 1f8:	c7420d0d 	strbgt	r0, [r2, -sp, lsl #26]
 1fc:	c3410c0e 	movtgt	r0, #7182	; 0x1c0e
 200:	000ec1c2 	andeq	ip, lr, r2, asr #3
 204:	00000020 	andeq	r0, r0, r0, lsr #32
 208:	0000002c 	andeq	r0, r0, ip, lsr #32
 20c:	00000000 	andeq	r0, r0, r0
 210:	0000001e 	andeq	r0, r0, lr, lsl r0
 214:	87080e41 	strhi	r0, [r8, -r1, asr #28]
 218:	41018e02 	tstmi	r1, r2, lsl #28
 21c:	0d41100e 	stcleq	0, cr1, [r1, #-56]	; 0xffffffc8
 220:	080e4a07 	stmdaeq	lr, {r0, r1, r2, r9, fp, lr}
 224:	000d0d41 	andeq	r0, sp, r1, asr #26
 228:	00000020 	andeq	r0, r0, r0, lsr #32
 22c:	0000002c 	andeq	r0, r0, ip, lsr #32
 230:	00000000 	andeq	r0, r0, r0
 234:	0000001e 	andeq	r0, r0, lr, lsl r0
 238:	87080e41 	strhi	r0, [r8, -r1, asr #28]
 23c:	41018e02 	tstmi	r1, r2, lsl #28
 240:	0d41100e 	stcleq	0, cr1, [r1, #-56]	; 0xffffffc8
 244:	080e4a07 	stmdaeq	lr, {r0, r1, r2, r9, fp, lr}
 248:	000d0d41 	andeq	r0, sp, r1, asr #26
 24c:	00000024 	andeq	r0, r0, r4, lsr #32
 250:	0000002c 	andeq	r0, r0, ip, lsr #32
 254:	00000000 	andeq	r0, r0, r0
 258:	00000018 	andeq	r0, r0, r8, lsl r0
 25c:	87040e41 	strhi	r0, [r4, -r1, asr #28]
 260:	100e4101 	andne	r4, lr, r1, lsl #2
 264:	45070d41 	strmi	r0, [r7, #-3393]	; 0xfffff2bf
 268:	0d41040e 	cfstrdeq	mvd0, [r1, #-56]	; 0xffffffc8
 26c:	0ec7420d 	cdpeq	2, 12, cr4, cr7, cr13, {0}
 270:	00000000 	andeq	r0, r0, r0
 274:	00000024 	andeq	r0, r0, r4, lsr #32
 278:	0000002c 	andeq	r0, r0, ip, lsr #32
 27c:	00000000 	andeq	r0, r0, r0
 280:	00000020 	andeq	r0, r0, r0, lsr #32
 284:	87040e41 	strhi	r0, [r4, -r1, asr #28]
 288:	100e4101 	andne	r4, lr, r1, lsl #2
 28c:	49070d41 	stmdbmi	r7, {r0, r6, r8, sl, fp}
 290:	0d41040e 	cfstrdeq	mvd0, [r1, #-56]	; 0xffffffc8
 294:	0ec7420d 	cdpeq	2, 12, cr4, cr7, cr13, {0}
 298:	00000000 	andeq	r0, r0, r0
 29c:	00000020 	andeq	r0, r0, r0, lsr #32
 2a0:	0000002c 	andeq	r0, r0, ip, lsr #32
 2a4:	00000000 	andeq	r0, r0, r0
 2a8:	00000020 	andeq	r0, r0, r0, lsr #32
 2ac:	87080e41 	strhi	r0, [r8, -r1, asr #28]
 2b0:	41018e02 	tstmi	r1, r2, lsl #28
 2b4:	0d41100e 	stcleq	0, cr1, [r1, #-56]	; 0xffffffc8
 2b8:	080e4b07 	stmdaeq	lr, {r0, r1, r2, r8, r9, fp, lr}
 2bc:	000d0d41 	andeq	r0, sp, r1, asr #26
 2c0:	00000018 	andeq	r0, r0, r8, lsl r0
 2c4:	0000002c 	andeq	r0, r0, ip, lsr #32
 2c8:	00000000 	andeq	r0, r0, r0
 2cc:	00000016 	andeq	r0, r0, r6, lsl r0
 2d0:	87080e41 	strhi	r0, [r8, -r1, asr #28]
 2d4:	41018e02 	tstmi	r1, r2, lsl #28
 2d8:	0000070d 	andeq	r0, r0, sp, lsl #14
 2dc:	00000020 	andeq	r0, r0, r0, lsr #32
 2e0:	0000002c 	andeq	r0, r0, ip, lsr #32
 2e4:	00000000 	andeq	r0, r0, r0
 2e8:	00000022 	andeq	r0, r0, r2, lsr #32
 2ec:	87080e41 	strhi	r0, [r8, -r1, asr #28]
 2f0:	41018e02 	tstmi	r1, r2, lsl #28
 2f4:	0d41180e 	stcleq	8, cr1, [r1, #-56]	; 0xffffffc8
 2f8:	080e4c07 	stmdaeq	lr, {r0, r1, r2, sl, fp, lr}
 2fc:	000d0d41 	andeq	r0, sp, r1, asr #26
 300:	0000000c 	andeq	r0, r0, ip
 304:	ffffffff 			; <UNDEFINED> instruction: 0xffffffff
 308:	7c020001 	stcvc	0, cr0, [r2], {1}
 30c:	000d0c0e 	andeq	r0, sp, lr, lsl #24
 310:	00000020 	andeq	r0, r0, r0, lsr #32
 314:	00000300 	andeq	r0, r0, r0, lsl #6
 318:	080003d0 	stmdaeq	r0, {r4, r6, r7, r8, r9}
 31c:	0000006c 	andeq	r0, r0, ip, rrx
 320:	87080e41 	strhi	r0, [r8, -r1, asr #28]
 324:	41018e02 	tstmi	r1, r2, lsl #28
 328:	0d41200e 	stcleq	0, cr2, [r1, #-56]	; 0xffffffc8
 32c:	080e6907 	stmdaeq	lr, {r0, r1, r2, r8, fp, sp, lr}
 330:	000d0d41 	andeq	r0, sp, r1, asr #26
 334:	0000000c 	andeq	r0, r0, ip
 338:	ffffffff 			; <UNDEFINED> instruction: 0xffffffff
 33c:	7c020001 	stcvc	0, cr0, [r2], {1}
 340:	000d0c0e 	andeq	r0, sp, lr, lsl #24
 344:	0000001c 	andeq	r0, r0, ip, lsl r0
 348:	00000334 	andeq	r0, r0, r4, lsr r3
 34c:	08000490 	stmdaeq	r0, {r4, r7, sl}
 350:	0000006c 	andeq	r0, r0, ip, rrx
 354:	84080e42 	strhi	r0, [r8], #-3650	; 0xfffff1be
 358:	66018e02 	strvs	r8, [r1], -r2, lsl #28
 35c:	0ec4ce0a 	cdpeq	14, 12, cr12, cr4, cr10, {0}
 360:	000b4200 	andeq	r4, fp, r0, lsl #4
 364:	0000000c 	andeq	r0, r0, ip
 368:	00000334 	andeq	r0, r0, r4, lsr r3
 36c:	080004fc 	stmdaeq	r0, {r2, r3, r4, r5, r6, r7, sl}
 370:	00000018 	andeq	r0, r0, r8, lsl r0
 374:	0000001c 	andeq	r0, r0, ip, lsl r0
 378:	00000334 	andeq	r0, r0, r4, lsr r3
 37c:	08000514 	stmdaeq	r0, {r2, r4, r8, sl}
 380:	00000040 	andeq	r0, r0, r0, asr #32
 384:	84080e44 	strhi	r0, [r8], #-3652	; 0xfffff1bc
 388:	52018e02 	andpl	r8, r1, #2, 28
 38c:	0ec4ce0a 	cdpeq	14, 12, cr12, cr4, cr10, {0}
 390:	000b4200 	andeq	r4, fp, r0, lsl #4
 394:	00000014 	andeq	r0, r0, r4, lsl r0
 398:	00000334 	andeq	r0, r0, r4, lsr r3
 39c:	00000000 	andeq	r0, r0, r0
 3a0:	00000018 	andeq	r0, r0, r8, lsl r0
 3a4:	83080e41 	movwhi	r0, #36417	; 0x8e41
 3a8:	00018e02 	andeq	r8, r1, r2, lsl #28
 3ac:	00000014 	andeq	r0, r0, r4, lsl r0
 3b0:	00000334 	andeq	r0, r0, r4, lsr r3
 3b4:	00000000 	andeq	r0, r0, r0
 3b8:	00000018 	andeq	r0, r0, r8, lsl r0
 3bc:	83080e41 	movwhi	r0, #36417	; 0x8e41
 3c0:	00018e02 	andeq	r8, r1, r2, lsl #28
 3c4:	00000018 	andeq	r0, r0, r8, lsl r0
 3c8:	00000334 	andeq	r0, r0, r4, lsr r3
 3cc:	08000554 	stmdaeq	r0, {r2, r4, r6, r8, sl}
 3d0:	0000003c 	andeq	r0, r0, ip, lsr r0
 3d4:	84080e41 	strhi	r0, [r8], #-3649	; 0xfffff1bf
 3d8:	54018e02 	strpl	r8, [r1], #-3586	; 0xfffff1fe
 3dc:	000ec4ce 	andeq	ip, lr, lr, asr #9
 3e0:	0000000c 	andeq	r0, r0, ip
 3e4:	00000334 	andeq	r0, r0, r4, lsr r3
 3e8:	08000590 	stmdaeq	r0, {r4, r7, r8, sl}
 3ec:	0000000c 	andeq	r0, r0, ip
 3f0:	0000000c 	andeq	r0, r0, ip
 3f4:	00000334 	andeq	r0, r0, r4, lsr r3
 3f8:	0800059c 	stmdaeq	r0, {r2, r3, r4, r7, r8, sl}
 3fc:	0000000c 	andeq	r0, r0, ip
 400:	0000001c 	andeq	r0, r0, ip, lsl r0
 404:	00000334 	andeq	r0, r0, r4, lsr r3
 408:	00000000 	andeq	r0, r0, r0
 40c:	000000a4 	andeq	r0, r0, r4, lsr #1
 410:	83180e41 	tsthi	r8, #1040	; 0x410
 414:	85058406 	strhi	r8, [r5, #-1030]	; 0xfffffbfa
 418:	87038604 	strhi	r8, [r3, -r4, lsl #12]
 41c:	00018e02 	andeq	r8, r1, r2, lsl #28
 420:	0000001c 	andeq	r0, r0, ip, lsl r0
 424:	00000334 	andeq	r0, r0, r4, lsr r3
 428:	080005a8 	stmdaeq	r0, {r3, r5, r7, r8, sl}
 42c:	00000030 	andeq	r0, r0, r0, lsr r0
 430:	84080e41 	strhi	r0, [r8], #-3649	; 0xfffff1bf
 434:	47018e02 	strmi	r8, [r1, -r2, lsl #28]
 438:	0ec4ce0a 	cdpeq	14, 12, cr12, cr4, cr10, {0}
 43c:	000b4200 	andeq	r4, fp, r0, lsl #4
 440:	00000018 	andeq	r0, r0, r8, lsl r0
 444:	00000334 	andeq	r0, r0, r4, lsr r3
 448:	00000000 	andeq	r0, r0, r0
 44c:	0000001c 	andeq	r0, r0, ip, lsl r0
 450:	83080e41 	movwhi	r0, #36417	; 0x8e41
 454:	44018e02 	strmi	r8, [r1], #-3586	; 0xfffff1fe
 458:	000ec3ce 	andeq	ip, lr, lr, asr #7
 45c:	00000018 	andeq	r0, r0, r8, lsl r0
 460:	00000334 	andeq	r0, r0, r4, lsr r3
 464:	00000000 	andeq	r0, r0, r0
 468:	0000001c 	andeq	r0, r0, ip, lsl r0
 46c:	83080e41 	movwhi	r0, #36417	; 0x8e41
 470:	47018e02 	strmi	r8, [r1, -r2, lsl #28]
 474:	000ec3ce 	andeq	ip, lr, lr, asr #7
 478:	0000000c 	andeq	r0, r0, ip
 47c:	ffffffff 			; <UNDEFINED> instruction: 0xffffffff
 480:	7c020001 	stcvc	0, cr0, [r2], {1}
 484:	000d0c0e 	andeq	r0, sp, lr, lsl #24
 488:	00000020 	andeq	r0, r0, r0, lsr #32
 48c:	00000478 	andeq	r0, r0, r8, ror r4
 490:	080005d8 	stmdaeq	r0, {r3, r4, r6, r7, r8, sl}
 494:	0000003c 	andeq	r0, r0, ip, lsr r0
 498:	83200e42 			; <UNDEFINED> instruction: 0x83200e42
 49c:	85078408 	strhi	r8, [r7, #-1032]	; 0xfffffbf8
 4a0:	87058606 	strhi	r8, [r5, -r6, lsl #12]
 4a4:	89038804 	stmdbhi	r3, {r2, fp, pc}
 4a8:	00018e02 	andeq	r8, r1, r2, lsl #28
 4ac:	0000000c 	andeq	r0, r0, ip
 4b0:	ffffffff 			; <UNDEFINED> instruction: 0xffffffff
 4b4:	7c020001 	stcvc	0, cr0, [r2], {1}
 4b8:	000d0c0e 	andeq	r0, sp, lr, lsl #24
 4bc:	00000028 	andeq	r0, r0, r8, lsr #32
 4c0:	000004ac 	andeq	r0, r0, ip, lsr #9
 4c4:	00000000 	andeq	r0, r0, r0
 4c8:	0000001c 	andeq	r0, r0, ip, lsl r0
 4cc:	810c0e41 	tsthi	ip, r1, asr #28
 4d0:	83028203 	movwhi	r8, #8707	; 0x2203
 4d4:	180e4101 	stmdane	lr, {r0, r8, lr}
 4d8:	0e48048e 	cdpeq	4, 4, cr0, cr8, cr14, {4}
 4dc:	0ece4210 	mcreq	2, 6, r4, cr14, cr0, {0}
 4e0:	c2c3410c 	sbcgt	r4, r3, #12, 2
 4e4:	00000ec1 	andeq	r0, r0, r1, asr #29
 4e8:	0000002c 	andeq	r0, r0, ip, lsr #32
 4ec:	000004ac 	andeq	r0, r0, ip, lsr #9
 4f0:	08000614 	stmdaeq	r0, {r2, r4, r9, sl}
 4f4:	00000024 	andeq	r0, r0, r4, lsr #32
 4f8:	80100e41 	andshi	r0, r0, r1, asr #28
 4fc:	82038104 	andhi	r8, r3, #4, 2
 500:	41018302 	tstmi	r1, r2, lsl #6
 504:	058e200e 	streq	r2, [lr, #14]
 508:	42140e4a 	andsmi	r0, r4, #1184	; 0x4a0
 50c:	41100ece 	tstmi	r0, lr, asr #29
 510:	c0c1c2c3 	sbcgt	ip, r1, r3, asr #5
 514:	0000000e 	andeq	r0, r0, lr
 518:	0000000c 	andeq	r0, r0, ip
 51c:	ffffffff 			; <UNDEFINED> instruction: 0xffffffff
 520:	7c020001 	stcvc	0, cr0, [r2], {1}
 524:	000d0c0e 	andeq	r0, sp, lr, lsl #24
 528:	00000014 	andeq	r0, r0, r4, lsl r0
 52c:	00000518 	andeq	r0, r0, r8, lsl r5
 530:	08000638 	stmdaeq	r0, {r3, r4, r5, r9, sl}
 534:	00000022 	andeq	r0, r0, r2, lsr #32
 538:	84080e41 	strhi	r0, [r8], #-3649	; 0xfffff1bf
 53c:	00018e02 	andeq	r8, r1, r2, lsl #28
 540:	0000000c 	andeq	r0, r0, ip
 544:	00000518 	andeq	r0, r0, r8, lsl r5
 548:	00000000 	andeq	r0, r0, r0
 54c:	00000004 	andeq	r0, r0, r4
 550:	00000024 	andeq	r0, r0, r4, lsr #32
 554:	00000518 	andeq	r0, r0, r8, lsl r5
 558:	0800065a 	stmdaeq	r0, {r1, r3, r4, r6, r9, sl}
 55c:	00000038 	andeq	r0, r0, r8, lsr r0
 560:	84180e42 	ldrhi	r0, [r8], #-3650	; 0xfffff1be
 564:	86058506 	strhi	r8, [r5], -r6, lsl #10
 568:	88038704 	stmdahi	r3, {r2, r8, r9, sl, pc}
 56c:	58018e02 	stmdapl	r1, {r1, r9, sl, fp, pc}
 570:	c6c7c8ce 	strbgt	ip, [r7], lr, asr #17
 574:	000ec4c5 	andeq	ip, lr, r5, asr #9
 578:	00000014 	andeq	r0, r0, r4, lsl r0
 57c:	00000518 	andeq	r0, r0, r8, lsl r5
 580:	08000692 	stmdaeq	r0, {r1, r4, r7, r9, sl}
 584:	00000024 	andeq	r0, r0, r4, lsr #32
 588:	84080e41 	strhi	r0, [r8], #-3649	; 0xfffff1bf
 58c:	00018e02 	andeq	r8, r1, r2, lsl #28
 590:	0000000c 	andeq	r0, r0, ip
 594:	00000518 	andeq	r0, r0, r8, lsl r5
 598:	080006b6 	stmdaeq	r0, {r1, r2, r4, r5, r7, r9, sl}
 59c:	00000008 	andeq	r0, r0, r8
 5a0:	0000000c 	andeq	r0, r0, ip
 5a4:	ffffffff 			; <UNDEFINED> instruction: 0xffffffff
 5a8:	7c020001 	stcvc	0, cr0, [r2], {1}
 5ac:	000d0c0e 	andeq	r0, sp, lr, lsl #24
 5b0:	0000000c 	andeq	r0, r0, ip
 5b4:	000005a0 	andeq	r0, r0, r0, lsr #11
 5b8:	080006be 	stmdaeq	r0, {r1, r2, r3, r4, r5, r7, r9, sl}
 5bc:	00000010 	andeq	r0, r0, r0, lsl r0
 5c0:	0000000c 	andeq	r0, r0, ip
 5c4:	ffffffff 			; <UNDEFINED> instruction: 0xffffffff
 5c8:	7c020001 	stcvc	0, cr0, [r2], {1}
 5cc:	000d0c0e 	andeq	r0, sp, lr, lsl #24
 5d0:	00000018 	andeq	r0, r0, r8, lsl r0
 5d4:	000005c0 	andeq	r0, r0, r0, asr #11
 5d8:	080006d0 	stmdaeq	r0, {r4, r6, r7, r9, sl}
 5dc:	00000020 	andeq	r0, r0, r0, lsr #32
 5e0:	83100e41 	tsthi	r0, #1040	; 0x410
 5e4:	85038404 	strhi	r8, [r3, #-1028]	; 0xfffffbfc
 5e8:	00018e02 	andeq	r8, r1, r2, lsl #28
 5ec:	0000000c 	andeq	r0, r0, ip
 5f0:	ffffffff 			; <UNDEFINED> instruction: 0xffffffff
 5f4:	7c020001 	stcvc	0, cr0, [r2], {1}
 5f8:	000d0c0e 	andeq	r0, sp, lr, lsl #24
 5fc:	00000024 	andeq	r0, r0, r4, lsr #32
 600:	000005ec 	andeq	r0, r0, ip, ror #11
 604:	00000000 	andeq	r0, r0, r0
 608:	000000bc 	strheq	r0, [r0], -ip
 60c:	84100e44 	ldrhi	r0, [r0], #-3652	; 0xfffff1bc
 610:	86038504 	strhi	r8, [r3], -r4, lsl #10
 614:	02018e02 	andeq	r8, r1, #2, 28
 618:	c6ce0a55 			; <UNDEFINED> instruction: 0xc6ce0a55
 61c:	000ec4c5 	andeq	ip, lr, r5, asr #9
 620:	00000b41 	andeq	r0, r0, r1, asr #22
 624:	0000000c 	andeq	r0, r0, ip
 628:	ffffffff 			; <UNDEFINED> instruction: 0xffffffff
 62c:	7c020001 	stcvc	0, cr0, [r2], {1}
 630:	000d0c0e 	andeq	r0, sp, lr, lsl #24
 634:	00000018 	andeq	r0, r0, r8, lsl r0
 638:	00000624 	andeq	r0, r0, r4, lsr #12
 63c:	080006f0 	stmdaeq	r0, {r4, r5, r6, r7, r9, sl}
 640:	00000024 	andeq	r0, r0, r4, lsr #32
 644:	83100e41 	tsthi	r0, #1040	; 0x410
 648:	85038404 	strhi	r8, [r3, #-1028]	; 0xfffffbfc
 64c:	00018e02 	andeq	r8, r1, r2, lsl #28
 650:	0000000c 	andeq	r0, r0, ip
 654:	ffffffff 			; <UNDEFINED> instruction: 0xffffffff
 658:	7c020001 	stcvc	0, cr0, [r2], {1}
 65c:	000d0c0e 	andeq	r0, sp, lr, lsl #24
 660:	00000018 	andeq	r0, r0, r8, lsl r0
 664:	00000650 	andeq	r0, r0, r0, asr r6
 668:	08000714 	stmdaeq	r0, {r2, r4, r8, r9, sl}
 66c:	00000024 	andeq	r0, r0, r4, lsr #32
 670:	83100e41 	tsthi	r0, #1040	; 0x410
 674:	85038404 	strhi	r8, [r3, #-1028]	; 0xfffffbfc
 678:	00018e02 	andeq	r8, r1, r2, lsl #28
 67c:	0000000c 	andeq	r0, r0, ip
 680:	ffffffff 			; <UNDEFINED> instruction: 0xffffffff
 684:	7c020001 	stcvc	0, cr0, [r2], {1}
 688:	000d0c0e 	andeq	r0, sp, lr, lsl #24
 68c:	00000018 	andeq	r0, r0, r8, lsl r0
 690:	0000067c 	andeq	r0, r0, ip, ror r6
 694:	08000738 	stmdaeq	r0, {r3, r4, r5, r8, r9, sl}
 698:	00000024 	andeq	r0, r0, r4, lsr #32
 69c:	83100e41 	tsthi	r0, #1040	; 0x410
 6a0:	85038404 	strhi	r8, [r3, #-1028]	; 0xfffffbfc
 6a4:	00018e02 	andeq	r8, r1, r2, lsl #28
 6a8:	0000000c 	andeq	r0, r0, ip
 6ac:	ffffffff 			; <UNDEFINED> instruction: 0xffffffff
 6b0:	7c020001 	stcvc	0, cr0, [r2], {1}
 6b4:	000d0c0e 	andeq	r0, sp, lr, lsl #24
 6b8:	0000000c 	andeq	r0, r0, ip
 6bc:	000006a8 	andeq	r0, r0, r8, lsr #13
 6c0:	0800075c 	stmdaeq	r0, {r2, r3, r4, r6, r8, r9, sl}
 6c4:	0000000c 	andeq	r0, r0, ip
 6c8:	0000000c 	andeq	r0, r0, ip
 6cc:	ffffffff 			; <UNDEFINED> instruction: 0xffffffff
 6d0:	7c020001 	stcvc	0, cr0, [r2], {1}
 6d4:	000d0c0e 	andeq	r0, sp, lr, lsl #24
 6d8:	00000018 	andeq	r0, r0, r8, lsl r0
 6dc:	000006c8 	andeq	r0, r0, r8, asr #13
 6e0:	08000768 	stmdaeq	r0, {r3, r5, r6, r8, r9, sl}
 6e4:	00000048 	andeq	r0, r0, r8, asr #32
 6e8:	84100e41 	ldrhi	r0, [r0], #-3649	; 0xfffff1bf
 6ec:	86038504 	strhi	r8, [r3], -r4, lsl #10
 6f0:	00018e02 	andeq	r8, r1, r2, lsl #28
 6f4:	0000000c 	andeq	r0, r0, ip
 6f8:	ffffffff 			; <UNDEFINED> instruction: 0xffffffff
 6fc:	7c020001 	stcvc	0, cr0, [r2], {1}
 700:	000d0c0e 	andeq	r0, sp, lr, lsl #24
 704:	0000000c 	andeq	r0, r0, ip
 708:	000006f4 	strdeq	r0, [r0], -r4
 70c:	00000000 	andeq	r0, r0, r0
 710:	00000002 	andeq	r0, r0, r2
 714:	0000000c 	andeq	r0, r0, ip
 718:	000006f4 	strdeq	r0, [r0], -r4
 71c:	080007b0 	stmdaeq	r0, {r4, r5, r7, r8, r9, sl}
 720:	00000002 	andeq	r0, r0, r2
 724:	0000000c 	andeq	r0, r0, ip
 728:	000006f4 	strdeq	r0, [r0], -r4
 72c:	00000000 	andeq	r0, r0, r0
 730:	00000002 	andeq	r0, r0, r2
 734:	0000000c 	andeq	r0, r0, ip
 738:	000006f4 	strdeq	r0, [r0], -r4
 73c:	00000000 	andeq	r0, r0, r0
 740:	00000002 	andeq	r0, r0, r2
 744:	0000000c 	andeq	r0, r0, ip
 748:	000006f4 	strdeq	r0, [r0], -r4
 74c:	00000000 	andeq	r0, r0, r0
 750:	00000002 	andeq	r0, r0, r2
 754:	0000000c 	andeq	r0, r0, ip
 758:	000006f4 	strdeq	r0, [r0], -r4
 75c:	080007b2 	stmdaeq	r0, {r1, r4, r5, r7, r8, r9, sl}
 760:	00000002 	andeq	r0, r0, r2
 764:	0000000c 	andeq	r0, r0, ip
 768:	000006f4 	strdeq	r0, [r0], -r4
 76c:	00000000 	andeq	r0, r0, r0
 770:	00000004 	andeq	r0, r0, r4
 774:	0000000c 	andeq	r0, r0, ip
 778:	000006f4 	strdeq	r0, [r0], -r4
 77c:	00000000 	andeq	r0, r0, r0
 780:	00000004 	andeq	r0, r0, r4
 784:	0000000c 	andeq	r0, r0, ip
 788:	000006f4 	strdeq	r0, [r0], -r4
 78c:	00000000 	andeq	r0, r0, r0
 790:	00000002 	andeq	r0, r0, r2
 794:	0000000c 	andeq	r0, r0, ip
 798:	000006f4 	strdeq	r0, [r0], -r4
 79c:	080007b4 	stmdaeq	r0, {r2, r4, r5, r7, r8, r9, sl}
 7a0:	00000002 	andeq	r0, r0, r2
 7a4:	0000000c 	andeq	r0, r0, ip
 7a8:	ffffffff 			; <UNDEFINED> instruction: 0xffffffff
 7ac:	7c020001 	stcvc	0, cr0, [r2], {1}
 7b0:	000d0c0e 	andeq	r0, sp, lr, lsl #24
 7b4:	00000024 	andeq	r0, r0, r4, lsr #32
 7b8:	000007a4 	andeq	r0, r0, r4, lsr #15
 7bc:	080007b8 	stmdaeq	r0, {r3, r4, r5, r7, r8, r9, sl}
 7c0:	00000094 	muleq	r0, r4, r0
 7c4:	83100e41 	tsthi	r0, #1040	; 0x410
 7c8:	85038404 	strhi	r8, [r3, #-1028]	; 0xfffffbfc
 7cc:	53018e02 	movwpl	r8, #7682	; 0x1e02
 7d0:	c4c5ce0a 	strbgt	ip, [r5], #3594	; 0xe0a
 7d4:	42000ec3 	andmi	r0, r0, #3120	; 0xc30
 7d8:	0000000b 	andeq	r0, r0, fp
 7dc:	0000000c 	andeq	r0, r0, ip
 7e0:	ffffffff 			; <UNDEFINED> instruction: 0xffffffff
 7e4:	7c020001 	stcvc	0, cr0, [r2], {1}
 7e8:	000d0c0e 	andeq	r0, sp, lr, lsl #24
 7ec:	00000018 	andeq	r0, r0, r8, lsl r0
 7f0:	000007dc 	ldrdeq	r0, [r0], -ip
 7f4:	0800084c 	stmdaeq	r0, {r2, r3, r6, fp}
 7f8:	00000044 	andeq	r0, r0, r4, asr #32
 7fc:	84100e41 	ldrhi	r0, [r0], #-3649	; 0xfffff1bf
 800:	86038504 	strhi	r8, [r3], -r4, lsl #10
 804:	00018e02 	andeq	r8, r1, r2, lsl #28
 808:	00000020 	andeq	r0, r0, r0, lsr #32
 80c:	000007dc 	ldrdeq	r0, [r0], -ip
 810:	08000890 	stmdaeq	r0, {r4, r7, fp}
 814:	00000100 	andeq	r0, r0, r0, lsl #2
 818:	83200e42 			; <UNDEFINED> instruction: 0x83200e42
 81c:	85078408 	strhi	r8, [r7, #-1032]	; 0xfffffbf8
 820:	87058606 	strhi	r8, [r5, -r6, lsl #12]
 824:	89038804 	stmdbhi	r3, {r2, fp, pc}
 828:	00018e02 	andeq	r8, r1, r2, lsl #28
 82c:	0000000c 	andeq	r0, r0, ip
 830:	ffffffff 			; <UNDEFINED> instruction: 0xffffffff
 834:	7c020001 	stcvc	0, cr0, [r2], {1}
 838:	000d0c0e 	andeq	r0, sp, lr, lsl #24
 83c:	0000000c 	andeq	r0, r0, ip
 840:	0000082c 	andeq	r0, r0, ip, lsr #16
 844:	08000990 	stmdaeq	r0, {r4, r7, r8, fp}
 848:	0000000c 	andeq	r0, r0, ip
 84c:	0000000c 	andeq	r0, r0, ip
 850:	0000082c 	andeq	r0, r0, ip, lsr #16
 854:	0800099c 	stmdaeq	r0, {r2, r3, r4, r7, r8, fp}
 858:	0000000c 	andeq	r0, r0, ip
 85c:	0000000c 	andeq	r0, r0, ip
 860:	ffffffff 			; <UNDEFINED> instruction: 0xffffffff
 864:	7c020001 	stcvc	0, cr0, [r2], {1}
 868:	000d0c0e 	andeq	r0, sp, lr, lsl #24
 86c:	0000001c 	andeq	r0, r0, ip, lsl r0
 870:	0000085c 	andeq	r0, r0, ip, asr r8
 874:	080009a8 	stmdaeq	r0, {r3, r5, r7, r8, fp}
 878:	0000002e 	andeq	r0, r0, lr, lsr #32
 87c:	84040e44 	strhi	r0, [r4], #-3652	; 0xfffff1bc
 880:	c40a4901 	strgt	r4, [sl], #-2305	; 0xfffff6ff
 884:	0b42000e 	bleq	10808c4 <_Min_Stack_Size+0x10804c4>
 888:	000ec447 	andeq	ip, lr, r7, asr #8
 88c:	0000001c 	andeq	r0, r0, ip, lsl r0
 890:	0000085c 	andeq	r0, r0, ip, asr r8
 894:	080009d6 	stmdaeq	r0, {r1, r2, r4, r6, r7, r8, fp}
 898:	00000024 	andeq	r0, r0, r4, lsr #32
 89c:	83180e41 	tsthi	r8, #1040	; 0x410
 8a0:	85058406 	strhi	r8, [r5, #-1030]	; 0xfffffbfa
 8a4:	87038604 	strhi	r8, [r3, -r4, lsl #12]
 8a8:	00018e02 	andeq	r8, r1, r2, lsl #28
 8ac:	00000014 	andeq	r0, r0, r4, lsl r0
 8b0:	0000085c 	andeq	r0, r0, ip, asr r8
 8b4:	00000000 	andeq	r0, r0, r0
 8b8:	0000001a 	andeq	r0, r0, sl, lsl r0
 8bc:	84080e42 	strhi	r0, [r8], #-3650	; 0xfffff1be
 8c0:	00018e02 	andeq	r8, r1, r2, lsl #28
 8c4:	0000002c 	andeq	r0, r0, ip, lsr #32
 8c8:	0000085c 	andeq	r0, r0, ip, asr r8
 8cc:	080009fc 	stmdaeq	r0, {r2, r3, r4, r5, r6, r7, r8, fp}
 8d0:	00000230 	andeq	r0, r0, r0, lsr r2
 8d4:	84240e42 	strthi	r0, [r4], #-3650	; 0xfffff1be
 8d8:	86088509 	strhi	r8, [r8], -r9, lsl #10
 8dc:	88068707 	stmdahi	r6, {r0, r1, r2, r8, r9, sl, pc}
 8e0:	8a048905 	bhi	122cfc <_Min_Stack_Size+0x1228fc>
 8e4:	8e028b03 	vmlahi.f64	d8, d2, d3
 8e8:	980e4201 	stmdals	lr, {r0, r9, lr}
 8ec:	0e0a6101 	adfeqe	f6, f2, f1
 8f0:	000b4224 	andeq	r4, fp, r4, lsr #4
 8f4:	0000000c 	andeq	r0, r0, ip
 8f8:	0000085c 	andeq	r0, r0, ip, asr r8
 8fc:	00000000 	andeq	r0, r0, r0
 900:	00000014 	andeq	r0, r0, r4, lsl r0
 904:	0000000c 	andeq	r0, r0, ip
 908:	ffffffff 			; <UNDEFINED> instruction: 0xffffffff
 90c:	7c020001 	stcvc	0, cr0, [r2], {1}
 910:	000d0c0e 	andeq	r0, sp, lr, lsl #24
 914:	00000020 	andeq	r0, r0, r0, lsr #32
 918:	00000904 	andeq	r0, r0, r4, lsl #18
 91c:	08000c2c 	stmdaeq	r0, {r2, r3, r5, sl, fp}
 920:	000000da 	ldrdeq	r0, [r0], -sl
 924:	84200e42 	strthi	r0, [r0], #-3650	; 0xfffff1be
 928:	86078508 	strhi	r8, [r7], -r8, lsl #10
 92c:	88058706 	stmdahi	r5, {r1, r2, r8, r9, sl, pc}
 930:	8a038904 	bhi	e2d48 <_Min_Stack_Size+0xe2948>
 934:	00018e02 	andeq	r8, r1, r2, lsl #28
 938:	00000028 	andeq	r0, r0, r8, lsr #32
 93c:	00000904 	andeq	r0, r0, r4, lsl #18
 940:	08000d08 	stmdaeq	r0, {r3, r8, sl, fp}
 944:	0000023c 	andeq	r0, r0, ip, lsr r2
 948:	84300e42 	ldrthi	r0, [r0], #-3650	; 0xfffff1be
 94c:	86078508 	strhi	r8, [r7], -r8, lsl #10
 950:	88058706 	stmdahi	r5, {r1, r2, r8, r9, sl, pc}
 954:	8a038904 	bhi	e2d6c <_Min_Stack_Size+0xe296c>
 958:	02018e02 	andeq	r8, r1, #2, 28
 95c:	200e0aae 	andcs	r0, lr, lr, lsr #21
 960:	00000b42 	andeq	r0, r0, r2, asr #22
 964:	0000000c 	andeq	r0, r0, ip
 968:	ffffffff 			; <UNDEFINED> instruction: 0xffffffff
 96c:	7c020001 	stcvc	0, cr0, [r2], {1}
 970:	000d0c0e 	andeq	r0, sp, lr, lsl #24
 974:	0000001c 	andeq	r0, r0, ip, lsl r0
 978:	00000964 	andeq	r0, r0, r4, ror #18
 97c:	08000f44 	stmdaeq	r0, {r2, r6, r8, r9, sl, fp}
 980:	00000108 	andeq	r0, r0, r8, lsl #2
 984:	84180e44 	ldrhi	r0, [r8], #-3652	; 0xfffff1bc
 988:	86058506 	strhi	r8, [r5], -r6, lsl #10
 98c:	88038704 	stmdahi	r3, {r2, r8, r9, sl, pc}
 990:	00018e02 	andeq	r8, r1, r2, lsl #28
 994:	00000018 	andeq	r0, r0, r8, lsl r0
 998:	00000964 	andeq	r0, r0, r4, ror #18
 99c:	0800104c 	stmdaeq	r0, {r2, r3, r6, ip}
 9a0:	00000050 	andeq	r0, r0, r0, asr r0
 9a4:	83100e41 	tsthi	r0, #1040	; 0x410
 9a8:	85038404 	strhi	r8, [r3, #-1028]	; 0xfffffbfc
 9ac:	00018e02 	andeq	r8, r1, r2, lsl #28
 9b0:	0000000c 	andeq	r0, r0, ip
 9b4:	00000964 	andeq	r0, r0, r4, ror #18
 9b8:	00000000 	andeq	r0, r0, r0
 9bc:	00000028 	andeq	r0, r0, r8, lsr #32
 9c0:	0000000c 	andeq	r0, r0, ip
 9c4:	ffffffff 			; <UNDEFINED> instruction: 0xffffffff
 9c8:	7c020001 	stcvc	0, cr0, [r2], {1}
 9cc:	000d0c0e 	andeq	r0, sp, lr, lsl #24
 9d0:	0000001c 	andeq	r0, r0, ip, lsl r0
 9d4:	000009c0 	andeq	r0, r0, r0, asr #19
 9d8:	0800109c 	stmdaeq	r0, {r2, r3, r4, r7, ip}
 9dc:	0000007c 	andeq	r0, r0, ip, ror r0
 9e0:	83180e41 	tsthi	r8, #1040	; 0x410
 9e4:	85058406 	strhi	r8, [r5, #-1030]	; 0xfffffbfa
 9e8:	87038604 	strhi	r8, [r3, -r4, lsl #12]
 9ec:	00018e02 	andeq	r8, r1, r2, lsl #28
 9f0:	0000000c 	andeq	r0, r0, ip
 9f4:	000009c0 	andeq	r0, r0, r0, asr #19
 9f8:	00000000 	andeq	r0, r0, r0
 9fc:	00000010 	andeq	r0, r0, r0, lsl r0
 a00:	0000000c 	andeq	r0, r0, ip
 a04:	ffffffff 			; <UNDEFINED> instruction: 0xffffffff
 a08:	7c020001 	stcvc	0, cr0, [r2], {1}
 a0c:	000d0c0e 	andeq	r0, sp, lr, lsl #24
 a10:	00000018 	andeq	r0, r0, r8, lsl r0
 a14:	00000a00 	andeq	r0, r0, r0, lsl #20
 a18:	08001118 	stmdaeq	r0, {r3, r4, r8, ip}
 a1c:	000000ac 	andeq	r0, r0, ip, lsr #1
 a20:	83100e41 	tsthi	r0, #1040	; 0x410
 a24:	85038404 	strhi	r8, [r3, #-1028]	; 0xfffffbfc
 a28:	00018e02 	andeq	r8, r1, r2, lsl #28
 a2c:	0000000c 	andeq	r0, r0, ip
 a30:	ffffffff 			; <UNDEFINED> instruction: 0xffffffff
 a34:	7c020001 	stcvc	0, cr0, [r2], {1}
 a38:	000d0c0e 	andeq	r0, sp, lr, lsl #24
 a3c:	00000018 	andeq	r0, r0, r8, lsl r0
 a40:	00000a2c 	andeq	r0, r0, ip, lsr #20
 a44:	080011c4 	stmdaeq	r0, {r2, r6, r7, r8, ip}
 a48:	00000020 	andeq	r0, r0, r0, lsr #32
 a4c:	83100e41 	tsthi	r0, #1040	; 0x410
 a50:	85038404 	strhi	r8, [r3, #-1028]	; 0xfffffbfc
 a54:	00018e02 	andeq	r8, r1, r2, lsl #28
 a58:	0000000c 	andeq	r0, r0, ip
 a5c:	ffffffff 			; <UNDEFINED> instruction: 0xffffffff
 a60:	7c020001 	stcvc	0, cr0, [r2], {1}
 a64:	000d0c0e 	andeq	r0, sp, lr, lsl #24
 a68:	00000020 	andeq	r0, r0, r0, lsr #32
 a6c:	00000a58 	andeq	r0, r0, r8, asr sl
 a70:	080011e4 	stmdaeq	r0, {r2, r5, r6, r7, r8, ip}
 a74:	0000004c 	andeq	r0, r0, ip, asr #32
 a78:	84100e41 	ldrhi	r0, [r0], #-3649	; 0xfffff1bf
 a7c:	86038504 	strhi	r8, [r3], -r4, lsl #10
 a80:	45018e02 	strmi	r8, [r1, #-3586]	; 0xfffff1fe
 a84:	0a50680e 	beq	141aac4 <_Min_Stack_Size+0x141a6c4>
 a88:	0b41100e 	bleq	1044ac8 <_Min_Stack_Size+0x10446c8>
 a8c:	00000020 	andeq	r0, r0, r0, lsr #32
 a90:	00000a58 	andeq	r0, r0, r8, asr sl
 a94:	08001230 	stmdaeq	r0, {r4, r5, r9, ip}
 a98:	00000078 	andeq	r0, r0, r8, ror r0
 a9c:	84200e42 	strthi	r0, [r0], #-3650	; 0xfffff1be
 aa0:	86048505 	strhi	r8, [r4], -r5, lsl #10
 aa4:	8e028703 	cdphi	7, 0, cr8, cr2, cr3, {0}
 aa8:	0e0a4b01 	vmlaeq.f64	d4, d10, d1
 aac:	000b4114 	andeq	r4, fp, r4, lsl r1
 ab0:	0000000c 	andeq	r0, r0, ip
 ab4:	ffffffff 			; <UNDEFINED> instruction: 0xffffffff
 ab8:	7c020001 	stcvc	0, cr0, [r2], {1}
 abc:	000d0c0e 	andeq	r0, sp, lr, lsl #24
 ac0:	00000018 	andeq	r0, r0, r8, lsl r0
 ac4:	00000ab0 			; <UNDEFINED> instruction: 0x00000ab0
 ac8:	080012a8 	stmdaeq	r0, {r3, r5, r7, r9, ip}
 acc:	00000024 	andeq	r0, r0, r4, lsr #32
 ad0:	83100e41 	tsthi	r0, #1040	; 0x410
 ad4:	85038404 	strhi	r8, [r3, #-1028]	; 0xfffffbfc
 ad8:	00018e02 	andeq	r8, r1, r2, lsl #28
 adc:	0000000c 	andeq	r0, r0, ip
 ae0:	ffffffff 			; <UNDEFINED> instruction: 0xffffffff
 ae4:	7c020001 	stcvc	0, cr0, [r2], {1}
 ae8:	000d0c0e 	andeq	r0, sp, lr, lsl #24
 aec:	00000018 	andeq	r0, r0, r8, lsl r0
 af0:	00000adc 	ldrdeq	r0, [r0], -ip
 af4:	080012cc 	stmdaeq	r0, {r2, r3, r6, r7, r9, ip}
 af8:	00000020 	andeq	r0, r0, r0, lsr #32
 afc:	83100e41 	tsthi	r0, #1040	; 0x410
 b00:	85038404 	strhi	r8, [r3, #-1028]	; 0xfffffbfc
 b04:	00018e02 	andeq	r8, r1, r2, lsl #28

Disassembly of section .debug_line_str:

00000000 <.debug_line_str>:
   0:	552f3a43 	strpl	r3, [pc, #-2627]!	; fffff5c5 <_estack+0xdffdf5c5>
   4:	73726573 	cmnvc	r2, #482344960	; 0x1cc00000
   8:	6972632f 	ldmdbvs	r2!, {r0, r1, r2, r3, r5, r8, r9, sp, lr}^
   c:	442f7473 	strtmi	r7, [pc], #-1139	; 14 <_Min_Heap_Size-0x1ec>
  10:	746b7365 	strbtvc	r7, [fp], #-869	; 0xfffffc9b
  14:	552f706f 	strpl	r7, [pc, #-111]!	; ffffffad <_estack+0xdffdffad>
  18:	796d6564 	stmdbvc	sp!, {r2, r5, r6, r8, sl, sp, lr}^
  1c:	63694d2f 	cmnvs	r9, #3008	; 0xbc0
  20:	6f636f72 	svcvs	0x00636f72
  24:	6f72746e 	svcvs	0x0072746e
  28:	72656c6c 	rsbvc	r6, r5, #108, 24	; 0x6c00
  2c:	626d4520 	rsbvs	r4, sp, #32, 10	; 0x8000000
  30:	65646465 	strbvs	r6, [r4, #-1125]!	; 0xfffffb9b
  34:	20432064 	subcs	r2, r3, r4, rrx
  38:	676f7250 			; <UNDEFINED> instruction: 0x676f7250
  3c:	6d6d6172 	stfvse	f6, [sp, #-456]!	; 0xfffffe38
  40:	2f676e69 	svccs	0x00676e69
  44:	775f794d 	ldrbvc	r7, [pc, -sp, asr #18]
  48:	736b726f 	cmnvc	fp, #-268435450	; 0xf0000006
  4c:	65636170 	strbvs	r6, [r3, #-368]!	; 0xfffffe90
  50:	7261742f 	rsbvc	r7, r1, #788529152	; 0x2f000000
  54:	2f746567 	svccs	0x00746567
  58:	657a6973 	ldrbvs	r6, [sl, #-2419]!	; 0xfffff68d
  5c:	745f666f 	ldrbvc	r6, [pc], #-1647	; 64 <_Min_Heap_Size-0x19c>
  60:	69747365 	ldmdbvs	r4!, {r0, r2, r5, r6, r8, r9, ip, sp, lr}^
  64:	442f676e 	strtmi	r6, [pc], #-1902	; 6c <_Min_Heap_Size-0x194>
  68:	67756265 	ldrbvs	r6, [r5, -r5, ror #4]!
  6c:	2f2e2e00 	svccs	0x002e2e00
  70:	72617453 	rsbvc	r7, r1, #1392508928	; 0x53000000
  74:	00707574 	rsbseq	r7, r0, r4, ror r5
  78:	72617473 	rsbvc	r7, r1, #1929379840	; 0x73000000
  7c:	5f707574 	svcpl	0x00707574
  80:	336d7473 	cmncc	sp, #1929379840	; 0x73000000
  84:	30346632 	eorscc	r6, r4, r2, lsr r6
  88:	74677637 	strbtvc	r7, [r7], #-1591	; 0xfffff9c9
  8c:	00732e78 	rsbseq	r2, r3, r8, ror lr
