
sizeof_testing.elf:     file format elf32-littlearm


Disassembly of section .isr_vector:

08000000 <g_pfnVectors>:
 8000000:	20020000 	andcs	r0, r2, r0
 8000004:	0800043d 	stmdaeq	r0, {r0, r2, r3, r4, r5, sl}
 8000008:	0800048d 	stmdaeq	r0, {r0, r2, r3, r7, sl}
 800000c:	0800048d 	stmdaeq	r0, {r0, r2, r3, r7, sl}
 8000010:	0800048d 	stmdaeq	r0, {r0, r2, r3, r7, sl}
 8000014:	0800048d 	stmdaeq	r0, {r0, r2, r3, r7, sl}
 8000018:	0800048d 	stmdaeq	r0, {r0, r2, r3, r7, sl}
	...
 800002c:	0800048d 	stmdaeq	r0, {r0, r2, r3, r7, sl}
 8000030:	0800048d 	stmdaeq	r0, {r0, r2, r3, r7, sl}
 8000034:	00000000 	andeq	r0, r0, r0
 8000038:	0800048d 	stmdaeq	r0, {r0, r2, r3, r7, sl}
 800003c:	0800048d 	stmdaeq	r0, {r0, r2, r3, r7, sl}
 8000040:	0800048d 	stmdaeq	r0, {r0, r2, r3, r7, sl}
 8000044:	0800048d 	stmdaeq	r0, {r0, r2, r3, r7, sl}
 8000048:	0800048d 	stmdaeq	r0, {r0, r2, r3, r7, sl}
 800004c:	0800048d 	stmdaeq	r0, {r0, r2, r3, r7, sl}
 8000050:	00000000 	andeq	r0, r0, r0
 8000054:	0800048d 	stmdaeq	r0, {r0, r2, r3, r7, sl}
 8000058:	0800048d 	stmdaeq	r0, {r0, r2, r3, r7, sl}
 800005c:	0800048d 	stmdaeq	r0, {r0, r2, r3, r7, sl}
 8000060:	0800048d 	stmdaeq	r0, {r0, r2, r3, r7, sl}
 8000064:	0800048d 	stmdaeq	r0, {r0, r2, r3, r7, sl}
 8000068:	0800048d 	stmdaeq	r0, {r0, r2, r3, r7, sl}
 800006c:	0800048d 	stmdaeq	r0, {r0, r2, r3, r7, sl}
 8000070:	0800048d 	stmdaeq	r0, {r0, r2, r3, r7, sl}
 8000074:	0800048d 	stmdaeq	r0, {r0, r2, r3, r7, sl}
 8000078:	0800048d 	stmdaeq	r0, {r0, r2, r3, r7, sl}
 800007c:	0800048d 	stmdaeq	r0, {r0, r2, r3, r7, sl}
 8000080:	0800048d 	stmdaeq	r0, {r0, r2, r3, r7, sl}
 8000084:	0800048d 	stmdaeq	r0, {r0, r2, r3, r7, sl}
 8000088:	0800048d 	stmdaeq	r0, {r0, r2, r3, r7, sl}
 800008c:	0800048d 	stmdaeq	r0, {r0, r2, r3, r7, sl}
 8000090:	0800048d 	stmdaeq	r0, {r0, r2, r3, r7, sl}
 8000094:	0800048d 	stmdaeq	r0, {r0, r2, r3, r7, sl}
 8000098:	0800048d 	stmdaeq	r0, {r0, r2, r3, r7, sl}
 800009c:	0800048d 	stmdaeq	r0, {r0, r2, r3, r7, sl}
 80000a0:	0800048d 	stmdaeq	r0, {r0, r2, r3, r7, sl}
 80000a4:	0800048d 	stmdaeq	r0, {r0, r2, r3, r7, sl}
 80000a8:	0800048d 	stmdaeq	r0, {r0, r2, r3, r7, sl}
 80000ac:	0800048d 	stmdaeq	r0, {r0, r2, r3, r7, sl}
 80000b0:	0800048d 	stmdaeq	r0, {r0, r2, r3, r7, sl}
 80000b4:	0800048d 	stmdaeq	r0, {r0, r2, r3, r7, sl}
 80000b8:	0800048d 	stmdaeq	r0, {r0, r2, r3, r7, sl}
 80000bc:	0800048d 	stmdaeq	r0, {r0, r2, r3, r7, sl}
 80000c0:	0800048d 	stmdaeq	r0, {r0, r2, r3, r7, sl}
 80000c4:	0800048d 	stmdaeq	r0, {r0, r2, r3, r7, sl}
 80000c8:	0800048d 	stmdaeq	r0, {r0, r2, r3, r7, sl}
 80000cc:	0800048d 	stmdaeq	r0, {r0, r2, r3, r7, sl}
 80000d0:	0800048d 	stmdaeq	r0, {r0, r2, r3, r7, sl}
 80000d4:	0800048d 	stmdaeq	r0, {r0, r2, r3, r7, sl}
 80000d8:	0800048d 	stmdaeq	r0, {r0, r2, r3, r7, sl}
 80000dc:	0800048d 	stmdaeq	r0, {r0, r2, r3, r7, sl}
 80000e0:	0800048d 	stmdaeq	r0, {r0, r2, r3, r7, sl}
 80000e4:	0800048d 	stmdaeq	r0, {r0, r2, r3, r7, sl}
 80000e8:	0800048d 	stmdaeq	r0, {r0, r2, r3, r7, sl}
 80000ec:	0800048d 	stmdaeq	r0, {r0, r2, r3, r7, sl}
 80000f0:	0800048d 	stmdaeq	r0, {r0, r2, r3, r7, sl}
 80000f4:	0800048d 	stmdaeq	r0, {r0, r2, r3, r7, sl}
 80000f8:	0800048d 	stmdaeq	r0, {r0, r2, r3, r7, sl}
 80000fc:	0800048d 	stmdaeq	r0, {r0, r2, r3, r7, sl}
 8000100:	0800048d 	stmdaeq	r0, {r0, r2, r3, r7, sl}
 8000104:	0800048d 	stmdaeq	r0, {r0, r2, r3, r7, sl}
 8000108:	0800048d 	stmdaeq	r0, {r0, r2, r3, r7, sl}
 800010c:	0800048d 	stmdaeq	r0, {r0, r2, r3, r7, sl}
 8000110:	0800048d 	stmdaeq	r0, {r0, r2, r3, r7, sl}
 8000114:	0800048d 	stmdaeq	r0, {r0, r2, r3, r7, sl}
 8000118:	0800048d 	stmdaeq	r0, {r0, r2, r3, r7, sl}
 800011c:	0800048d 	stmdaeq	r0, {r0, r2, r3, r7, sl}
 8000120:	0800048d 	stmdaeq	r0, {r0, r2, r3, r7, sl}
 8000124:	0800048d 	stmdaeq	r0, {r0, r2, r3, r7, sl}
 8000128:	0800048d 	stmdaeq	r0, {r0, r2, r3, r7, sl}
 800012c:	0800048d 	stmdaeq	r0, {r0, r2, r3, r7, sl}
 8000130:	0800048d 	stmdaeq	r0, {r0, r2, r3, r7, sl}
 8000134:	0800048d 	stmdaeq	r0, {r0, r2, r3, r7, sl}
 8000138:	0800048d 	stmdaeq	r0, {r0, r2, r3, r7, sl}
 800013c:	0800048d 	stmdaeq	r0, {r0, r2, r3, r7, sl}
 8000140:	0800048d 	stmdaeq	r0, {r0, r2, r3, r7, sl}
 8000144:	0800048d 	stmdaeq	r0, {r0, r2, r3, r7, sl}
 8000148:	0800048d 	stmdaeq	r0, {r0, r2, r3, r7, sl}
 800014c:	0800048d 	stmdaeq	r0, {r0, r2, r3, r7, sl}
 8000150:	0800048d 	stmdaeq	r0, {r0, r2, r3, r7, sl}
 8000154:	0800048d 	stmdaeq	r0, {r0, r2, r3, r7, sl}
 8000158:	0800048d 	stmdaeq	r0, {r0, r2, r3, r7, sl}
 800015c:	0800048d 	stmdaeq	r0, {r0, r2, r3, r7, sl}
 8000160:	0800048d 	stmdaeq	r0, {r0, r2, r3, r7, sl}
 8000164:	0800048d 	stmdaeq	r0, {r0, r2, r3, r7, sl}
 8000168:	0800048d 	stmdaeq	r0, {r0, r2, r3, r7, sl}
 800016c:	0800048d 	stmdaeq	r0, {r0, r2, r3, r7, sl}
 8000170:	0800048d 	stmdaeq	r0, {r0, r2, r3, r7, sl}
 8000174:	0800048d 	stmdaeq	r0, {r0, r2, r3, r7, sl}
 8000178:	0800048d 	stmdaeq	r0, {r0, r2, r3, r7, sl}
 800017c:	0800048d 	stmdaeq	r0, {r0, r2, r3, r7, sl}
 8000180:	0800048d 	stmdaeq	r0, {r0, r2, r3, r7, sl}
 8000184:	0800048d 	stmdaeq	r0, {r0, r2, r3, r7, sl}

Disassembly of section .text:

08000190 <__do_global_dtors_aux>:
 8000190:	b510      	push	{r4, lr}
 8000192:	4c05      	ldr	r4, [pc, #20]	; (80001a8 <__do_global_dtors_aux+0x18>)
 8000194:	7823      	ldrb	r3, [r4, #0]
 8000196:	b933      	cbnz	r3, 80001a6 <__do_global_dtors_aux+0x16>
 8000198:	4b04      	ldr	r3, [pc, #16]	; (80001ac <__do_global_dtors_aux+0x1c>)
 800019a:	b113      	cbz	r3, 80001a2 <__do_global_dtors_aux+0x12>
 800019c:	4804      	ldr	r0, [pc, #16]	; (80001b0 <__do_global_dtors_aux+0x20>)
 800019e:	f3af 8000 	nop.w
 80001a2:	2301      	movs	r3, #1
 80001a4:	7023      	strb	r3, [r4, #0]
 80001a6:	bd10      	pop	{r4, pc}
 80001a8:	20000064 	andcs	r0, r0, r4, rrx
 80001ac:	00000000 	andeq	r0, r0, r0
 80001b0:	080012ec 	stmdaeq	r0, {r2, r3, r5, r6, r7, r9, ip}

080001b4 <frame_dummy>:
 80001b4:	b508      	push	{r3, lr}
 80001b6:	4b03      	ldr	r3, [pc, #12]	; (80001c4 <frame_dummy+0x10>)
 80001b8:	b11b      	cbz	r3, 80001c2 <frame_dummy+0xe>
 80001ba:	4903      	ldr	r1, [pc, #12]	; (80001c8 <frame_dummy+0x14>)
 80001bc:	4803      	ldr	r0, [pc, #12]	; (80001cc <frame_dummy+0x18>)
 80001be:	f3af 8000 	nop.w
 80001c2:	bd08      	pop	{r3, pc}
 80001c4:	00000000 	andeq	r0, r0, r0
 80001c8:	20000068 	andcs	r0, r0, r8, rrx
 80001cc:	080012ec 	stmdaeq	r0, {r2, r3, r5, r6, r7, r9, ip}

080001d0 <memchr>:
 80001d0:	f001 01ff 	and.w	r1, r1, #255	; 0xff
 80001d4:	2a10      	cmp	r2, #16
 80001d6:	db2b      	blt.n	8000230 <memchr+0x60>
 80001d8:	f010 0f07 	tst.w	r0, #7
 80001dc:	d008      	beq.n	80001f0 <memchr+0x20>
 80001de:	f810 3b01 	ldrb.w	r3, [r0], #1
 80001e2:	3a01      	subs	r2, #1
 80001e4:	428b      	cmp	r3, r1
 80001e6:	d02d      	beq.n	8000244 <memchr+0x74>
 80001e8:	f010 0f07 	tst.w	r0, #7
 80001ec:	b342      	cbz	r2, 8000240 <memchr+0x70>
 80001ee:	d1f6      	bne.n	80001de <memchr+0xe>
 80001f0:	b4f0      	push	{r4, r5, r6, r7}
 80001f2:	ea41 2101 	orr.w	r1, r1, r1, lsl #8
 80001f6:	ea41 4101 	orr.w	r1, r1, r1, lsl #16
 80001fa:	f022 0407 	bic.w	r4, r2, #7
 80001fe:	f07f 0700 	mvns.w	r7, #0
 8000202:	2300      	movs	r3, #0
 8000204:	e8f0 5602 	ldrd	r5, r6, [r0], #8
 8000208:	3c08      	subs	r4, #8
 800020a:	ea85 0501 	eor.w	r5, r5, r1
 800020e:	ea86 0601 	eor.w	r6, r6, r1
 8000212:	fa85 f547 	uadd8	r5, r5, r7
 8000216:	faa3 f587 	sel	r5, r3, r7
 800021a:	fa86 f647 	uadd8	r6, r6, r7
 800021e:	faa5 f687 	sel	r6, r5, r7
 8000222:	b98e      	cbnz	r6, 8000248 <memchr+0x78>
 8000224:	d1ee      	bne.n	8000204 <memchr+0x34>
 8000226:	bcf0      	pop	{r4, r5, r6, r7}
 8000228:	f001 01ff 	and.w	r1, r1, #255	; 0xff
 800022c:	f002 0207 	and.w	r2, r2, #7
 8000230:	b132      	cbz	r2, 8000240 <memchr+0x70>
 8000232:	f810 3b01 	ldrb.w	r3, [r0], #1
 8000236:	3a01      	subs	r2, #1
 8000238:	ea83 0301 	eor.w	r3, r3, r1
 800023c:	b113      	cbz	r3, 8000244 <memchr+0x74>
 800023e:	d1f8      	bne.n	8000232 <memchr+0x62>
 8000240:	2000      	movs	r0, #0
 8000242:	4770      	bx	lr
 8000244:	3801      	subs	r0, #1
 8000246:	4770      	bx	lr
 8000248:	2d00      	cmp	r5, #0
 800024a:	bf06      	itte	eq
 800024c:	4635      	moveq	r5, r6
 800024e:	3803      	subeq	r0, #3
 8000250:	3807      	subne	r0, #7
 8000252:	f015 0f01 	tst.w	r5, #1
 8000256:	d107      	bne.n	8000268 <memchr+0x98>
 8000258:	3001      	adds	r0, #1
 800025a:	f415 7f80 	tst.w	r5, #256	; 0x100
 800025e:	bf02      	ittt	eq
 8000260:	3001      	addeq	r0, #1
 8000262:	f415 3fc0 	tsteq.w	r5, #98304	; 0x18000
 8000266:	3001      	addeq	r0, #1
 8000268:	bcf0      	pop	{r4, r5, r6, r7}
 800026a:	3801      	subs	r0, #1
 800026c:	4770      	bx	lr
 800026e:	bf00      	nop

08000270 <main>:
 8000270:	b580      	push	{r7, lr}
 8000272:	af00      	add	r7, sp, #0
 8000274:	4b07      	ldr	r3, [pc, #28]	; (8000294 <main+0x24>)
 8000276:	681a      	ldr	r2, [r3, #0]
 8000278:	4b07      	ldr	r3, [pc, #28]	; (8000298 <main+0x28>)
 800027a:	681b      	ldr	r3, [r3, #0]
 800027c:	4413      	add	r3, r2
 800027e:	4a07      	ldr	r2, [pc, #28]	; (800029c <main+0x2c>)
 8000280:	6013      	str	r3, [r2, #0]
 8000282:	4b06      	ldr	r3, [pc, #24]	; (800029c <main+0x2c>)
 8000284:	681b      	ldr	r3, [r3, #0]
 8000286:	4619      	mov	r1, r3
 8000288:	4805      	ldr	r0, [pc, #20]	; (80002a0 <main+0x30>)
 800028a:	f000 f9c3 	bl	8000614 <iprintf>
 800028e:	bf00      	nop
 8000290:	e7fd      	b.n	800028e <main+0x1e>
 8000292:	bf00      	nop
 8000294:	20000000 	andcs	r0, r0, r0
 8000298:	20000004 	andcs	r0, r0, r4
 800029c:	20000080 	andcs	r0, r0, r0, lsl #1
 80002a0:	08001304 	stmdaeq	r0, {r2, r8, r9, ip}

080002a4 <ITM_SendChar>:
 80002a4:	b480      	push	{r7}
 80002a6:	b083      	sub	sp, #12
 80002a8:	af00      	add	r7, sp, #0
 80002aa:	4603      	mov	r3, r0
 80002ac:	71fb      	strb	r3, [r7, #7]
 80002ae:	4b0f      	ldr	r3, [pc, #60]	; (80002ec <ITM_SendChar+0x48>)
 80002b0:	681b      	ldr	r3, [r3, #0]
 80002b2:	4a0e      	ldr	r2, [pc, #56]	; (80002ec <ITM_SendChar+0x48>)
 80002b4:	f043 7380 	orr.w	r3, r3, #16777216	; 0x1000000
 80002b8:	6013      	str	r3, [r2, #0]
 80002ba:	4b0d      	ldr	r3, [pc, #52]	; (80002f0 <ITM_SendChar+0x4c>)
 80002bc:	681b      	ldr	r3, [r3, #0]
 80002be:	4a0c      	ldr	r2, [pc, #48]	; (80002f0 <ITM_SendChar+0x4c>)
 80002c0:	f043 0301 	orr.w	r3, r3, #1
 80002c4:	6013      	str	r3, [r2, #0]
 80002c6:	bf00      	nop
 80002c8:	f04f 4360 	mov.w	r3, #3758096384	; 0xe0000000
 80002cc:	681b      	ldr	r3, [r3, #0]
 80002ce:	f003 0301 	and.w	r3, r3, #1
 80002d2:	2b00      	cmp	r3, #0
 80002d4:	d0f8      	beq.n	80002c8 <ITM_SendChar+0x24>
 80002d6:	f04f 4260 	mov.w	r2, #3758096384	; 0xe0000000
 80002da:	79fb      	ldrb	r3, [r7, #7]
 80002dc:	6013      	str	r3, [r2, #0]
 80002de:	bf00      	nop
 80002e0:	370c      	adds	r7, #12
 80002e2:	46bd      	mov	sp, r7
 80002e4:	f85d 7b04 	ldr.w	r7, [sp], #4
 80002e8:	4770      	bx	lr
 80002ea:	bf00      	nop
 80002ec:	e000edfc 	strd	lr, [r0], -ip
 80002f0:	e0000e00 	and	r0, r0, r0, lsl #28

080002f4 <_read>:
 80002f4:	b580      	push	{r7, lr}
 80002f6:	b086      	sub	sp, #24
 80002f8:	af00      	add	r7, sp, #0
 80002fa:	60f8      	str	r0, [r7, #12]
 80002fc:	60b9      	str	r1, [r7, #8]
 80002fe:	607a      	str	r2, [r7, #4]
 8000300:	2300      	movs	r3, #0
 8000302:	617b      	str	r3, [r7, #20]
 8000304:	e00a      	b.n	800031c <_read+0x28>
 8000306:	f3af 8000 	nop.w
 800030a:	4601      	mov	r1, r0
 800030c:	68bb      	ldr	r3, [r7, #8]
 800030e:	1c5a      	adds	r2, r3, #1
 8000310:	60ba      	str	r2, [r7, #8]
 8000312:	b2ca      	uxtb	r2, r1
 8000314:	701a      	strb	r2, [r3, #0]
 8000316:	697b      	ldr	r3, [r7, #20]
 8000318:	3301      	adds	r3, #1
 800031a:	617b      	str	r3, [r7, #20]
 800031c:	697a      	ldr	r2, [r7, #20]
 800031e:	687b      	ldr	r3, [r7, #4]
 8000320:	429a      	cmp	r2, r3
 8000322:	dbf0      	blt.n	8000306 <_read+0x12>
 8000324:	687b      	ldr	r3, [r7, #4]
 8000326:	4618      	mov	r0, r3
 8000328:	3718      	adds	r7, #24
 800032a:	46bd      	mov	sp, r7
 800032c:	bd80      	pop	{r7, pc}

0800032e <_write>:
 800032e:	b580      	push	{r7, lr}
 8000330:	b086      	sub	sp, #24
 8000332:	af00      	add	r7, sp, #0
 8000334:	60f8      	str	r0, [r7, #12]
 8000336:	60b9      	str	r1, [r7, #8]
 8000338:	607a      	str	r2, [r7, #4]
 800033a:	2300      	movs	r3, #0
 800033c:	617b      	str	r3, [r7, #20]
 800033e:	e009      	b.n	8000354 <_write+0x26>
 8000340:	68bb      	ldr	r3, [r7, #8]
 8000342:	1c5a      	adds	r2, r3, #1
 8000344:	60ba      	str	r2, [r7, #8]
 8000346:	781b      	ldrb	r3, [r3, #0]
 8000348:	4618      	mov	r0, r3
 800034a:	f7ff ffab 	bl	80002a4 <ITM_SendChar>
 800034e:	697b      	ldr	r3, [r7, #20]
 8000350:	3301      	adds	r3, #1
 8000352:	617b      	str	r3, [r7, #20]
 8000354:	697a      	ldr	r2, [r7, #20]
 8000356:	687b      	ldr	r3, [r7, #4]
 8000358:	429a      	cmp	r2, r3
 800035a:	dbf1      	blt.n	8000340 <_write+0x12>
 800035c:	687b      	ldr	r3, [r7, #4]
 800035e:	4618      	mov	r0, r3
 8000360:	3718      	adds	r7, #24
 8000362:	46bd      	mov	sp, r7
 8000364:	bd80      	pop	{r7, pc}

08000366 <_close>:
 8000366:	b480      	push	{r7}
 8000368:	b083      	sub	sp, #12
 800036a:	af00      	add	r7, sp, #0
 800036c:	6078      	str	r0, [r7, #4]
 800036e:	f04f 33ff 	mov.w	r3, #4294967295	; 0xffffffff
 8000372:	4618      	mov	r0, r3
 8000374:	370c      	adds	r7, #12
 8000376:	46bd      	mov	sp, r7
 8000378:	f85d 7b04 	ldr.w	r7, [sp], #4
 800037c:	4770      	bx	lr

0800037e <_fstat>:
 800037e:	b480      	push	{r7}
 8000380:	b083      	sub	sp, #12
 8000382:	af00      	add	r7, sp, #0
 8000384:	6078      	str	r0, [r7, #4]
 8000386:	6039      	str	r1, [r7, #0]
 8000388:	683b      	ldr	r3, [r7, #0]
 800038a:	f44f 5200 	mov.w	r2, #8192	; 0x2000
 800038e:	605a      	str	r2, [r3, #4]
 8000390:	2300      	movs	r3, #0
 8000392:	4618      	mov	r0, r3
 8000394:	370c      	adds	r7, #12
 8000396:	46bd      	mov	sp, r7
 8000398:	f85d 7b04 	ldr.w	r7, [sp], #4
 800039c:	4770      	bx	lr

0800039e <_isatty>:
 800039e:	b480      	push	{r7}
 80003a0:	b083      	sub	sp, #12
 80003a2:	af00      	add	r7, sp, #0
 80003a4:	6078      	str	r0, [r7, #4]
 80003a6:	2301      	movs	r3, #1
 80003a8:	4618      	mov	r0, r3
 80003aa:	370c      	adds	r7, #12
 80003ac:	46bd      	mov	sp, r7
 80003ae:	f85d 7b04 	ldr.w	r7, [sp], #4
 80003b2:	4770      	bx	lr

080003b4 <_lseek>:
 80003b4:	b480      	push	{r7}
 80003b6:	b085      	sub	sp, #20
 80003b8:	af00      	add	r7, sp, #0
 80003ba:	60f8      	str	r0, [r7, #12]
 80003bc:	60b9      	str	r1, [r7, #8]
 80003be:	607a      	str	r2, [r7, #4]
 80003c0:	2300      	movs	r3, #0
 80003c2:	4618      	mov	r0, r3
 80003c4:	3714      	adds	r7, #20
 80003c6:	46bd      	mov	sp, r7
 80003c8:	f85d 7b04 	ldr.w	r7, [sp], #4
 80003cc:	4770      	bx	lr
	...

080003d0 <_sbrk>:
 80003d0:	b580      	push	{r7, lr}
 80003d2:	b086      	sub	sp, #24
 80003d4:	af00      	add	r7, sp, #0
 80003d6:	6078      	str	r0, [r7, #4]
 80003d8:	4a14      	ldr	r2, [pc, #80]	; (800042c <_sbrk+0x5c>)
 80003da:	4b15      	ldr	r3, [pc, #84]	; (8000430 <_sbrk+0x60>)
 80003dc:	1ad3      	subs	r3, r2, r3
 80003de:	617b      	str	r3, [r7, #20]
 80003e0:	697b      	ldr	r3, [r7, #20]
 80003e2:	613b      	str	r3, [r7, #16]
 80003e4:	4b13      	ldr	r3, [pc, #76]	; (8000434 <_sbrk+0x64>)
 80003e6:	681b      	ldr	r3, [r3, #0]
 80003e8:	2b00      	cmp	r3, #0
 80003ea:	d102      	bne.n	80003f2 <_sbrk+0x22>
 80003ec:	4b11      	ldr	r3, [pc, #68]	; (8000434 <_sbrk+0x64>)
 80003ee:	4a12      	ldr	r2, [pc, #72]	; (8000438 <_sbrk+0x68>)
 80003f0:	601a      	str	r2, [r3, #0]
 80003f2:	4b10      	ldr	r3, [pc, #64]	; (8000434 <_sbrk+0x64>)
 80003f4:	681a      	ldr	r2, [r3, #0]
 80003f6:	687b      	ldr	r3, [r7, #4]
 80003f8:	4413      	add	r3, r2
 80003fa:	693a      	ldr	r2, [r7, #16]
 80003fc:	429a      	cmp	r2, r3
 80003fe:	d207      	bcs.n	8000410 <_sbrk+0x40>
 8000400:	f000 f9ac 	bl	800075c <__errno>
 8000404:	4603      	mov	r3, r0
 8000406:	220c      	movs	r2, #12
 8000408:	601a      	str	r2, [r3, #0]
 800040a:	f04f 33ff 	mov.w	r3, #4294967295	; 0xffffffff
 800040e:	e009      	b.n	8000424 <_sbrk+0x54>
 8000410:	4b08      	ldr	r3, [pc, #32]	; (8000434 <_sbrk+0x64>)
 8000412:	681b      	ldr	r3, [r3, #0]
 8000414:	60fb      	str	r3, [r7, #12]
 8000416:	4b07      	ldr	r3, [pc, #28]	; (8000434 <_sbrk+0x64>)
 8000418:	681a      	ldr	r2, [r3, #0]
 800041a:	687b      	ldr	r3, [r7, #4]
 800041c:	4413      	add	r3, r2
 800041e:	4a05      	ldr	r2, [pc, #20]	; (8000434 <_sbrk+0x64>)
 8000420:	6013      	str	r3, [r2, #0]
 8000422:	68fb      	ldr	r3, [r7, #12]
 8000424:	4618      	mov	r0, r3
 8000426:	3718      	adds	r7, #24
 8000428:	46bd      	mov	sp, r7
 800042a:	bd80      	pop	{r7, pc}
 800042c:	20020000 	andcs	r0, r2, r0
 8000430:	00000400 	andeq	r0, r0, r0, lsl #8
 8000434:	20000084 	andcs	r0, r0, r4, lsl #1
 8000438:	200001d8 	ldrdcs	r0, [r0], -r8

0800043c <Reset_Handler>:
 800043c:	480d      	ldr	r0, [pc, #52]	; (8000474 <LoopForever+0x2>)
 800043e:	4685      	mov	sp, r0
 8000440:	f3af 8000 	nop.w
 8000444:	480c      	ldr	r0, [pc, #48]	; (8000478 <LoopForever+0x6>)
 8000446:	490d      	ldr	r1, [pc, #52]	; (800047c <LoopForever+0xa>)
 8000448:	4a0d      	ldr	r2, [pc, #52]	; (8000480 <LoopForever+0xe>)
 800044a:	2300      	movs	r3, #0
 800044c:	e002      	b.n	8000454 <LoopCopyDataInit>

0800044e <CopyDataInit>:
 800044e:	58d4      	ldr	r4, [r2, r3]
 8000450:	50c4      	str	r4, [r0, r3]
 8000452:	3304      	adds	r3, #4

08000454 <LoopCopyDataInit>:
 8000454:	18c4      	adds	r4, r0, r3
 8000456:	428c      	cmp	r4, r1
 8000458:	d3f9      	bcc.n	800044e <CopyDataInit>
 800045a:	4a0a      	ldr	r2, [pc, #40]	; (8000484 <LoopForever+0x12>)
 800045c:	4c0a      	ldr	r4, [pc, #40]	; (8000488 <LoopForever+0x16>)
 800045e:	2300      	movs	r3, #0
 8000460:	e001      	b.n	8000466 <LoopFillZerobss>

08000462 <FillZerobss>:
 8000462:	6013      	str	r3, [r2, #0]
 8000464:	3204      	adds	r2, #4

08000466 <LoopFillZerobss>:
 8000466:	42a2      	cmp	r2, r4
 8000468:	d3fb      	bcc.n	8000462 <FillZerobss>
 800046a:	f000 f97d 	bl	8000768 <__libc_init_array>
 800046e:	f7ff feff 	bl	8000270 <main>

08000472 <LoopForever>:
 8000472:	e7fe      	b.n	8000472 <LoopForever>
 8000474:	20020000 	andcs	r0, r2, r0
 8000478:	20000000 	andcs	r0, r0, r0
 800047c:	20000064 	andcs	r0, r0, r4, rrx
 8000480:	08001354 	stmdaeq	r0, {r2, r4, r6, r8, r9, ip}
 8000484:	20000064 	andcs	r0, r0, r4, rrx
 8000488:	200001d4 	ldrdcs	r0, [r0], -r4

0800048c <ADC_IRQHandler>:
 800048c:	e7fe      	b.n	800048c <ADC_IRQHandler>
	...

08000490 <std>:
 8000490:	2300      	movs	r3, #0
 8000492:	b510      	push	{r4, lr}
 8000494:	4604      	mov	r4, r0
 8000496:	e9c0 3300 	strd	r3, r3, [r0]
 800049a:	e9c0 3304 	strd	r3, r3, [r0, #16]
 800049e:	6083      	str	r3, [r0, #8]
 80004a0:	8181      	strh	r1, [r0, #12]
 80004a2:	6643      	str	r3, [r0, #100]	; 0x64
 80004a4:	81c2      	strh	r2, [r0, #14]
 80004a6:	6183      	str	r3, [r0, #24]
 80004a8:	4619      	mov	r1, r3
 80004aa:	2208      	movs	r2, #8
 80004ac:	305c      	adds	r0, #92	; 0x5c
 80004ae:	f000 f906 	bl	80006be <memset>
 80004b2:	4b0d      	ldr	r3, [pc, #52]	; (80004e8 <std+0x58>)
 80004b4:	6263      	str	r3, [r4, #36]	; 0x24
 80004b6:	4b0d      	ldr	r3, [pc, #52]	; (80004ec <std+0x5c>)
 80004b8:	62a3      	str	r3, [r4, #40]	; 0x28
 80004ba:	4b0d      	ldr	r3, [pc, #52]	; (80004f0 <std+0x60>)
 80004bc:	62e3      	str	r3, [r4, #44]	; 0x2c
 80004be:	4b0d      	ldr	r3, [pc, #52]	; (80004f4 <std+0x64>)
 80004c0:	6323      	str	r3, [r4, #48]	; 0x30
 80004c2:	4b0d      	ldr	r3, [pc, #52]	; (80004f8 <std+0x68>)
 80004c4:	6224      	str	r4, [r4, #32]
 80004c6:	429c      	cmp	r4, r3
 80004c8:	d006      	beq.n	80004d8 <std+0x48>
 80004ca:	f103 0268 	add.w	r2, r3, #104	; 0x68
 80004ce:	4294      	cmp	r4, r2
 80004d0:	d002      	beq.n	80004d8 <std+0x48>
 80004d2:	33d0      	adds	r3, #208	; 0xd0
 80004d4:	429c      	cmp	r4, r3
 80004d6:	d105      	bne.n	80004e4 <std+0x54>
 80004d8:	f104 0058 	add.w	r0, r4, #88	; 0x58
 80004dc:	e8bd 4010 	ldmia.w	sp!, {r4, lr}
 80004e0:	f000 b966 	b.w	80007b0 <__retarget_lock_init_recursive>
 80004e4:	bd10      	pop	{r4, pc}
 80004e6:	bf00      	nop
 80004e8:	08000639 	stmdaeq	r0, {r0, r3, r4, r5, r9, sl}
 80004ec:	0800065b 	stmdaeq	r0, {r0, r1, r3, r4, r6, r9, sl}
 80004f0:	08000693 	stmdaeq	r0, {r0, r1, r4, r7, r9, sl}
 80004f4:	080006b7 	stmdaeq	r0, {r0, r1, r2, r4, r5, r7, r9, sl}
 80004f8:	20000088 	andcs	r0, r0, r8, lsl #1

080004fc <stdio_exit_handler>:
 80004fc:	4a02      	ldr	r2, [pc, #8]	; (8000508 <stdio_exit_handler+0xc>)
 80004fe:	4903      	ldr	r1, [pc, #12]	; (800050c <stdio_exit_handler+0x10>)
 8000500:	4803      	ldr	r0, [pc, #12]	; (8000510 <stdio_exit_handler+0x14>)
 8000502:	f000 b869 	b.w	80005d8 <_fwalk_sglue>
 8000506:	bf00      	nop
 8000508:	20000008 	andcs	r0, r0, r8
 800050c:	0800104d 	stmdaeq	r0, {r0, r2, r3, r6, ip}
 8000510:	20000018 	andcs	r0, r0, r8, lsl r0

08000514 <cleanup_stdio>:
 8000514:	6841      	ldr	r1, [r0, #4]
 8000516:	4b0c      	ldr	r3, [pc, #48]	; (8000548 <cleanup_stdio+0x34>)
 8000518:	4299      	cmp	r1, r3
 800051a:	b510      	push	{r4, lr}
 800051c:	4604      	mov	r4, r0
 800051e:	d001      	beq.n	8000524 <cleanup_stdio+0x10>
 8000520:	f000 fd94 	bl	800104c <_fflush_r>
 8000524:	68a1      	ldr	r1, [r4, #8]
 8000526:	4b09      	ldr	r3, [pc, #36]	; (800054c <cleanup_stdio+0x38>)
 8000528:	4299      	cmp	r1, r3
 800052a:	d002      	beq.n	8000532 <cleanup_stdio+0x1e>
 800052c:	4620      	mov	r0, r4
 800052e:	f000 fd8d 	bl	800104c <_fflush_r>
 8000532:	68e1      	ldr	r1, [r4, #12]
 8000534:	4b06      	ldr	r3, [pc, #24]	; (8000550 <cleanup_stdio+0x3c>)
 8000536:	4299      	cmp	r1, r3
 8000538:	d004      	beq.n	8000544 <cleanup_stdio+0x30>
 800053a:	4620      	mov	r0, r4
 800053c:	e8bd 4010 	ldmia.w	sp!, {r4, lr}
 8000540:	f000 bd84 	b.w	800104c <_fflush_r>
 8000544:	bd10      	pop	{r4, pc}
 8000546:	bf00      	nop
 8000548:	20000088 	andcs	r0, r0, r8, lsl #1
 800054c:	200000f0 	strdcs	r0, [r0], -r0	; <UNPREDICTABLE>
 8000550:	20000158 	andcs	r0, r0, r8, asr r1

08000554 <global_stdio_init.part.0>:
 8000554:	b510      	push	{r4, lr}
 8000556:	4b0b      	ldr	r3, [pc, #44]	; (8000584 <global_stdio_init.part.0+0x30>)
 8000558:	4c0b      	ldr	r4, [pc, #44]	; (8000588 <global_stdio_init.part.0+0x34>)
 800055a:	4a0c      	ldr	r2, [pc, #48]	; (800058c <global_stdio_init.part.0+0x38>)
 800055c:	601a      	str	r2, [r3, #0]
 800055e:	4620      	mov	r0, r4
 8000560:	2200      	movs	r2, #0
 8000562:	2104      	movs	r1, #4
 8000564:	f7ff ff94 	bl	8000490 <std>
 8000568:	f104 0068 	add.w	r0, r4, #104	; 0x68
 800056c:	2201      	movs	r2, #1
 800056e:	2109      	movs	r1, #9
 8000570:	f7ff ff8e 	bl	8000490 <std>
 8000574:	f104 00d0 	add.w	r0, r4, #208	; 0xd0
 8000578:	2202      	movs	r2, #2
 800057a:	e8bd 4010 	ldmia.w	sp!, {r4, lr}
 800057e:	2112      	movs	r1, #18
 8000580:	f7ff bf86 	b.w	8000490 <std>
 8000584:	200001c0 	andcs	r0, r0, r0, asr #3
 8000588:	20000088 	andcs	r0, r0, r8, lsl #1
 800058c:	080004fd 	stmdaeq	r0, {r0, r2, r3, r4, r5, r6, r7, sl}

08000590 <__sfp_lock_acquire>:
 8000590:	4801      	ldr	r0, [pc, #4]	; (8000598 <__sfp_lock_acquire+0x8>)
 8000592:	f000 b90e 	b.w	80007b2 <__retarget_lock_acquire_recursive>
 8000596:	bf00      	nop
 8000598:	200001c9 	andcs	r0, r0, r9, asr #3

0800059c <__sfp_lock_release>:
 800059c:	4801      	ldr	r0, [pc, #4]	; (80005a4 <__sfp_lock_release+0x8>)
 800059e:	f000 b909 	b.w	80007b4 <__retarget_lock_release_recursive>
 80005a2:	bf00      	nop
 80005a4:	200001c9 	andcs	r0, r0, r9, asr #3

080005a8 <__sinit>:
 80005a8:	b510      	push	{r4, lr}
 80005aa:	4604      	mov	r4, r0
 80005ac:	f7ff fff0 	bl	8000590 <__sfp_lock_acquire>
 80005b0:	6a23      	ldr	r3, [r4, #32]
 80005b2:	b11b      	cbz	r3, 80005bc <__sinit+0x14>
 80005b4:	e8bd 4010 	ldmia.w	sp!, {r4, lr}
 80005b8:	f7ff bff0 	b.w	800059c <__sfp_lock_release>
 80005bc:	4b04      	ldr	r3, [pc, #16]	; (80005d0 <__sinit+0x28>)
 80005be:	6223      	str	r3, [r4, #32]
 80005c0:	4b04      	ldr	r3, [pc, #16]	; (80005d4 <__sinit+0x2c>)
 80005c2:	681b      	ldr	r3, [r3, #0]
 80005c4:	2b00      	cmp	r3, #0
 80005c6:	d1f5      	bne.n	80005b4 <__sinit+0xc>
 80005c8:	f7ff ffc4 	bl	8000554 <global_stdio_init.part.0>
 80005cc:	e7f2      	b.n	80005b4 <__sinit+0xc>
 80005ce:	bf00      	nop
 80005d0:	08000515 	stmdaeq	r0, {r0, r2, r4, r8, sl}
 80005d4:	200001c0 	andcs	r0, r0, r0, asr #3

080005d8 <_fwalk_sglue>:
 80005d8:	e92d 43f8 	stmdb	sp!, {r3, r4, r5, r6, r7, r8, r9, lr}
 80005dc:	4607      	mov	r7, r0
 80005de:	4688      	mov	r8, r1
 80005e0:	4614      	mov	r4, r2
 80005e2:	2600      	movs	r6, #0
 80005e4:	e9d4 9501 	ldrd	r9, r5, [r4, #4]
 80005e8:	f1b9 0901 	subs.w	r9, r9, #1
 80005ec:	d505      	bpl.n	80005fa <_fwalk_sglue+0x22>
 80005ee:	6824      	ldr	r4, [r4, #0]
 80005f0:	2c00      	cmp	r4, #0
 80005f2:	d1f7      	bne.n	80005e4 <_fwalk_sglue+0xc>
 80005f4:	4630      	mov	r0, r6
 80005f6:	e8bd 83f8 	ldmia.w	sp!, {r3, r4, r5, r6, r7, r8, r9, pc}
 80005fa:	89ab      	ldrh	r3, [r5, #12]
 80005fc:	2b01      	cmp	r3, #1
 80005fe:	d907      	bls.n	8000610 <_fwalk_sglue+0x38>
 8000600:	f9b5 300e 	ldrsh.w	r3, [r5, #14]
 8000604:	3301      	adds	r3, #1
 8000606:	d003      	beq.n	8000610 <_fwalk_sglue+0x38>
 8000608:	4629      	mov	r1, r5
 800060a:	4638      	mov	r0, r7
 800060c:	47c0      	blx	r8
 800060e:	4306      	orrs	r6, r0
 8000610:	3568      	adds	r5, #104	; 0x68
 8000612:	e7e9      	b.n	80005e8 <_fwalk_sglue+0x10>

08000614 <iprintf>:
 8000614:	b40f      	push	{r0, r1, r2, r3}
 8000616:	b507      	push	{r0, r1, r2, lr}
 8000618:	4906      	ldr	r1, [pc, #24]	; (8000634 <iprintf+0x20>)
 800061a:	ab04      	add	r3, sp, #16
 800061c:	6808      	ldr	r0, [r1, #0]
 800061e:	f853 2b04 	ldr.w	r2, [r3], #4
 8000622:	6881      	ldr	r1, [r0, #8]
 8000624:	9301      	str	r3, [sp, #4]
 8000626:	f000 f9e9 	bl	80009fc <_vfiprintf_r>
 800062a:	b003      	add	sp, #12
 800062c:	f85d eb04 	ldr.w	lr, [sp], #4
 8000630:	b004      	add	sp, #16
 8000632:	4770      	bx	lr
 8000634:	20000014 	andcs	r0, r0, r4, lsl r0

08000638 <__sread>:
 8000638:	b510      	push	{r4, lr}
 800063a:	460c      	mov	r4, r1
 800063c:	f9b1 100e 	ldrsh.w	r1, [r1, #14]
 8000640:	f000 f868 	bl	8000714 <_read_r>
 8000644:	2800      	cmp	r0, #0
 8000646:	bfab      	itete	ge
 8000648:	6d63      	ldrge	r3, [r4, #84]	; 0x54
 800064a:	89a3      	ldrhlt	r3, [r4, #12]
 800064c:	181b      	addge	r3, r3, r0
 800064e:	f423 5380 	biclt.w	r3, r3, #4096	; 0x1000
 8000652:	bfac      	ite	ge
 8000654:	6563      	strge	r3, [r4, #84]	; 0x54
 8000656:	81a3      	strhlt	r3, [r4, #12]
 8000658:	bd10      	pop	{r4, pc}

0800065a <__swrite>:
 800065a:	e92d 41f0 	stmdb	sp!, {r4, r5, r6, r7, r8, lr}
 800065e:	461f      	mov	r7, r3
 8000660:	898b      	ldrh	r3, [r1, #12]
 8000662:	05db      	lsls	r3, r3, #23
 8000664:	4605      	mov	r5, r0
 8000666:	460c      	mov	r4, r1
 8000668:	4616      	mov	r6, r2
 800066a:	d505      	bpl.n	8000678 <__swrite+0x1e>
 800066c:	f9b1 100e 	ldrsh.w	r1, [r1, #14]
 8000670:	2302      	movs	r3, #2
 8000672:	2200      	movs	r2, #0
 8000674:	f000 f83c 	bl	80006f0 <_lseek_r>
 8000678:	89a3      	ldrh	r3, [r4, #12]
 800067a:	f9b4 100e 	ldrsh.w	r1, [r4, #14]
 800067e:	f423 5380 	bic.w	r3, r3, #4096	; 0x1000
 8000682:	81a3      	strh	r3, [r4, #12]
 8000684:	4632      	mov	r2, r6
 8000686:	463b      	mov	r3, r7
 8000688:	4628      	mov	r0, r5
 800068a:	e8bd 41f0 	ldmia.w	sp!, {r4, r5, r6, r7, r8, lr}
 800068e:	f000 b853 	b.w	8000738 <_write_r>

08000692 <__sseek>:
 8000692:	b510      	push	{r4, lr}
 8000694:	460c      	mov	r4, r1
 8000696:	f9b1 100e 	ldrsh.w	r1, [r1, #14]
 800069a:	f000 f829 	bl	80006f0 <_lseek_r>
 800069e:	1c43      	adds	r3, r0, #1
 80006a0:	89a3      	ldrh	r3, [r4, #12]
 80006a2:	bf15      	itete	ne
 80006a4:	6560      	strne	r0, [r4, #84]	; 0x54
 80006a6:	f423 5380 	biceq.w	r3, r3, #4096	; 0x1000
 80006aa:	f443 5380 	orrne.w	r3, r3, #4096	; 0x1000
 80006ae:	81a3      	strheq	r3, [r4, #12]
 80006b0:	bf18      	it	ne
 80006b2:	81a3      	strhne	r3, [r4, #12]
 80006b4:	bd10      	pop	{r4, pc}

080006b6 <__sclose>:
 80006b6:	f9b1 100e 	ldrsh.w	r1, [r1, #14]
 80006ba:	f000 b809 	b.w	80006d0 <_close_r>

080006be <memset>:
 80006be:	4402      	add	r2, r0
 80006c0:	4603      	mov	r3, r0
 80006c2:	4293      	cmp	r3, r2
 80006c4:	d100      	bne.n	80006c8 <memset+0xa>
 80006c6:	4770      	bx	lr
 80006c8:	f803 1b01 	strb.w	r1, [r3], #1
 80006cc:	e7f9      	b.n	80006c2 <memset+0x4>
	...

080006d0 <_close_r>:
 80006d0:	b538      	push	{r3, r4, r5, lr}
 80006d2:	4d06      	ldr	r5, [pc, #24]	; (80006ec <_close_r+0x1c>)
 80006d4:	2300      	movs	r3, #0
 80006d6:	4604      	mov	r4, r0
 80006d8:	4608      	mov	r0, r1
 80006da:	602b      	str	r3, [r5, #0]
 80006dc:	f7ff fe43 	bl	8000366 <_close>
 80006e0:	1c43      	adds	r3, r0, #1
 80006e2:	d102      	bne.n	80006ea <_close_r+0x1a>
 80006e4:	682b      	ldr	r3, [r5, #0]
 80006e6:	b103      	cbz	r3, 80006ea <_close_r+0x1a>
 80006e8:	6023      	str	r3, [r4, #0]
 80006ea:	bd38      	pop	{r3, r4, r5, pc}
 80006ec:	200001c4 	andcs	r0, r0, r4, asr #3

080006f0 <_lseek_r>:
 80006f0:	b538      	push	{r3, r4, r5, lr}
 80006f2:	4d07      	ldr	r5, [pc, #28]	; (8000710 <_lseek_r+0x20>)
 80006f4:	4604      	mov	r4, r0
 80006f6:	4608      	mov	r0, r1
 80006f8:	4611      	mov	r1, r2
 80006fa:	2200      	movs	r2, #0
 80006fc:	602a      	str	r2, [r5, #0]
 80006fe:	461a      	mov	r2, r3
 8000700:	f7ff fe58 	bl	80003b4 <_lseek>
 8000704:	1c43      	adds	r3, r0, #1
 8000706:	d102      	bne.n	800070e <_lseek_r+0x1e>
 8000708:	682b      	ldr	r3, [r5, #0]
 800070a:	b103      	cbz	r3, 800070e <_lseek_r+0x1e>
 800070c:	6023      	str	r3, [r4, #0]
 800070e:	bd38      	pop	{r3, r4, r5, pc}
 8000710:	200001c4 	andcs	r0, r0, r4, asr #3

08000714 <_read_r>:
 8000714:	b538      	push	{r3, r4, r5, lr}
 8000716:	4d07      	ldr	r5, [pc, #28]	; (8000734 <_read_r+0x20>)
 8000718:	4604      	mov	r4, r0
 800071a:	4608      	mov	r0, r1
 800071c:	4611      	mov	r1, r2
 800071e:	2200      	movs	r2, #0
 8000720:	602a      	str	r2, [r5, #0]
 8000722:	461a      	mov	r2, r3
 8000724:	f7ff fde6 	bl	80002f4 <_read>
 8000728:	1c43      	adds	r3, r0, #1
 800072a:	d102      	bne.n	8000732 <_read_r+0x1e>
 800072c:	682b      	ldr	r3, [r5, #0]
 800072e:	b103      	cbz	r3, 8000732 <_read_r+0x1e>
 8000730:	6023      	str	r3, [r4, #0]
 8000732:	bd38      	pop	{r3, r4, r5, pc}
 8000734:	200001c4 	andcs	r0, r0, r4, asr #3

08000738 <_write_r>:
 8000738:	b538      	push	{r3, r4, r5, lr}
 800073a:	4d07      	ldr	r5, [pc, #28]	; (8000758 <_write_r+0x20>)
 800073c:	4604      	mov	r4, r0
 800073e:	4608      	mov	r0, r1
 8000740:	4611      	mov	r1, r2
 8000742:	2200      	movs	r2, #0
 8000744:	602a      	str	r2, [r5, #0]
 8000746:	461a      	mov	r2, r3
 8000748:	f7ff fdf1 	bl	800032e <_write>
 800074c:	1c43      	adds	r3, r0, #1
 800074e:	d102      	bne.n	8000756 <_write_r+0x1e>
 8000750:	682b      	ldr	r3, [r5, #0]
 8000752:	b103      	cbz	r3, 8000756 <_write_r+0x1e>
 8000754:	6023      	str	r3, [r4, #0]
 8000756:	bd38      	pop	{r3, r4, r5, pc}
 8000758:	200001c4 	andcs	r0, r0, r4, asr #3

0800075c <__errno>:
 800075c:	4b01      	ldr	r3, [pc, #4]	; (8000764 <__errno+0x8>)
 800075e:	6818      	ldr	r0, [r3, #0]
 8000760:	4770      	bx	lr
 8000762:	bf00      	nop
 8000764:	20000014 	andcs	r0, r0, r4, lsl r0

08000768 <__libc_init_array>:
 8000768:	b570      	push	{r4, r5, r6, lr}
 800076a:	4d0d      	ldr	r5, [pc, #52]	; (80007a0 <__libc_init_array+0x38>)
 800076c:	4c0d      	ldr	r4, [pc, #52]	; (80007a4 <__libc_init_array+0x3c>)
 800076e:	1b64      	subs	r4, r4, r5
 8000770:	10a4      	asrs	r4, r4, #2
 8000772:	2600      	movs	r6, #0
 8000774:	42a6      	cmp	r6, r4
 8000776:	d109      	bne.n	800078c <__libc_init_array+0x24>
 8000778:	4d0b      	ldr	r5, [pc, #44]	; (80007a8 <__libc_init_array+0x40>)
 800077a:	4c0c      	ldr	r4, [pc, #48]	; (80007ac <__libc_init_array+0x44>)
 800077c:	f000 fdb6 	bl	80012ec <_init>
 8000780:	1b64      	subs	r4, r4, r5
 8000782:	10a4      	asrs	r4, r4, #2
 8000784:	2600      	movs	r6, #0
 8000786:	42a6      	cmp	r6, r4
 8000788:	d105      	bne.n	8000796 <__libc_init_array+0x2e>
 800078a:	bd70      	pop	{r4, r5, r6, pc}
 800078c:	f855 3b04 	ldr.w	r3, [r5], #4
 8000790:	4798      	blx	r3
 8000792:	3601      	adds	r6, #1
 8000794:	e7ee      	b.n	8000774 <__libc_init_array+0xc>
 8000796:	f855 3b04 	ldr.w	r3, [r5], #4
 800079a:	4798      	blx	r3
 800079c:	3601      	adds	r6, #1
 800079e:	e7f2      	b.n	8000786 <__libc_init_array+0x1e>
 80007a0:	0800134c 	stmdaeq	r0, {r2, r3, r6, r8, r9, ip}
 80007a4:	0800134c 	stmdaeq	r0, {r2, r3, r6, r8, r9, ip}
 80007a8:	0800134c 	stmdaeq	r0, {r2, r3, r6, r8, r9, ip}
 80007ac:	08001350 	stmdaeq	r0, {r4, r6, r8, r9, ip}

080007b0 <__retarget_lock_init_recursive>:
 80007b0:	4770      	bx	lr

080007b2 <__retarget_lock_acquire_recursive>:
 80007b2:	4770      	bx	lr

080007b4 <__retarget_lock_release_recursive>:
 80007b4:	4770      	bx	lr
	...

080007b8 <_free_r>:
 80007b8:	b538      	push	{r3, r4, r5, lr}
 80007ba:	4605      	mov	r5, r0
 80007bc:	2900      	cmp	r1, #0
 80007be:	d041      	beq.n	8000844 <_free_r+0x8c>
 80007c0:	f851 3c04 	ldr.w	r3, [r1, #-4]
 80007c4:	1f0c      	subs	r4, r1, #4
 80007c6:	2b00      	cmp	r3, #0
 80007c8:	bfb8      	it	lt
 80007ca:	18e4      	addlt	r4, r4, r3
 80007cc:	f000 f8e0 	bl	8000990 <__malloc_lock>
 80007d0:	4a1d      	ldr	r2, [pc, #116]	; (8000848 <_free_r+0x90>)
 80007d2:	6813      	ldr	r3, [r2, #0]
 80007d4:	b933      	cbnz	r3, 80007e4 <_free_r+0x2c>
 80007d6:	6063      	str	r3, [r4, #4]
 80007d8:	6014      	str	r4, [r2, #0]
 80007da:	4628      	mov	r0, r5
 80007dc:	e8bd 4038 	ldmia.w	sp!, {r3, r4, r5, lr}
 80007e0:	f000 b8dc 	b.w	800099c <__malloc_unlock>
 80007e4:	42a3      	cmp	r3, r4
 80007e6:	d908      	bls.n	80007fa <_free_r+0x42>
 80007e8:	6820      	ldr	r0, [r4, #0]
 80007ea:	1821      	adds	r1, r4, r0
 80007ec:	428b      	cmp	r3, r1
 80007ee:	bf01      	itttt	eq
 80007f0:	6819      	ldreq	r1, [r3, #0]
 80007f2:	685b      	ldreq	r3, [r3, #4]
 80007f4:	1809      	addeq	r1, r1, r0
 80007f6:	6021      	streq	r1, [r4, #0]
 80007f8:	e7ed      	b.n	80007d6 <_free_r+0x1e>
 80007fa:	461a      	mov	r2, r3
 80007fc:	685b      	ldr	r3, [r3, #4]
 80007fe:	b10b      	cbz	r3, 8000804 <_free_r+0x4c>
 8000800:	42a3      	cmp	r3, r4
 8000802:	d9fa      	bls.n	80007fa <_free_r+0x42>
 8000804:	6811      	ldr	r1, [r2, #0]
 8000806:	1850      	adds	r0, r2, r1
 8000808:	42a0      	cmp	r0, r4
 800080a:	d10b      	bne.n	8000824 <_free_r+0x6c>
 800080c:	6820      	ldr	r0, [r4, #0]
 800080e:	4401      	add	r1, r0
 8000810:	1850      	adds	r0, r2, r1
 8000812:	4283      	cmp	r3, r0
 8000814:	6011      	str	r1, [r2, #0]
 8000816:	d1e0      	bne.n	80007da <_free_r+0x22>
 8000818:	6818      	ldr	r0, [r3, #0]
 800081a:	685b      	ldr	r3, [r3, #4]
 800081c:	6053      	str	r3, [r2, #4]
 800081e:	4408      	add	r0, r1
 8000820:	6010      	str	r0, [r2, #0]
 8000822:	e7da      	b.n	80007da <_free_r+0x22>
 8000824:	d902      	bls.n	800082c <_free_r+0x74>
 8000826:	230c      	movs	r3, #12
 8000828:	602b      	str	r3, [r5, #0]
 800082a:	e7d6      	b.n	80007da <_free_r+0x22>
 800082c:	6820      	ldr	r0, [r4, #0]
 800082e:	1821      	adds	r1, r4, r0
 8000830:	428b      	cmp	r3, r1
 8000832:	bf04      	itt	eq
 8000834:	6819      	ldreq	r1, [r3, #0]
 8000836:	685b      	ldreq	r3, [r3, #4]
 8000838:	6063      	str	r3, [r4, #4]
 800083a:	bf04      	itt	eq
 800083c:	1809      	addeq	r1, r1, r0
 800083e:	6021      	streq	r1, [r4, #0]
 8000840:	6054      	str	r4, [r2, #4]
 8000842:	e7ca      	b.n	80007da <_free_r+0x22>
 8000844:	bd38      	pop	{r3, r4, r5, pc}
 8000846:	bf00      	nop
 8000848:	200001d0 	ldrdcs	r0, [r0], -r0	; <UNPREDICTABLE>

0800084c <sbrk_aligned>:
 800084c:	b570      	push	{r4, r5, r6, lr}
 800084e:	4e0f      	ldr	r6, [pc, #60]	; (800088c <sbrk_aligned+0x40>)
 8000850:	460c      	mov	r4, r1
 8000852:	6831      	ldr	r1, [r6, #0]
 8000854:	4605      	mov	r5, r0
 8000856:	b911      	cbnz	r1, 800085e <sbrk_aligned+0x12>
 8000858:	f000 fcb4 	bl	80011c4 <_sbrk_r>
 800085c:	6030      	str	r0, [r6, #0]
 800085e:	4621      	mov	r1, r4
 8000860:	4628      	mov	r0, r5
 8000862:	f000 fcaf 	bl	80011c4 <_sbrk_r>
 8000866:	1c43      	adds	r3, r0, #1
 8000868:	d103      	bne.n	8000872 <sbrk_aligned+0x26>
 800086a:	f04f 34ff 	mov.w	r4, #4294967295	; 0xffffffff
 800086e:	4620      	mov	r0, r4
 8000870:	bd70      	pop	{r4, r5, r6, pc}
 8000872:	1cc4      	adds	r4, r0, #3
 8000874:	f024 0403 	bic.w	r4, r4, #3
 8000878:	42a0      	cmp	r0, r4
 800087a:	d0f8      	beq.n	800086e <sbrk_aligned+0x22>
 800087c:	1a21      	subs	r1, r4, r0
 800087e:	4628      	mov	r0, r5
 8000880:	f000 fca0 	bl	80011c4 <_sbrk_r>
 8000884:	3001      	adds	r0, #1
 8000886:	d1f2      	bne.n	800086e <sbrk_aligned+0x22>
 8000888:	e7ef      	b.n	800086a <sbrk_aligned+0x1e>
 800088a:	bf00      	nop
 800088c:	200001cc 	andcs	r0, r0, ip, asr #3

08000890 <_malloc_r>:
 8000890:	e92d 43f8 	stmdb	sp!, {r3, r4, r5, r6, r7, r8, r9, lr}
 8000894:	1ccd      	adds	r5, r1, #3
 8000896:	f025 0503 	bic.w	r5, r5, #3
 800089a:	3508      	adds	r5, #8
 800089c:	2d0c      	cmp	r5, #12
 800089e:	bf38      	it	cc
 80008a0:	250c      	movcc	r5, #12
 80008a2:	2d00      	cmp	r5, #0
 80008a4:	4606      	mov	r6, r0
 80008a6:	db01      	blt.n	80008ac <_malloc_r+0x1c>
 80008a8:	42a9      	cmp	r1, r5
 80008aa:	d904      	bls.n	80008b6 <_malloc_r+0x26>
 80008ac:	230c      	movs	r3, #12
 80008ae:	6033      	str	r3, [r6, #0]
 80008b0:	2000      	movs	r0, #0
 80008b2:	e8bd 83f8 	ldmia.w	sp!, {r3, r4, r5, r6, r7, r8, r9, pc}
 80008b6:	f8df 80d4 	ldr.w	r8, [pc, #212]	; 800098c <_malloc_r+0xfc>
 80008ba:	f000 f869 	bl	8000990 <__malloc_lock>
 80008be:	f8d8 3000 	ldr.w	r3, [r8]
 80008c2:	461c      	mov	r4, r3
 80008c4:	bb44      	cbnz	r4, 8000918 <_malloc_r+0x88>
 80008c6:	4629      	mov	r1, r5
 80008c8:	4630      	mov	r0, r6
 80008ca:	f7ff ffbf 	bl	800084c <sbrk_aligned>
 80008ce:	1c43      	adds	r3, r0, #1
 80008d0:	4604      	mov	r4, r0
 80008d2:	d158      	bne.n	8000986 <_malloc_r+0xf6>
 80008d4:	f8d8 4000 	ldr.w	r4, [r8]
 80008d8:	4627      	mov	r7, r4
 80008da:	2f00      	cmp	r7, #0
 80008dc:	d143      	bne.n	8000966 <_malloc_r+0xd6>
 80008de:	2c00      	cmp	r4, #0
 80008e0:	d04b      	beq.n	800097a <_malloc_r+0xea>
 80008e2:	6823      	ldr	r3, [r4, #0]
 80008e4:	4639      	mov	r1, r7
 80008e6:	4630      	mov	r0, r6
 80008e8:	eb04 0903 	add.w	r9, r4, r3
 80008ec:	f000 fc6a 	bl	80011c4 <_sbrk_r>
 80008f0:	4581      	cmp	r9, r0
 80008f2:	d142      	bne.n	800097a <_malloc_r+0xea>
 80008f4:	6821      	ldr	r1, [r4, #0]
 80008f6:	1a6d      	subs	r5, r5, r1
 80008f8:	4629      	mov	r1, r5
 80008fa:	4630      	mov	r0, r6
 80008fc:	f7ff ffa6 	bl	800084c <sbrk_aligned>
 8000900:	3001      	adds	r0, #1
 8000902:	d03a      	beq.n	800097a <_malloc_r+0xea>
 8000904:	6823      	ldr	r3, [r4, #0]
 8000906:	442b      	add	r3, r5
 8000908:	6023      	str	r3, [r4, #0]
 800090a:	f8d8 3000 	ldr.w	r3, [r8]
 800090e:	685a      	ldr	r2, [r3, #4]
 8000910:	bb62      	cbnz	r2, 800096c <_malloc_r+0xdc>
 8000912:	f8c8 7000 	str.w	r7, [r8]
 8000916:	e00f      	b.n	8000938 <_malloc_r+0xa8>
 8000918:	6822      	ldr	r2, [r4, #0]
 800091a:	1b52      	subs	r2, r2, r5
 800091c:	d420      	bmi.n	8000960 <_malloc_r+0xd0>
 800091e:	2a0b      	cmp	r2, #11
 8000920:	d917      	bls.n	8000952 <_malloc_r+0xc2>
 8000922:	1961      	adds	r1, r4, r5
 8000924:	42a3      	cmp	r3, r4
 8000926:	6025      	str	r5, [r4, #0]
 8000928:	bf18      	it	ne
 800092a:	6059      	strne	r1, [r3, #4]
 800092c:	6863      	ldr	r3, [r4, #4]
 800092e:	bf08      	it	eq
 8000930:	f8c8 1000 	streq.w	r1, [r8]
 8000934:	5162      	str	r2, [r4, r5]
 8000936:	604b      	str	r3, [r1, #4]
 8000938:	4630      	mov	r0, r6
 800093a:	f000 f82f 	bl	800099c <__malloc_unlock>
 800093e:	f104 000b 	add.w	r0, r4, #11
 8000942:	1d23      	adds	r3, r4, #4
 8000944:	f020 0007 	bic.w	r0, r0, #7
 8000948:	1ac2      	subs	r2, r0, r3
 800094a:	bf1c      	itt	ne
 800094c:	1a1b      	subne	r3, r3, r0
 800094e:	50a3      	strne	r3, [r4, r2]
 8000950:	e7af      	b.n	80008b2 <_malloc_r+0x22>
 8000952:	6862      	ldr	r2, [r4, #4]
 8000954:	42a3      	cmp	r3, r4
 8000956:	bf0c      	ite	eq
 8000958:	f8c8 2000 	streq.w	r2, [r8]
 800095c:	605a      	strne	r2, [r3, #4]
 800095e:	e7eb      	b.n	8000938 <_malloc_r+0xa8>
 8000960:	4623      	mov	r3, r4
 8000962:	6864      	ldr	r4, [r4, #4]
 8000964:	e7ae      	b.n	80008c4 <_malloc_r+0x34>
 8000966:	463c      	mov	r4, r7
 8000968:	687f      	ldr	r7, [r7, #4]
 800096a:	e7b6      	b.n	80008da <_malloc_r+0x4a>
 800096c:	461a      	mov	r2, r3
 800096e:	685b      	ldr	r3, [r3, #4]
 8000970:	42a3      	cmp	r3, r4
 8000972:	d1fb      	bne.n	800096c <_malloc_r+0xdc>
 8000974:	2300      	movs	r3, #0
 8000976:	6053      	str	r3, [r2, #4]
 8000978:	e7de      	b.n	8000938 <_malloc_r+0xa8>
 800097a:	230c      	movs	r3, #12
 800097c:	6033      	str	r3, [r6, #0]
 800097e:	4630      	mov	r0, r6
 8000980:	f000 f80c 	bl	800099c <__malloc_unlock>
 8000984:	e794      	b.n	80008b0 <_malloc_r+0x20>
 8000986:	6005      	str	r5, [r0, #0]
 8000988:	e7d6      	b.n	8000938 <_malloc_r+0xa8>
 800098a:	bf00      	nop
 800098c:	200001d0 	ldrdcs	r0, [r0], -r0	; <UNPREDICTABLE>

08000990 <__malloc_lock>:
 8000990:	4801      	ldr	r0, [pc, #4]	; (8000998 <__malloc_lock+0x8>)
 8000992:	f7ff bf0e 	b.w	80007b2 <__retarget_lock_acquire_recursive>
 8000996:	bf00      	nop
 8000998:	200001c8 	andcs	r0, r0, r8, asr #3

0800099c <__malloc_unlock>:
 800099c:	4801      	ldr	r0, [pc, #4]	; (80009a4 <__malloc_unlock+0x8>)
 800099e:	f7ff bf09 	b.w	80007b4 <__retarget_lock_release_recursive>
 80009a2:	bf00      	nop
 80009a4:	200001c8 	andcs	r0, r0, r8, asr #3

080009a8 <__sfputc_r>:
 80009a8:	6893      	ldr	r3, [r2, #8]
 80009aa:	3b01      	subs	r3, #1
 80009ac:	2b00      	cmp	r3, #0
 80009ae:	b410      	push	{r4}
 80009b0:	6093      	str	r3, [r2, #8]
 80009b2:	da08      	bge.n	80009c6 <__sfputc_r+0x1e>
 80009b4:	6994      	ldr	r4, [r2, #24]
 80009b6:	42a3      	cmp	r3, r4
 80009b8:	db01      	blt.n	80009be <__sfputc_r+0x16>
 80009ba:	290a      	cmp	r1, #10
 80009bc:	d103      	bne.n	80009c6 <__sfputc_r+0x1e>
 80009be:	f85d 4b04 	ldr.w	r4, [sp], #4
 80009c2:	f000 bb6b 	b.w	800109c <__swbuf_r>
 80009c6:	6813      	ldr	r3, [r2, #0]
 80009c8:	1c58      	adds	r0, r3, #1
 80009ca:	6010      	str	r0, [r2, #0]
 80009cc:	7019      	strb	r1, [r3, #0]
 80009ce:	4608      	mov	r0, r1
 80009d0:	f85d 4b04 	ldr.w	r4, [sp], #4
 80009d4:	4770      	bx	lr

080009d6 <__sfputs_r>:
 80009d6:	b5f8      	push	{r3, r4, r5, r6, r7, lr}
 80009d8:	4606      	mov	r6, r0
 80009da:	460f      	mov	r7, r1
 80009dc:	4614      	mov	r4, r2
 80009de:	18d5      	adds	r5, r2, r3
 80009e0:	42ac      	cmp	r4, r5
 80009e2:	d101      	bne.n	80009e8 <__sfputs_r+0x12>
 80009e4:	2000      	movs	r0, #0
 80009e6:	e007      	b.n	80009f8 <__sfputs_r+0x22>
 80009e8:	f814 1b01 	ldrb.w	r1, [r4], #1
 80009ec:	463a      	mov	r2, r7
 80009ee:	4630      	mov	r0, r6
 80009f0:	f7ff ffda 	bl	80009a8 <__sfputc_r>
 80009f4:	1c43      	adds	r3, r0, #1
 80009f6:	d1f3      	bne.n	80009e0 <__sfputs_r+0xa>
 80009f8:	bdf8      	pop	{r3, r4, r5, r6, r7, pc}
	...

080009fc <_vfiprintf_r>:
 80009fc:	e92d 4ff0 	stmdb	sp!, {r4, r5, r6, r7, r8, r9, sl, fp, lr}
 8000a00:	460d      	mov	r5, r1
 8000a02:	b09d      	sub	sp, #116	; 0x74
 8000a04:	4614      	mov	r4, r2
 8000a06:	4698      	mov	r8, r3
 8000a08:	4606      	mov	r6, r0
 8000a0a:	b118      	cbz	r0, 8000a14 <_vfiprintf_r+0x18>
 8000a0c:	6a03      	ldr	r3, [r0, #32]
 8000a0e:	b90b      	cbnz	r3, 8000a14 <_vfiprintf_r+0x18>
 8000a10:	f7ff fdca 	bl	80005a8 <__sinit>
 8000a14:	6e6b      	ldr	r3, [r5, #100]	; 0x64
 8000a16:	07d9      	lsls	r1, r3, #31
 8000a18:	d405      	bmi.n	8000a26 <_vfiprintf_r+0x2a>
 8000a1a:	89ab      	ldrh	r3, [r5, #12]
 8000a1c:	059a      	lsls	r2, r3, #22
 8000a1e:	d402      	bmi.n	8000a26 <_vfiprintf_r+0x2a>
 8000a20:	6da8      	ldr	r0, [r5, #88]	; 0x58
 8000a22:	f7ff fec6 	bl	80007b2 <__retarget_lock_acquire_recursive>
 8000a26:	89ab      	ldrh	r3, [r5, #12]
 8000a28:	071b      	lsls	r3, r3, #28
 8000a2a:	d501      	bpl.n	8000a30 <_vfiprintf_r+0x34>
 8000a2c:	692b      	ldr	r3, [r5, #16]
 8000a2e:	b99b      	cbnz	r3, 8000a58 <_vfiprintf_r+0x5c>
 8000a30:	4629      	mov	r1, r5
 8000a32:	4630      	mov	r0, r6
 8000a34:	f000 fb70 	bl	8001118 <__swsetup_r>
 8000a38:	b170      	cbz	r0, 8000a58 <_vfiprintf_r+0x5c>
 8000a3a:	6e6b      	ldr	r3, [r5, #100]	; 0x64
 8000a3c:	07dc      	lsls	r4, r3, #31
 8000a3e:	d504      	bpl.n	8000a4a <_vfiprintf_r+0x4e>
 8000a40:	f04f 30ff 	mov.w	r0, #4294967295	; 0xffffffff
 8000a44:	b01d      	add	sp, #116	; 0x74
 8000a46:	e8bd 8ff0 	ldmia.w	sp!, {r4, r5, r6, r7, r8, r9, sl, fp, pc}
 8000a4a:	89ab      	ldrh	r3, [r5, #12]
 8000a4c:	0598      	lsls	r0, r3, #22
 8000a4e:	d4f7      	bmi.n	8000a40 <_vfiprintf_r+0x44>
 8000a50:	6da8      	ldr	r0, [r5, #88]	; 0x58
 8000a52:	f7ff feaf 	bl	80007b4 <__retarget_lock_release_recursive>
 8000a56:	e7f3      	b.n	8000a40 <_vfiprintf_r+0x44>
 8000a58:	2300      	movs	r3, #0
 8000a5a:	9309      	str	r3, [sp, #36]	; 0x24
 8000a5c:	2320      	movs	r3, #32
 8000a5e:	f88d 3029 	strb.w	r3, [sp, #41]	; 0x29
 8000a62:	f8cd 800c 	str.w	r8, [sp, #12]
 8000a66:	2330      	movs	r3, #48	; 0x30
 8000a68:	f8df 81ac 	ldr.w	r8, [pc, #428]	; 8000c18 <_vfiprintf_r+0x21c>
 8000a6c:	f88d 302a 	strb.w	r3, [sp, #42]	; 0x2a
 8000a70:	f04f 0901 	mov.w	r9, #1
 8000a74:	4623      	mov	r3, r4
 8000a76:	469a      	mov	sl, r3
 8000a78:	f813 2b01 	ldrb.w	r2, [r3], #1
 8000a7c:	b10a      	cbz	r2, 8000a82 <_vfiprintf_r+0x86>
 8000a7e:	2a25      	cmp	r2, #37	; 0x25
 8000a80:	d1f9      	bne.n	8000a76 <_vfiprintf_r+0x7a>
 8000a82:	ebba 0b04 	subs.w	fp, sl, r4
 8000a86:	d00b      	beq.n	8000aa0 <_vfiprintf_r+0xa4>
 8000a88:	465b      	mov	r3, fp
 8000a8a:	4622      	mov	r2, r4
 8000a8c:	4629      	mov	r1, r5
 8000a8e:	4630      	mov	r0, r6
 8000a90:	f7ff ffa1 	bl	80009d6 <__sfputs_r>
 8000a94:	3001      	adds	r0, #1
 8000a96:	f000 80a7 	beq.w	8000be8 <_vfiprintf_r+0x1ec>
 8000a9a:	9a09      	ldr	r2, [sp, #36]	; 0x24
 8000a9c:	445a      	add	r2, fp
 8000a9e:	9209      	str	r2, [sp, #36]	; 0x24
 8000aa0:	f89a 3000 	ldrb.w	r3, [sl]
 8000aa4:	2b00      	cmp	r3, #0
 8000aa6:	f000 809f 	beq.w	8000be8 <_vfiprintf_r+0x1ec>
 8000aaa:	2300      	movs	r3, #0
 8000aac:	f04f 32ff 	mov.w	r2, #4294967295	; 0xffffffff
 8000ab0:	e9cd 2305 	strd	r2, r3, [sp, #20]
 8000ab4:	f10a 0a01 	add.w	sl, sl, #1
 8000ab8:	9304      	str	r3, [sp, #16]
 8000aba:	9307      	str	r3, [sp, #28]
 8000abc:	f88d 3053 	strb.w	r3, [sp, #83]	; 0x53
 8000ac0:	931a      	str	r3, [sp, #104]	; 0x68
 8000ac2:	4654      	mov	r4, sl
 8000ac4:	2205      	movs	r2, #5
 8000ac6:	f814 1b01 	ldrb.w	r1, [r4], #1
 8000aca:	4853      	ldr	r0, [pc, #332]	; (8000c18 <_vfiprintf_r+0x21c>)
 8000acc:	f7ff fb80 	bl	80001d0 <memchr>
 8000ad0:	9a04      	ldr	r2, [sp, #16]
 8000ad2:	b9d8      	cbnz	r0, 8000b0c <_vfiprintf_r+0x110>
 8000ad4:	06d1      	lsls	r1, r2, #27
 8000ad6:	bf44      	itt	mi
 8000ad8:	2320      	movmi	r3, #32
 8000ada:	f88d 3053 	strbmi.w	r3, [sp, #83]	; 0x53
 8000ade:	0713      	lsls	r3, r2, #28
 8000ae0:	bf44      	itt	mi
 8000ae2:	232b      	movmi	r3, #43	; 0x2b
 8000ae4:	f88d 3053 	strbmi.w	r3, [sp, #83]	; 0x53
 8000ae8:	f89a 3000 	ldrb.w	r3, [sl]
 8000aec:	2b2a      	cmp	r3, #42	; 0x2a
 8000aee:	d015      	beq.n	8000b1c <_vfiprintf_r+0x120>
 8000af0:	9a07      	ldr	r2, [sp, #28]
 8000af2:	4654      	mov	r4, sl
 8000af4:	2000      	movs	r0, #0
 8000af6:	f04f 0c0a 	mov.w	ip, #10
 8000afa:	4621      	mov	r1, r4
 8000afc:	f811 3b01 	ldrb.w	r3, [r1], #1
 8000b00:	3b30      	subs	r3, #48	; 0x30
 8000b02:	2b09      	cmp	r3, #9
 8000b04:	d94b      	bls.n	8000b9e <_vfiprintf_r+0x1a2>
 8000b06:	b1b0      	cbz	r0, 8000b36 <_vfiprintf_r+0x13a>
 8000b08:	9207      	str	r2, [sp, #28]
 8000b0a:	e014      	b.n	8000b36 <_vfiprintf_r+0x13a>
 8000b0c:	eba0 0308 	sub.w	r3, r0, r8
 8000b10:	fa09 f303 	lsl.w	r3, r9, r3
 8000b14:	4313      	orrs	r3, r2
 8000b16:	9304      	str	r3, [sp, #16]
 8000b18:	46a2      	mov	sl, r4
 8000b1a:	e7d2      	b.n	8000ac2 <_vfiprintf_r+0xc6>
 8000b1c:	9b03      	ldr	r3, [sp, #12]
 8000b1e:	1d19      	adds	r1, r3, #4
 8000b20:	681b      	ldr	r3, [r3, #0]
 8000b22:	9103      	str	r1, [sp, #12]
 8000b24:	2b00      	cmp	r3, #0
 8000b26:	bfbb      	ittet	lt
 8000b28:	425b      	neglt	r3, r3
 8000b2a:	f042 0202 	orrlt.w	r2, r2, #2
 8000b2e:	9307      	strge	r3, [sp, #28]
 8000b30:	9307      	strlt	r3, [sp, #28]
 8000b32:	bfb8      	it	lt
 8000b34:	9204      	strlt	r2, [sp, #16]
 8000b36:	7823      	ldrb	r3, [r4, #0]
 8000b38:	2b2e      	cmp	r3, #46	; 0x2e
 8000b3a:	d10a      	bne.n	8000b52 <_vfiprintf_r+0x156>
 8000b3c:	7863      	ldrb	r3, [r4, #1]
 8000b3e:	2b2a      	cmp	r3, #42	; 0x2a
 8000b40:	d132      	bne.n	8000ba8 <_vfiprintf_r+0x1ac>
 8000b42:	9b03      	ldr	r3, [sp, #12]
 8000b44:	1d1a      	adds	r2, r3, #4
 8000b46:	681b      	ldr	r3, [r3, #0]
 8000b48:	9203      	str	r2, [sp, #12]
 8000b4a:	ea43 73e3 	orr.w	r3, r3, r3, asr #31
 8000b4e:	3402      	adds	r4, #2
 8000b50:	9305      	str	r3, [sp, #20]
 8000b52:	f8df a0d4 	ldr.w	sl, [pc, #212]	; 8000c28 <_vfiprintf_r+0x22c>
 8000b56:	7821      	ldrb	r1, [r4, #0]
 8000b58:	2203      	movs	r2, #3
 8000b5a:	4650      	mov	r0, sl
 8000b5c:	f7ff fb38 	bl	80001d0 <memchr>
 8000b60:	b138      	cbz	r0, 8000b72 <_vfiprintf_r+0x176>
 8000b62:	9b04      	ldr	r3, [sp, #16]
 8000b64:	eba0 000a 	sub.w	r0, r0, sl
 8000b68:	2240      	movs	r2, #64	; 0x40
 8000b6a:	4082      	lsls	r2, r0
 8000b6c:	4313      	orrs	r3, r2
 8000b6e:	3401      	adds	r4, #1
 8000b70:	9304      	str	r3, [sp, #16]
 8000b72:	f814 1b01 	ldrb.w	r1, [r4], #1
 8000b76:	4829      	ldr	r0, [pc, #164]	; (8000c1c <_vfiprintf_r+0x220>)
 8000b78:	f88d 1028 	strb.w	r1, [sp, #40]	; 0x28
 8000b7c:	2206      	movs	r2, #6
 8000b7e:	f7ff fb27 	bl	80001d0 <memchr>
 8000b82:	2800      	cmp	r0, #0
 8000b84:	d03f      	beq.n	8000c06 <_vfiprintf_r+0x20a>
 8000b86:	4b26      	ldr	r3, [pc, #152]	; (8000c20 <_vfiprintf_r+0x224>)
 8000b88:	bb1b      	cbnz	r3, 8000bd2 <_vfiprintf_r+0x1d6>
 8000b8a:	9b03      	ldr	r3, [sp, #12]
 8000b8c:	3307      	adds	r3, #7
 8000b8e:	f023 0307 	bic.w	r3, r3, #7
 8000b92:	3308      	adds	r3, #8
 8000b94:	9303      	str	r3, [sp, #12]
 8000b96:	9b09      	ldr	r3, [sp, #36]	; 0x24
 8000b98:	443b      	add	r3, r7
 8000b9a:	9309      	str	r3, [sp, #36]	; 0x24
 8000b9c:	e76a      	b.n	8000a74 <_vfiprintf_r+0x78>
 8000b9e:	fb0c 3202 	mla	r2, ip, r2, r3
 8000ba2:	460c      	mov	r4, r1
 8000ba4:	2001      	movs	r0, #1
 8000ba6:	e7a8      	b.n	8000afa <_vfiprintf_r+0xfe>
 8000ba8:	2300      	movs	r3, #0
 8000baa:	3401      	adds	r4, #1
 8000bac:	9305      	str	r3, [sp, #20]
 8000bae:	4619      	mov	r1, r3
 8000bb0:	f04f 0c0a 	mov.w	ip, #10
 8000bb4:	4620      	mov	r0, r4
 8000bb6:	f810 2b01 	ldrb.w	r2, [r0], #1
 8000bba:	3a30      	subs	r2, #48	; 0x30
 8000bbc:	2a09      	cmp	r2, #9
 8000bbe:	d903      	bls.n	8000bc8 <_vfiprintf_r+0x1cc>
 8000bc0:	2b00      	cmp	r3, #0
 8000bc2:	d0c6      	beq.n	8000b52 <_vfiprintf_r+0x156>
 8000bc4:	9105      	str	r1, [sp, #20]
 8000bc6:	e7c4      	b.n	8000b52 <_vfiprintf_r+0x156>
 8000bc8:	fb0c 2101 	mla	r1, ip, r1, r2
 8000bcc:	4604      	mov	r4, r0
 8000bce:	2301      	movs	r3, #1
 8000bd0:	e7f0      	b.n	8000bb4 <_vfiprintf_r+0x1b8>
 8000bd2:	ab03      	add	r3, sp, #12
 8000bd4:	9300      	str	r3, [sp, #0]
 8000bd6:	462a      	mov	r2, r5
 8000bd8:	4b12      	ldr	r3, [pc, #72]	; (8000c24 <_vfiprintf_r+0x228>)
 8000bda:	a904      	add	r1, sp, #16
 8000bdc:	4630      	mov	r0, r6
 8000bde:	f3af 8000 	nop.w
 8000be2:	4607      	mov	r7, r0
 8000be4:	1c78      	adds	r0, r7, #1
 8000be6:	d1d6      	bne.n	8000b96 <_vfiprintf_r+0x19a>
 8000be8:	6e6b      	ldr	r3, [r5, #100]	; 0x64
 8000bea:	07d9      	lsls	r1, r3, #31
 8000bec:	d405      	bmi.n	8000bfa <_vfiprintf_r+0x1fe>
 8000bee:	89ab      	ldrh	r3, [r5, #12]
 8000bf0:	059a      	lsls	r2, r3, #22
 8000bf2:	d402      	bmi.n	8000bfa <_vfiprintf_r+0x1fe>
 8000bf4:	6da8      	ldr	r0, [r5, #88]	; 0x58
 8000bf6:	f7ff fddd 	bl	80007b4 <__retarget_lock_release_recursive>
 8000bfa:	89ab      	ldrh	r3, [r5, #12]
 8000bfc:	065b      	lsls	r3, r3, #25
 8000bfe:	f53f af1f 	bmi.w	8000a40 <_vfiprintf_r+0x44>
 8000c02:	9809      	ldr	r0, [sp, #36]	; 0x24
 8000c04:	e71e      	b.n	8000a44 <_vfiprintf_r+0x48>
 8000c06:	ab03      	add	r3, sp, #12
 8000c08:	9300      	str	r3, [sp, #0]
 8000c0a:	462a      	mov	r2, r5
 8000c0c:	4b05      	ldr	r3, [pc, #20]	; (8000c24 <_vfiprintf_r+0x228>)
 8000c0e:	a904      	add	r1, sp, #16
 8000c10:	4630      	mov	r0, r6
 8000c12:	f000 f879 	bl	8000d08 <_printf_i>
 8000c16:	e7e4      	b.n	8000be2 <_vfiprintf_r+0x1e6>
 8000c18:	08001311 	stmdaeq	r0, {r0, r4, r8, r9, ip}
 8000c1c:	0800131b 	stmdaeq	r0, {r0, r1, r3, r4, r8, r9, ip}
 8000c20:	00000000 	andeq	r0, r0, r0
 8000c24:	080009d7 	stmdaeq	r0, {r0, r1, r2, r4, r6, r7, r8, fp}
 8000c28:	08001317 	stmdaeq	r0, {r0, r1, r2, r4, r8, r9, ip}

08000c2c <_printf_common>:
 8000c2c:	e92d 47f0 	stmdb	sp!, {r4, r5, r6, r7, r8, r9, sl, lr}
 8000c30:	4616      	mov	r6, r2
 8000c32:	4698      	mov	r8, r3
 8000c34:	688a      	ldr	r2, [r1, #8]
 8000c36:	690b      	ldr	r3, [r1, #16]
 8000c38:	f8dd 9020 	ldr.w	r9, [sp, #32]
 8000c3c:	4293      	cmp	r3, r2
 8000c3e:	bfb8      	it	lt
 8000c40:	4613      	movlt	r3, r2
 8000c42:	6033      	str	r3, [r6, #0]
 8000c44:	f891 2043 	ldrb.w	r2, [r1, #67]	; 0x43
 8000c48:	4607      	mov	r7, r0
 8000c4a:	460c      	mov	r4, r1
 8000c4c:	b10a      	cbz	r2, 8000c52 <_printf_common+0x26>
 8000c4e:	3301      	adds	r3, #1
 8000c50:	6033      	str	r3, [r6, #0]
 8000c52:	6823      	ldr	r3, [r4, #0]
 8000c54:	0699      	lsls	r1, r3, #26
 8000c56:	bf42      	ittt	mi
 8000c58:	6833      	ldrmi	r3, [r6, #0]
 8000c5a:	3302      	addmi	r3, #2
 8000c5c:	6033      	strmi	r3, [r6, #0]
 8000c5e:	6825      	ldr	r5, [r4, #0]
 8000c60:	f015 0506 	ands.w	r5, r5, #6
 8000c64:	d106      	bne.n	8000c74 <_printf_common+0x48>
 8000c66:	f104 0a19 	add.w	sl, r4, #25
 8000c6a:	68e3      	ldr	r3, [r4, #12]
 8000c6c:	6832      	ldr	r2, [r6, #0]
 8000c6e:	1a9b      	subs	r3, r3, r2
 8000c70:	42ab      	cmp	r3, r5
 8000c72:	dc26      	bgt.n	8000cc2 <_printf_common+0x96>
 8000c74:	f894 3043 	ldrb.w	r3, [r4, #67]	; 0x43
 8000c78:	6822      	ldr	r2, [r4, #0]
 8000c7a:	3b00      	subs	r3, #0
 8000c7c:	bf18      	it	ne
 8000c7e:	2301      	movne	r3, #1
 8000c80:	0692      	lsls	r2, r2, #26
 8000c82:	d42b      	bmi.n	8000cdc <_printf_common+0xb0>
 8000c84:	f104 0243 	add.w	r2, r4, #67	; 0x43
 8000c88:	4641      	mov	r1, r8
 8000c8a:	4638      	mov	r0, r7
 8000c8c:	47c8      	blx	r9
 8000c8e:	3001      	adds	r0, #1
 8000c90:	d01e      	beq.n	8000cd0 <_printf_common+0xa4>
 8000c92:	6823      	ldr	r3, [r4, #0]
 8000c94:	6922      	ldr	r2, [r4, #16]
 8000c96:	f003 0306 	and.w	r3, r3, #6
 8000c9a:	2b04      	cmp	r3, #4
 8000c9c:	bf02      	ittt	eq
 8000c9e:	68e5      	ldreq	r5, [r4, #12]
 8000ca0:	6833      	ldreq	r3, [r6, #0]
 8000ca2:	1aed      	subeq	r5, r5, r3
 8000ca4:	68a3      	ldr	r3, [r4, #8]
 8000ca6:	bf0c      	ite	eq
 8000ca8:	ea25 75e5 	biceq.w	r5, r5, r5, asr #31
 8000cac:	2500      	movne	r5, #0
 8000cae:	4293      	cmp	r3, r2
 8000cb0:	bfc4      	itt	gt
 8000cb2:	1a9b      	subgt	r3, r3, r2
 8000cb4:	18ed      	addgt	r5, r5, r3
 8000cb6:	2600      	movs	r6, #0
 8000cb8:	341a      	adds	r4, #26
 8000cba:	42b5      	cmp	r5, r6
 8000cbc:	d11a      	bne.n	8000cf4 <_printf_common+0xc8>
 8000cbe:	2000      	movs	r0, #0
 8000cc0:	e008      	b.n	8000cd4 <_printf_common+0xa8>
 8000cc2:	2301      	movs	r3, #1
 8000cc4:	4652      	mov	r2, sl
 8000cc6:	4641      	mov	r1, r8
 8000cc8:	4638      	mov	r0, r7
 8000cca:	47c8      	blx	r9
 8000ccc:	3001      	adds	r0, #1
 8000cce:	d103      	bne.n	8000cd8 <_printf_common+0xac>
 8000cd0:	f04f 30ff 	mov.w	r0, #4294967295	; 0xffffffff
 8000cd4:	e8bd 87f0 	ldmia.w	sp!, {r4, r5, r6, r7, r8, r9, sl, pc}
 8000cd8:	3501      	adds	r5, #1
 8000cda:	e7c6      	b.n	8000c6a <_printf_common+0x3e>
 8000cdc:	18e1      	adds	r1, r4, r3
 8000cde:	1c5a      	adds	r2, r3, #1
 8000ce0:	2030      	movs	r0, #48	; 0x30
 8000ce2:	f881 0043 	strb.w	r0, [r1, #67]	; 0x43
 8000ce6:	4422      	add	r2, r4
 8000ce8:	f894 1045 	ldrb.w	r1, [r4, #69]	; 0x45
 8000cec:	f882 1043 	strb.w	r1, [r2, #67]	; 0x43
 8000cf0:	3302      	adds	r3, #2
 8000cf2:	e7c7      	b.n	8000c84 <_printf_common+0x58>
 8000cf4:	2301      	movs	r3, #1
 8000cf6:	4622      	mov	r2, r4
 8000cf8:	4641      	mov	r1, r8
 8000cfa:	4638      	mov	r0, r7
 8000cfc:	47c8      	blx	r9
 8000cfe:	3001      	adds	r0, #1
 8000d00:	d0e6      	beq.n	8000cd0 <_printf_common+0xa4>
 8000d02:	3601      	adds	r6, #1
 8000d04:	e7d9      	b.n	8000cba <_printf_common+0x8e>
	...

08000d08 <_printf_i>:
 8000d08:	e92d 47ff 	stmdb	sp!, {r0, r1, r2, r3, r4, r5, r6, r7, r8, r9, sl, lr}
 8000d0c:	7e0f      	ldrb	r7, [r1, #24]
 8000d0e:	9e0c      	ldr	r6, [sp, #48]	; 0x30
 8000d10:	2f78      	cmp	r7, #120	; 0x78
 8000d12:	4691      	mov	r9, r2
 8000d14:	4680      	mov	r8, r0
 8000d16:	460c      	mov	r4, r1
 8000d18:	469a      	mov	sl, r3
 8000d1a:	f101 0243 	add.w	r2, r1, #67	; 0x43
 8000d1e:	d807      	bhi.n	8000d30 <_printf_i+0x28>
 8000d20:	2f62      	cmp	r7, #98	; 0x62
 8000d22:	d80a      	bhi.n	8000d3a <_printf_i+0x32>
 8000d24:	2f00      	cmp	r7, #0
 8000d26:	f000 80d1 	beq.w	8000ecc <_printf_i+0x1c4>
 8000d2a:	2f58      	cmp	r7, #88	; 0x58
 8000d2c:	f000 80b8 	beq.w	8000ea0 <_printf_i+0x198>
 8000d30:	f104 0642 	add.w	r6, r4, #66	; 0x42
 8000d34:	f884 7042 	strb.w	r7, [r4, #66]	; 0x42
 8000d38:	e03a      	b.n	8000db0 <_printf_i+0xa8>
 8000d3a:	f1a7 0363 	sub.w	r3, r7, #99	; 0x63
 8000d3e:	2b15      	cmp	r3, #21
 8000d40:	d8f6      	bhi.n	8000d30 <_printf_i+0x28>
 8000d42:	a101      	add	r1, pc, #4	; (adr r1, 8000d48 <_printf_i+0x40>)
 8000d44:	f851 f023 	ldr.w	pc, [r1, r3, lsl #2]
 8000d48:	08000da1 	stmdaeq	r0, {r0, r5, r7, r8, sl, fp}
 8000d4c:	08000db5 	stmdaeq	r0, {r0, r2, r4, r5, r7, r8, sl, fp}
 8000d50:	08000d31 	stmdaeq	r0, {r0, r4, r5, r8, sl, fp}
 8000d54:	08000d31 	stmdaeq	r0, {r0, r4, r5, r8, sl, fp}
 8000d58:	08000d31 	stmdaeq	r0, {r0, r4, r5, r8, sl, fp}
 8000d5c:	08000d31 	stmdaeq	r0, {r0, r4, r5, r8, sl, fp}
 8000d60:	08000db5 	stmdaeq	r0, {r0, r2, r4, r5, r7, r8, sl, fp}
 8000d64:	08000d31 	stmdaeq	r0, {r0, r4, r5, r8, sl, fp}
 8000d68:	08000d31 	stmdaeq	r0, {r0, r4, r5, r8, sl, fp}
 8000d6c:	08000d31 	stmdaeq	r0, {r0, r4, r5, r8, sl, fp}
 8000d70:	08000d31 	stmdaeq	r0, {r0, r4, r5, r8, sl, fp}
 8000d74:	08000eb3 	stmdaeq	r0, {r0, r1, r4, r5, r7, r9, sl, fp}
 8000d78:	08000ddf 	stmdaeq	r0, {r0, r1, r2, r3, r4, r6, r7, r8, sl, fp}
 8000d7c:	08000e6d 	stmdaeq	r0, {r0, r2, r3, r5, r6, r9, sl, fp}
 8000d80:	08000d31 	stmdaeq	r0, {r0, r4, r5, r8, sl, fp}
 8000d84:	08000d31 	stmdaeq	r0, {r0, r4, r5, r8, sl, fp}
 8000d88:	08000ed5 	stmdaeq	r0, {r0, r2, r4, r6, r7, r9, sl, fp}
 8000d8c:	08000d31 	stmdaeq	r0, {r0, r4, r5, r8, sl, fp}
 8000d90:	08000ddf 	stmdaeq	r0, {r0, r1, r2, r3, r4, r6, r7, r8, sl, fp}
 8000d94:	08000d31 	stmdaeq	r0, {r0, r4, r5, r8, sl, fp}
 8000d98:	08000d31 	stmdaeq	r0, {r0, r4, r5, r8, sl, fp}
 8000d9c:	08000e75 	stmdaeq	r0, {r0, r2, r4, r5, r6, r9, sl, fp}
 8000da0:	6833      	ldr	r3, [r6, #0]
 8000da2:	1d1a      	adds	r2, r3, #4
 8000da4:	681b      	ldr	r3, [r3, #0]
 8000da6:	6032      	str	r2, [r6, #0]
 8000da8:	f104 0642 	add.w	r6, r4, #66	; 0x42
 8000dac:	f884 3042 	strb.w	r3, [r4, #66]	; 0x42
 8000db0:	2301      	movs	r3, #1
 8000db2:	e09c      	b.n	8000eee <_printf_i+0x1e6>
 8000db4:	6833      	ldr	r3, [r6, #0]
 8000db6:	6820      	ldr	r0, [r4, #0]
 8000db8:	1d19      	adds	r1, r3, #4
 8000dba:	6031      	str	r1, [r6, #0]
 8000dbc:	0606      	lsls	r6, r0, #24
 8000dbe:	d501      	bpl.n	8000dc4 <_printf_i+0xbc>
 8000dc0:	681d      	ldr	r5, [r3, #0]
 8000dc2:	e003      	b.n	8000dcc <_printf_i+0xc4>
 8000dc4:	0645      	lsls	r5, r0, #25
 8000dc6:	d5fb      	bpl.n	8000dc0 <_printf_i+0xb8>
 8000dc8:	f9b3 5000 	ldrsh.w	r5, [r3]
 8000dcc:	2d00      	cmp	r5, #0
 8000dce:	da03      	bge.n	8000dd8 <_printf_i+0xd0>
 8000dd0:	232d      	movs	r3, #45	; 0x2d
 8000dd2:	426d      	negs	r5, r5
 8000dd4:	f884 3043 	strb.w	r3, [r4, #67]	; 0x43
 8000dd8:	4858      	ldr	r0, [pc, #352]	; (8000f3c <_printf_i+0x234>)
 8000dda:	230a      	movs	r3, #10
 8000ddc:	e011      	b.n	8000e02 <_printf_i+0xfa>
 8000dde:	6821      	ldr	r1, [r4, #0]
 8000de0:	6833      	ldr	r3, [r6, #0]
 8000de2:	0608      	lsls	r0, r1, #24
 8000de4:	f853 5b04 	ldr.w	r5, [r3], #4
 8000de8:	d402      	bmi.n	8000df0 <_printf_i+0xe8>
 8000dea:	0649      	lsls	r1, r1, #25
 8000dec:	bf48      	it	mi
 8000dee:	b2ad      	uxthmi	r5, r5
 8000df0:	2f6f      	cmp	r7, #111	; 0x6f
 8000df2:	4852      	ldr	r0, [pc, #328]	; (8000f3c <_printf_i+0x234>)
 8000df4:	6033      	str	r3, [r6, #0]
 8000df6:	bf14      	ite	ne
 8000df8:	230a      	movne	r3, #10
 8000dfa:	2308      	moveq	r3, #8
 8000dfc:	2100      	movs	r1, #0
 8000dfe:	f884 1043 	strb.w	r1, [r4, #67]	; 0x43
 8000e02:	6866      	ldr	r6, [r4, #4]
 8000e04:	60a6      	str	r6, [r4, #8]
 8000e06:	2e00      	cmp	r6, #0
 8000e08:	db05      	blt.n	8000e16 <_printf_i+0x10e>
 8000e0a:	6821      	ldr	r1, [r4, #0]
 8000e0c:	432e      	orrs	r6, r5
 8000e0e:	f021 0104 	bic.w	r1, r1, #4
 8000e12:	6021      	str	r1, [r4, #0]
 8000e14:	d04b      	beq.n	8000eae <_printf_i+0x1a6>
 8000e16:	4616      	mov	r6, r2
 8000e18:	fbb5 f1f3 	udiv	r1, r5, r3
 8000e1c:	fb03 5711 	mls	r7, r3, r1, r5
 8000e20:	5dc7      	ldrb	r7, [r0, r7]
 8000e22:	f806 7d01 	strb.w	r7, [r6, #-1]!
 8000e26:	462f      	mov	r7, r5
 8000e28:	42bb      	cmp	r3, r7
 8000e2a:	460d      	mov	r5, r1
 8000e2c:	d9f4      	bls.n	8000e18 <_printf_i+0x110>
 8000e2e:	2b08      	cmp	r3, #8
 8000e30:	d10b      	bne.n	8000e4a <_printf_i+0x142>
 8000e32:	6823      	ldr	r3, [r4, #0]
 8000e34:	07df      	lsls	r7, r3, #31
 8000e36:	d508      	bpl.n	8000e4a <_printf_i+0x142>
 8000e38:	6923      	ldr	r3, [r4, #16]
 8000e3a:	6861      	ldr	r1, [r4, #4]
 8000e3c:	4299      	cmp	r1, r3
 8000e3e:	bfde      	ittt	le
 8000e40:	2330      	movle	r3, #48	; 0x30
 8000e42:	f806 3c01 	strble.w	r3, [r6, #-1]
 8000e46:	f106 36ff 	addle.w	r6, r6, #4294967295	; 0xffffffff
 8000e4a:	1b92      	subs	r2, r2, r6
 8000e4c:	6122      	str	r2, [r4, #16]
 8000e4e:	f8cd a000 	str.w	sl, [sp]
 8000e52:	464b      	mov	r3, r9
 8000e54:	aa03      	add	r2, sp, #12
 8000e56:	4621      	mov	r1, r4
 8000e58:	4640      	mov	r0, r8
 8000e5a:	f7ff fee7 	bl	8000c2c <_printf_common>
 8000e5e:	3001      	adds	r0, #1
 8000e60:	d14a      	bne.n	8000ef8 <_printf_i+0x1f0>
 8000e62:	f04f 30ff 	mov.w	r0, #4294967295	; 0xffffffff
 8000e66:	b004      	add	sp, #16
 8000e68:	e8bd 87f0 	ldmia.w	sp!, {r4, r5, r6, r7, r8, r9, sl, pc}
 8000e6c:	6823      	ldr	r3, [r4, #0]
 8000e6e:	f043 0320 	orr.w	r3, r3, #32
 8000e72:	6023      	str	r3, [r4, #0]
 8000e74:	4832      	ldr	r0, [pc, #200]	; (8000f40 <_printf_i+0x238>)
 8000e76:	2778      	movs	r7, #120	; 0x78
 8000e78:	f884 7045 	strb.w	r7, [r4, #69]	; 0x45
 8000e7c:	6823      	ldr	r3, [r4, #0]
 8000e7e:	6831      	ldr	r1, [r6, #0]
 8000e80:	061f      	lsls	r7, r3, #24
 8000e82:	f851 5b04 	ldr.w	r5, [r1], #4
 8000e86:	d402      	bmi.n	8000e8e <_printf_i+0x186>
 8000e88:	065f      	lsls	r7, r3, #25
 8000e8a:	bf48      	it	mi
 8000e8c:	b2ad      	uxthmi	r5, r5
 8000e8e:	6031      	str	r1, [r6, #0]
 8000e90:	07d9      	lsls	r1, r3, #31
 8000e92:	bf44      	itt	mi
 8000e94:	f043 0320 	orrmi.w	r3, r3, #32
 8000e98:	6023      	strmi	r3, [r4, #0]
 8000e9a:	b11d      	cbz	r5, 8000ea4 <_printf_i+0x19c>
 8000e9c:	2310      	movs	r3, #16
 8000e9e:	e7ad      	b.n	8000dfc <_printf_i+0xf4>
 8000ea0:	4826      	ldr	r0, [pc, #152]	; (8000f3c <_printf_i+0x234>)
 8000ea2:	e7e9      	b.n	8000e78 <_printf_i+0x170>
 8000ea4:	6823      	ldr	r3, [r4, #0]
 8000ea6:	f023 0320 	bic.w	r3, r3, #32
 8000eaa:	6023      	str	r3, [r4, #0]
 8000eac:	e7f6      	b.n	8000e9c <_printf_i+0x194>
 8000eae:	4616      	mov	r6, r2
 8000eb0:	e7bd      	b.n	8000e2e <_printf_i+0x126>
 8000eb2:	6833      	ldr	r3, [r6, #0]
 8000eb4:	6825      	ldr	r5, [r4, #0]
 8000eb6:	6961      	ldr	r1, [r4, #20]
 8000eb8:	1d18      	adds	r0, r3, #4
 8000eba:	6030      	str	r0, [r6, #0]
 8000ebc:	062e      	lsls	r6, r5, #24
 8000ebe:	681b      	ldr	r3, [r3, #0]
 8000ec0:	d501      	bpl.n	8000ec6 <_printf_i+0x1be>
 8000ec2:	6019      	str	r1, [r3, #0]
 8000ec4:	e002      	b.n	8000ecc <_printf_i+0x1c4>
 8000ec6:	0668      	lsls	r0, r5, #25
 8000ec8:	d5fb      	bpl.n	8000ec2 <_printf_i+0x1ba>
 8000eca:	8019      	strh	r1, [r3, #0]
 8000ecc:	2300      	movs	r3, #0
 8000ece:	6123      	str	r3, [r4, #16]
 8000ed0:	4616      	mov	r6, r2
 8000ed2:	e7bc      	b.n	8000e4e <_printf_i+0x146>
 8000ed4:	6833      	ldr	r3, [r6, #0]
 8000ed6:	1d1a      	adds	r2, r3, #4
 8000ed8:	6032      	str	r2, [r6, #0]
 8000eda:	681e      	ldr	r6, [r3, #0]
 8000edc:	6862      	ldr	r2, [r4, #4]
 8000ede:	2100      	movs	r1, #0
 8000ee0:	4630      	mov	r0, r6
 8000ee2:	f7ff f975 	bl	80001d0 <memchr>
 8000ee6:	b108      	cbz	r0, 8000eec <_printf_i+0x1e4>
 8000ee8:	1b80      	subs	r0, r0, r6
 8000eea:	6060      	str	r0, [r4, #4]
 8000eec:	6863      	ldr	r3, [r4, #4]
 8000eee:	6123      	str	r3, [r4, #16]
 8000ef0:	2300      	movs	r3, #0
 8000ef2:	f884 3043 	strb.w	r3, [r4, #67]	; 0x43
 8000ef6:	e7aa      	b.n	8000e4e <_printf_i+0x146>
 8000ef8:	6923      	ldr	r3, [r4, #16]
 8000efa:	4632      	mov	r2, r6
 8000efc:	4649      	mov	r1, r9
 8000efe:	4640      	mov	r0, r8
 8000f00:	47d0      	blx	sl
 8000f02:	3001      	adds	r0, #1
 8000f04:	d0ad      	beq.n	8000e62 <_printf_i+0x15a>
 8000f06:	6823      	ldr	r3, [r4, #0]
 8000f08:	079b      	lsls	r3, r3, #30
 8000f0a:	d413      	bmi.n	8000f34 <_printf_i+0x22c>
 8000f0c:	68e0      	ldr	r0, [r4, #12]
 8000f0e:	9b03      	ldr	r3, [sp, #12]
 8000f10:	4298      	cmp	r0, r3
 8000f12:	bfb8      	it	lt
 8000f14:	4618      	movlt	r0, r3
 8000f16:	e7a6      	b.n	8000e66 <_printf_i+0x15e>
 8000f18:	2301      	movs	r3, #1
 8000f1a:	4632      	mov	r2, r6
 8000f1c:	4649      	mov	r1, r9
 8000f1e:	4640      	mov	r0, r8
 8000f20:	47d0      	blx	sl
 8000f22:	3001      	adds	r0, #1
 8000f24:	d09d      	beq.n	8000e62 <_printf_i+0x15a>
 8000f26:	3501      	adds	r5, #1
 8000f28:	68e3      	ldr	r3, [r4, #12]
 8000f2a:	9903      	ldr	r1, [sp, #12]
 8000f2c:	1a5b      	subs	r3, r3, r1
 8000f2e:	42ab      	cmp	r3, r5
 8000f30:	dcf2      	bgt.n	8000f18 <_printf_i+0x210>
 8000f32:	e7eb      	b.n	8000f0c <_printf_i+0x204>
 8000f34:	2500      	movs	r5, #0
 8000f36:	f104 0619 	add.w	r6, r4, #25
 8000f3a:	e7f5      	b.n	8000f28 <_printf_i+0x220>
 8000f3c:	08001322 	stmdaeq	r0, {r1, r5, r8, r9, ip}
 8000f40:	08001333 	stmdaeq	r0, {r0, r1, r4, r5, r8, r9, ip}

08000f44 <__sflush_r>:
 8000f44:	f9b1 200c 	ldrsh.w	r2, [r1, #12]
 8000f48:	e92d 41f0 	stmdb	sp!, {r4, r5, r6, r7, r8, lr}
 8000f4c:	0716      	lsls	r6, r2, #28
 8000f4e:	4605      	mov	r5, r0
 8000f50:	460c      	mov	r4, r1
 8000f52:	d454      	bmi.n	8000ffe <__sflush_r+0xba>
 8000f54:	684b      	ldr	r3, [r1, #4]
 8000f56:	2b00      	cmp	r3, #0
 8000f58:	dc02      	bgt.n	8000f60 <__sflush_r+0x1c>
 8000f5a:	6c0b      	ldr	r3, [r1, #64]	; 0x40
 8000f5c:	2b00      	cmp	r3, #0
 8000f5e:	dd48      	ble.n	8000ff2 <__sflush_r+0xae>
 8000f60:	6ae6      	ldr	r6, [r4, #44]	; 0x2c
 8000f62:	2e00      	cmp	r6, #0
 8000f64:	d045      	beq.n	8000ff2 <__sflush_r+0xae>
 8000f66:	2300      	movs	r3, #0
 8000f68:	f412 5280 	ands.w	r2, r2, #4096	; 0x1000
 8000f6c:	682f      	ldr	r7, [r5, #0]
 8000f6e:	6a21      	ldr	r1, [r4, #32]
 8000f70:	602b      	str	r3, [r5, #0]
 8000f72:	d030      	beq.n	8000fd6 <__sflush_r+0x92>
 8000f74:	6d62      	ldr	r2, [r4, #84]	; 0x54
 8000f76:	89a3      	ldrh	r3, [r4, #12]
 8000f78:	0759      	lsls	r1, r3, #29
 8000f7a:	d505      	bpl.n	8000f88 <__sflush_r+0x44>
 8000f7c:	6863      	ldr	r3, [r4, #4]
 8000f7e:	1ad2      	subs	r2, r2, r3
 8000f80:	6b63      	ldr	r3, [r4, #52]	; 0x34
 8000f82:	b10b      	cbz	r3, 8000f88 <__sflush_r+0x44>
 8000f84:	6c23      	ldr	r3, [r4, #64]	; 0x40
 8000f86:	1ad2      	subs	r2, r2, r3
 8000f88:	2300      	movs	r3, #0
 8000f8a:	6ae6      	ldr	r6, [r4, #44]	; 0x2c
 8000f8c:	6a21      	ldr	r1, [r4, #32]
 8000f8e:	4628      	mov	r0, r5
 8000f90:	47b0      	blx	r6
 8000f92:	1c43      	adds	r3, r0, #1
 8000f94:	89a3      	ldrh	r3, [r4, #12]
 8000f96:	d106      	bne.n	8000fa6 <__sflush_r+0x62>
 8000f98:	6829      	ldr	r1, [r5, #0]
 8000f9a:	291d      	cmp	r1, #29
 8000f9c:	d82b      	bhi.n	8000ff6 <__sflush_r+0xb2>
 8000f9e:	4a2a      	ldr	r2, [pc, #168]	; (8001048 <__sflush_r+0x104>)
 8000fa0:	40ca      	lsrs	r2, r1
 8000fa2:	07d6      	lsls	r6, r2, #31
 8000fa4:	d527      	bpl.n	8000ff6 <__sflush_r+0xb2>
 8000fa6:	2200      	movs	r2, #0
 8000fa8:	6062      	str	r2, [r4, #4]
 8000faa:	04d9      	lsls	r1, r3, #19
 8000fac:	6922      	ldr	r2, [r4, #16]
 8000fae:	6022      	str	r2, [r4, #0]
 8000fb0:	d504      	bpl.n	8000fbc <__sflush_r+0x78>
 8000fb2:	1c42      	adds	r2, r0, #1
 8000fb4:	d101      	bne.n	8000fba <__sflush_r+0x76>
 8000fb6:	682b      	ldr	r3, [r5, #0]
 8000fb8:	b903      	cbnz	r3, 8000fbc <__sflush_r+0x78>
 8000fba:	6560      	str	r0, [r4, #84]	; 0x54
 8000fbc:	6b61      	ldr	r1, [r4, #52]	; 0x34
 8000fbe:	602f      	str	r7, [r5, #0]
 8000fc0:	b1b9      	cbz	r1, 8000ff2 <__sflush_r+0xae>
 8000fc2:	f104 0344 	add.w	r3, r4, #68	; 0x44
 8000fc6:	4299      	cmp	r1, r3
 8000fc8:	d002      	beq.n	8000fd0 <__sflush_r+0x8c>
 8000fca:	4628      	mov	r0, r5
 8000fcc:	f7ff fbf4 	bl	80007b8 <_free_r>
 8000fd0:	2300      	movs	r3, #0
 8000fd2:	6363      	str	r3, [r4, #52]	; 0x34
 8000fd4:	e00d      	b.n	8000ff2 <__sflush_r+0xae>
 8000fd6:	2301      	movs	r3, #1
 8000fd8:	4628      	mov	r0, r5
 8000fda:	47b0      	blx	r6
 8000fdc:	4602      	mov	r2, r0
 8000fde:	1c50      	adds	r0, r2, #1
 8000fe0:	d1c9      	bne.n	8000f76 <__sflush_r+0x32>
 8000fe2:	682b      	ldr	r3, [r5, #0]
 8000fe4:	2b00      	cmp	r3, #0
 8000fe6:	d0c6      	beq.n	8000f76 <__sflush_r+0x32>
 8000fe8:	2b1d      	cmp	r3, #29
 8000fea:	d001      	beq.n	8000ff0 <__sflush_r+0xac>
 8000fec:	2b16      	cmp	r3, #22
 8000fee:	d11e      	bne.n	800102e <__sflush_r+0xea>
 8000ff0:	602f      	str	r7, [r5, #0]
 8000ff2:	2000      	movs	r0, #0
 8000ff4:	e022      	b.n	800103c <__sflush_r+0xf8>
 8000ff6:	f043 0340 	orr.w	r3, r3, #64	; 0x40
 8000ffa:	b21b      	sxth	r3, r3
 8000ffc:	e01b      	b.n	8001036 <__sflush_r+0xf2>
 8000ffe:	690f      	ldr	r7, [r1, #16]
 8001000:	2f00      	cmp	r7, #0
 8001002:	d0f6      	beq.n	8000ff2 <__sflush_r+0xae>
 8001004:	0793      	lsls	r3, r2, #30
 8001006:	680e      	ldr	r6, [r1, #0]
 8001008:	bf08      	it	eq
 800100a:	694b      	ldreq	r3, [r1, #20]
 800100c:	600f      	str	r7, [r1, #0]
 800100e:	bf18      	it	ne
 8001010:	2300      	movne	r3, #0
 8001012:	eba6 0807 	sub.w	r8, r6, r7
 8001016:	608b      	str	r3, [r1, #8]
 8001018:	f1b8 0f00 	cmp.w	r8, #0
 800101c:	dde9      	ble.n	8000ff2 <__sflush_r+0xae>
 800101e:	6a21      	ldr	r1, [r4, #32]
 8001020:	6aa6      	ldr	r6, [r4, #40]	; 0x28
 8001022:	4643      	mov	r3, r8
 8001024:	463a      	mov	r2, r7
 8001026:	4628      	mov	r0, r5
 8001028:	47b0      	blx	r6
 800102a:	2800      	cmp	r0, #0
 800102c:	dc08      	bgt.n	8001040 <__sflush_r+0xfc>
 800102e:	f9b4 300c 	ldrsh.w	r3, [r4, #12]
 8001032:	f043 0340 	orr.w	r3, r3, #64	; 0x40
 8001036:	81a3      	strh	r3, [r4, #12]
 8001038:	f04f 30ff 	mov.w	r0, #4294967295	; 0xffffffff
 800103c:	e8bd 81f0 	ldmia.w	sp!, {r4, r5, r6, r7, r8, pc}
 8001040:	4407      	add	r7, r0
 8001042:	eba8 0800 	sub.w	r8, r8, r0
 8001046:	e7e7      	b.n	8001018 <__sflush_r+0xd4>
 8001048:	20400001 	subcs	r0, r0, r1

0800104c <_fflush_r>:
 800104c:	b538      	push	{r3, r4, r5, lr}
 800104e:	690b      	ldr	r3, [r1, #16]
 8001050:	4605      	mov	r5, r0
 8001052:	460c      	mov	r4, r1
 8001054:	b913      	cbnz	r3, 800105c <_fflush_r+0x10>
 8001056:	2500      	movs	r5, #0
 8001058:	4628      	mov	r0, r5
 800105a:	bd38      	pop	{r3, r4, r5, pc}
 800105c:	b118      	cbz	r0, 8001066 <_fflush_r+0x1a>
 800105e:	6a03      	ldr	r3, [r0, #32]
 8001060:	b90b      	cbnz	r3, 8001066 <_fflush_r+0x1a>
 8001062:	f7ff faa1 	bl	80005a8 <__sinit>
 8001066:	f9b4 300c 	ldrsh.w	r3, [r4, #12]
 800106a:	2b00      	cmp	r3, #0
 800106c:	d0f3      	beq.n	8001056 <_fflush_r+0xa>
 800106e:	6e62      	ldr	r2, [r4, #100]	; 0x64
 8001070:	07d0      	lsls	r0, r2, #31
 8001072:	d404      	bmi.n	800107e <_fflush_r+0x32>
 8001074:	0599      	lsls	r1, r3, #22
 8001076:	d402      	bmi.n	800107e <_fflush_r+0x32>
 8001078:	6da0      	ldr	r0, [r4, #88]	; 0x58
 800107a:	f7ff fb9a 	bl	80007b2 <__retarget_lock_acquire_recursive>
 800107e:	4628      	mov	r0, r5
 8001080:	4621      	mov	r1, r4
 8001082:	f7ff ff5f 	bl	8000f44 <__sflush_r>
 8001086:	6e63      	ldr	r3, [r4, #100]	; 0x64
 8001088:	07da      	lsls	r2, r3, #31
 800108a:	4605      	mov	r5, r0
 800108c:	d4e4      	bmi.n	8001058 <_fflush_r+0xc>
 800108e:	89a3      	ldrh	r3, [r4, #12]
 8001090:	059b      	lsls	r3, r3, #22
 8001092:	d4e1      	bmi.n	8001058 <_fflush_r+0xc>
 8001094:	6da0      	ldr	r0, [r4, #88]	; 0x58
 8001096:	f7ff fb8d 	bl	80007b4 <__retarget_lock_release_recursive>
 800109a:	e7dd      	b.n	8001058 <_fflush_r+0xc>

0800109c <__swbuf_r>:
 800109c:	b5f8      	push	{r3, r4, r5, r6, r7, lr}
 800109e:	460e      	mov	r6, r1
 80010a0:	4614      	mov	r4, r2
 80010a2:	4605      	mov	r5, r0
 80010a4:	b118      	cbz	r0, 80010ae <__swbuf_r+0x12>
 80010a6:	6a03      	ldr	r3, [r0, #32]
 80010a8:	b90b      	cbnz	r3, 80010ae <__swbuf_r+0x12>
 80010aa:	f7ff fa7d 	bl	80005a8 <__sinit>
 80010ae:	69a3      	ldr	r3, [r4, #24]
 80010b0:	60a3      	str	r3, [r4, #8]
 80010b2:	89a3      	ldrh	r3, [r4, #12]
 80010b4:	071a      	lsls	r2, r3, #28
 80010b6:	d501      	bpl.n	80010bc <__swbuf_r+0x20>
 80010b8:	6923      	ldr	r3, [r4, #16]
 80010ba:	b943      	cbnz	r3, 80010ce <__swbuf_r+0x32>
 80010bc:	4621      	mov	r1, r4
 80010be:	4628      	mov	r0, r5
 80010c0:	f000 f82a 	bl	8001118 <__swsetup_r>
 80010c4:	b118      	cbz	r0, 80010ce <__swbuf_r+0x32>
 80010c6:	f04f 37ff 	mov.w	r7, #4294967295	; 0xffffffff
 80010ca:	4638      	mov	r0, r7
 80010cc:	bdf8      	pop	{r3, r4, r5, r6, r7, pc}
 80010ce:	6823      	ldr	r3, [r4, #0]
 80010d0:	6922      	ldr	r2, [r4, #16]
 80010d2:	1a98      	subs	r0, r3, r2
 80010d4:	6963      	ldr	r3, [r4, #20]
 80010d6:	b2f6      	uxtb	r6, r6
 80010d8:	4283      	cmp	r3, r0
 80010da:	4637      	mov	r7, r6
 80010dc:	dc05      	bgt.n	80010ea <__swbuf_r+0x4e>
 80010de:	4621      	mov	r1, r4
 80010e0:	4628      	mov	r0, r5
 80010e2:	f7ff ffb3 	bl	800104c <_fflush_r>
 80010e6:	2800      	cmp	r0, #0
 80010e8:	d1ed      	bne.n	80010c6 <__swbuf_r+0x2a>
 80010ea:	68a3      	ldr	r3, [r4, #8]
 80010ec:	3b01      	subs	r3, #1
 80010ee:	60a3      	str	r3, [r4, #8]
 80010f0:	6823      	ldr	r3, [r4, #0]
 80010f2:	1c5a      	adds	r2, r3, #1
 80010f4:	6022      	str	r2, [r4, #0]
 80010f6:	701e      	strb	r6, [r3, #0]
 80010f8:	6962      	ldr	r2, [r4, #20]
 80010fa:	1c43      	adds	r3, r0, #1
 80010fc:	429a      	cmp	r2, r3
 80010fe:	d004      	beq.n	800110a <__swbuf_r+0x6e>
 8001100:	89a3      	ldrh	r3, [r4, #12]
 8001102:	07db      	lsls	r3, r3, #31
 8001104:	d5e1      	bpl.n	80010ca <__swbuf_r+0x2e>
 8001106:	2e0a      	cmp	r6, #10
 8001108:	d1df      	bne.n	80010ca <__swbuf_r+0x2e>
 800110a:	4621      	mov	r1, r4
 800110c:	4628      	mov	r0, r5
 800110e:	f7ff ff9d 	bl	800104c <_fflush_r>
 8001112:	2800      	cmp	r0, #0
 8001114:	d0d9      	beq.n	80010ca <__swbuf_r+0x2e>
 8001116:	e7d6      	b.n	80010c6 <__swbuf_r+0x2a>

08001118 <__swsetup_r>:
 8001118:	b538      	push	{r3, r4, r5, lr}
 800111a:	4b29      	ldr	r3, [pc, #164]	; (80011c0 <__swsetup_r+0xa8>)
 800111c:	4605      	mov	r5, r0
 800111e:	6818      	ldr	r0, [r3, #0]
 8001120:	460c      	mov	r4, r1
 8001122:	b118      	cbz	r0, 800112c <__swsetup_r+0x14>
 8001124:	6a03      	ldr	r3, [r0, #32]
 8001126:	b90b      	cbnz	r3, 800112c <__swsetup_r+0x14>
 8001128:	f7ff fa3e 	bl	80005a8 <__sinit>
 800112c:	f9b4 300c 	ldrsh.w	r3, [r4, #12]
 8001130:	0719      	lsls	r1, r3, #28
 8001132:	d422      	bmi.n	800117a <__swsetup_r+0x62>
 8001134:	06da      	lsls	r2, r3, #27
 8001136:	d407      	bmi.n	8001148 <__swsetup_r+0x30>
 8001138:	2209      	movs	r2, #9
 800113a:	602a      	str	r2, [r5, #0]
 800113c:	f043 0340 	orr.w	r3, r3, #64	; 0x40
 8001140:	81a3      	strh	r3, [r4, #12]
 8001142:	f04f 30ff 	mov.w	r0, #4294967295	; 0xffffffff
 8001146:	e033      	b.n	80011b0 <__swsetup_r+0x98>
 8001148:	0758      	lsls	r0, r3, #29
 800114a:	d512      	bpl.n	8001172 <__swsetup_r+0x5a>
 800114c:	6b61      	ldr	r1, [r4, #52]	; 0x34
 800114e:	b141      	cbz	r1, 8001162 <__swsetup_r+0x4a>
 8001150:	f104 0344 	add.w	r3, r4, #68	; 0x44
 8001154:	4299      	cmp	r1, r3
 8001156:	d002      	beq.n	800115e <__swsetup_r+0x46>
 8001158:	4628      	mov	r0, r5
 800115a:	f7ff fb2d 	bl	80007b8 <_free_r>
 800115e:	2300      	movs	r3, #0
 8001160:	6363      	str	r3, [r4, #52]	; 0x34
 8001162:	89a3      	ldrh	r3, [r4, #12]
 8001164:	f023 0324 	bic.w	r3, r3, #36	; 0x24
 8001168:	81a3      	strh	r3, [r4, #12]
 800116a:	2300      	movs	r3, #0
 800116c:	6063      	str	r3, [r4, #4]
 800116e:	6923      	ldr	r3, [r4, #16]
 8001170:	6023      	str	r3, [r4, #0]
 8001172:	89a3      	ldrh	r3, [r4, #12]
 8001174:	f043 0308 	orr.w	r3, r3, #8
 8001178:	81a3      	strh	r3, [r4, #12]
 800117a:	6923      	ldr	r3, [r4, #16]
 800117c:	b94b      	cbnz	r3, 8001192 <__swsetup_r+0x7a>
 800117e:	89a3      	ldrh	r3, [r4, #12]
 8001180:	f403 7320 	and.w	r3, r3, #640	; 0x280
 8001184:	f5b3 7f00 	cmp.w	r3, #512	; 0x200
 8001188:	d003      	beq.n	8001192 <__swsetup_r+0x7a>
 800118a:	4621      	mov	r1, r4
 800118c:	4628      	mov	r0, r5
 800118e:	f000 f84f 	bl	8001230 <__smakebuf_r>
 8001192:	f9b4 300c 	ldrsh.w	r3, [r4, #12]
 8001196:	f013 0201 	ands.w	r2, r3, #1
 800119a:	d00a      	beq.n	80011b2 <__swsetup_r+0x9a>
 800119c:	2200      	movs	r2, #0
 800119e:	60a2      	str	r2, [r4, #8]
 80011a0:	6962      	ldr	r2, [r4, #20]
 80011a2:	4252      	negs	r2, r2
 80011a4:	61a2      	str	r2, [r4, #24]
 80011a6:	6922      	ldr	r2, [r4, #16]
 80011a8:	b942      	cbnz	r2, 80011bc <__swsetup_r+0xa4>
 80011aa:	f013 0080 	ands.w	r0, r3, #128	; 0x80
 80011ae:	d1c5      	bne.n	800113c <__swsetup_r+0x24>
 80011b0:	bd38      	pop	{r3, r4, r5, pc}
 80011b2:	0799      	lsls	r1, r3, #30
 80011b4:	bf58      	it	pl
 80011b6:	6962      	ldrpl	r2, [r4, #20]
 80011b8:	60a2      	str	r2, [r4, #8]
 80011ba:	e7f4      	b.n	80011a6 <__swsetup_r+0x8e>
 80011bc:	2000      	movs	r0, #0
 80011be:	e7f7      	b.n	80011b0 <__swsetup_r+0x98>
 80011c0:	20000014 	andcs	r0, r0, r4, lsl r0

080011c4 <_sbrk_r>:
 80011c4:	b538      	push	{r3, r4, r5, lr}
 80011c6:	4d06      	ldr	r5, [pc, #24]	; (80011e0 <_sbrk_r+0x1c>)
 80011c8:	2300      	movs	r3, #0
 80011ca:	4604      	mov	r4, r0
 80011cc:	4608      	mov	r0, r1
 80011ce:	602b      	str	r3, [r5, #0]
 80011d0:	f7ff f8fe 	bl	80003d0 <_sbrk>
 80011d4:	1c43      	adds	r3, r0, #1
 80011d6:	d102      	bne.n	80011de <_sbrk_r+0x1a>
 80011d8:	682b      	ldr	r3, [r5, #0]
 80011da:	b103      	cbz	r3, 80011de <_sbrk_r+0x1a>
 80011dc:	6023      	str	r3, [r4, #0]
 80011de:	bd38      	pop	{r3, r4, r5, pc}
 80011e0:	200001c4 	andcs	r0, r0, r4, asr #3

080011e4 <__swhatbuf_r>:
 80011e4:	b570      	push	{r4, r5, r6, lr}
 80011e6:	460c      	mov	r4, r1
 80011e8:	f9b1 100e 	ldrsh.w	r1, [r1, #14]
 80011ec:	2900      	cmp	r1, #0
 80011ee:	b096      	sub	sp, #88	; 0x58
 80011f0:	4615      	mov	r5, r2
 80011f2:	461e      	mov	r6, r3
 80011f4:	da0d      	bge.n	8001212 <__swhatbuf_r+0x2e>
 80011f6:	89a3      	ldrh	r3, [r4, #12]
 80011f8:	f013 0f80 	tst.w	r3, #128	; 0x80
 80011fc:	f04f 0100 	mov.w	r1, #0
 8001200:	bf14      	ite	ne
 8001202:	2340      	movne	r3, #64	; 0x40
 8001204:	f44f 6380 	moveq.w	r3, #1024	; 0x400
 8001208:	2000      	movs	r0, #0
 800120a:	6031      	str	r1, [r6, #0]
 800120c:	602b      	str	r3, [r5, #0]
 800120e:	b016      	add	sp, #88	; 0x58
 8001210:	bd70      	pop	{r4, r5, r6, pc}
 8001212:	466a      	mov	r2, sp
 8001214:	f000 f848 	bl	80012a8 <_fstat_r>
 8001218:	2800      	cmp	r0, #0
 800121a:	dbec      	blt.n	80011f6 <__swhatbuf_r+0x12>
 800121c:	9901      	ldr	r1, [sp, #4]
 800121e:	f401 4170 	and.w	r1, r1, #61440	; 0xf000
 8001222:	f5a1 5300 	sub.w	r3, r1, #8192	; 0x2000
 8001226:	4259      	negs	r1, r3
 8001228:	4159      	adcs	r1, r3
 800122a:	f44f 6380 	mov.w	r3, #1024	; 0x400
 800122e:	e7eb      	b.n	8001208 <__swhatbuf_r+0x24>

08001230 <__smakebuf_r>:
 8001230:	898b      	ldrh	r3, [r1, #12]
 8001232:	b5f7      	push	{r0, r1, r2, r4, r5, r6, r7, lr}
 8001234:	079d      	lsls	r5, r3, #30
 8001236:	4606      	mov	r6, r0
 8001238:	460c      	mov	r4, r1
 800123a:	d507      	bpl.n	800124c <__smakebuf_r+0x1c>
 800123c:	f104 0347 	add.w	r3, r4, #71	; 0x47
 8001240:	6023      	str	r3, [r4, #0]
 8001242:	6123      	str	r3, [r4, #16]
 8001244:	2301      	movs	r3, #1
 8001246:	6163      	str	r3, [r4, #20]
 8001248:	b003      	add	sp, #12
 800124a:	bdf0      	pop	{r4, r5, r6, r7, pc}
 800124c:	ab01      	add	r3, sp, #4
 800124e:	466a      	mov	r2, sp
 8001250:	f7ff ffc8 	bl	80011e4 <__swhatbuf_r>
 8001254:	9f00      	ldr	r7, [sp, #0]
 8001256:	4605      	mov	r5, r0
 8001258:	4639      	mov	r1, r7
 800125a:	4630      	mov	r0, r6
 800125c:	f7ff fb18 	bl	8000890 <_malloc_r>
 8001260:	b948      	cbnz	r0, 8001276 <__smakebuf_r+0x46>
 8001262:	f9b4 300c 	ldrsh.w	r3, [r4, #12]
 8001266:	059a      	lsls	r2, r3, #22
 8001268:	d4ee      	bmi.n	8001248 <__smakebuf_r+0x18>
 800126a:	f023 0303 	bic.w	r3, r3, #3
 800126e:	f043 0302 	orr.w	r3, r3, #2
 8001272:	81a3      	strh	r3, [r4, #12]
 8001274:	e7e2      	b.n	800123c <__smakebuf_r+0xc>
 8001276:	89a3      	ldrh	r3, [r4, #12]
 8001278:	6020      	str	r0, [r4, #0]
 800127a:	f043 0380 	orr.w	r3, r3, #128	; 0x80
 800127e:	81a3      	strh	r3, [r4, #12]
 8001280:	9b01      	ldr	r3, [sp, #4]
 8001282:	e9c4 0704 	strd	r0, r7, [r4, #16]
 8001286:	b15b      	cbz	r3, 80012a0 <__smakebuf_r+0x70>
 8001288:	f9b4 100e 	ldrsh.w	r1, [r4, #14]
 800128c:	4630      	mov	r0, r6
 800128e:	f000 f81d 	bl	80012cc <_isatty_r>
 8001292:	b128      	cbz	r0, 80012a0 <__smakebuf_r+0x70>
 8001294:	89a3      	ldrh	r3, [r4, #12]
 8001296:	f023 0303 	bic.w	r3, r3, #3
 800129a:	f043 0301 	orr.w	r3, r3, #1
 800129e:	81a3      	strh	r3, [r4, #12]
 80012a0:	89a3      	ldrh	r3, [r4, #12]
 80012a2:	431d      	orrs	r5, r3
 80012a4:	81a5      	strh	r5, [r4, #12]
 80012a6:	e7cf      	b.n	8001248 <__smakebuf_r+0x18>

080012a8 <_fstat_r>:
 80012a8:	b538      	push	{r3, r4, r5, lr}
 80012aa:	4d07      	ldr	r5, [pc, #28]	; (80012c8 <_fstat_r+0x20>)
 80012ac:	2300      	movs	r3, #0
 80012ae:	4604      	mov	r4, r0
 80012b0:	4608      	mov	r0, r1
 80012b2:	4611      	mov	r1, r2
 80012b4:	602b      	str	r3, [r5, #0]
 80012b6:	f7ff f862 	bl	800037e <_fstat>
 80012ba:	1c43      	adds	r3, r0, #1
 80012bc:	d102      	bne.n	80012c4 <_fstat_r+0x1c>
 80012be:	682b      	ldr	r3, [r5, #0]
 80012c0:	b103      	cbz	r3, 80012c4 <_fstat_r+0x1c>
 80012c2:	6023      	str	r3, [r4, #0]
 80012c4:	bd38      	pop	{r3, r4, r5, pc}
 80012c6:	bf00      	nop
 80012c8:	200001c4 	andcs	r0, r0, r4, asr #3

080012cc <_isatty_r>:
 80012cc:	b538      	push	{r3, r4, r5, lr}
 80012ce:	4d06      	ldr	r5, [pc, #24]	; (80012e8 <_isatty_r+0x1c>)
 80012d0:	2300      	movs	r3, #0
 80012d2:	4604      	mov	r4, r0
 80012d4:	4608      	mov	r0, r1
 80012d6:	602b      	str	r3, [r5, #0]
 80012d8:	f7ff f861 	bl	800039e <_isatty>
 80012dc:	1c43      	adds	r3, r0, #1
 80012de:	d102      	bne.n	80012e6 <_isatty_r+0x1a>
 80012e0:	682b      	ldr	r3, [r5, #0]
 80012e2:	b103      	cbz	r3, 80012e6 <_isatty_r+0x1a>
 80012e4:	6023      	str	r3, [r4, #0]
 80012e6:	bd38      	pop	{r3, r4, r5, pc}
 80012e8:	200001c4 	andcs	r0, r0, r4, asr #3

080012ec <_init>:
 80012ec:	b5f8      	push	{r3, r4, r5, r6, r7, lr}
 80012ee:	bf00      	nop
 80012f0:	bcf8      	pop	{r3, r4, r5, r6, r7}
 80012f2:	bc08      	pop	{r3}
 80012f4:	469e      	mov	lr, r3
 80012f6:	4770      	bx	lr

080012f8 <_fini>:
 80012f8:	b5f8      	push	{r3, r4, r5, r6, r7, lr}
 80012fa:	bf00      	nop
 80012fc:	bcf8      	pop	{r3, r4, r5, r6, r7}
 80012fe:	bc08      	pop	{r3}
 8001300:	469e      	mov	lr, r3
 8001302:	4770      	bx	lr

Disassembly of section .ARM:

08001344 <__exidx_start>:
 8001344:	7fffee8c 	svcvc	0x00ffee8c
 8001348:	00000001 	andeq	r0, r0, r1
